; Listing generated by Microsoft (R) Optimizing Compiler Version 17.00.50727.1 

include listing.inc

INCLUDELIB OLDNAMES

PUBLIC	??_C@_0BA@OBHIFHCN@?$FLScript?5Info?$FN?$AN?6?$AA@ ; `string'
PUBLIC	??_C@_06ENMHAAMA@?$DL?5?$CFs?$AN?6?$AA@		; `string'
PUBLIC	??_C@_0EB@OEBAMFAA@Title?3?5Default?5SSA?5V4?$CL?5?$CIASS?$CJ?$AN?6Sc@ ; `string'
PUBLIC	??_C@_02DKCKIIND@?$CFs?$AA@			; `string'
PUBLIC	??_C@_0P@HGAHEGPB@PlayResX?3?5?$CFd?$AN?6?$AA@	; `string'
PUBLIC	??_C@_0P@LKKNEGGP@PlayResY?3?5?$CFd?$AN?6?$AA@	; `string'
PUBLIC	??_C@_0BBM@INGDKPDI@ScaledBorderAndShadow?3?5yes?$AN?6?$AN?6?$FLV@ ; `string'
PUBLIC	??_C@_07MCAEODGB@Default?$AA@			; `string'
PUBLIC	??_C@_0BF@ENHKEJOA@Style?3?5?$CFs?0?$CFs?0?$CFd?0?$CFs?$AN?6?$AA@ ; `string'
PUBLIC	??_C@_03ELMLMPLG@Box?$AA@			; `string'
PUBLIC	??_C@_04NIIDALEH@Rubi?$AA@			; `string'
PUBLIC	??_C@_0BJ@DNHOCHEC@Style?3?5?$CFs?0?$CFs?0?$CFd?0?$CFs?$AN?6?1?1?$AN?6?$AA@ ; `string'
PUBLIC	??_C@_0FO@BJNIFNID@?$AN?6?$FLEvents?$FN?$AN?6Format?3?5Layer?0?5Start@ ; `string'
EXTRN	__imp_fprintf:PROC
EXTRN	__security_check_cookie:PROC
;	COMDAT ??_C@_0FO@BJNIFNID@?$AN?6?$FLEvents?$FN?$AN?6Format?3?5Layer?0?5Start@
CONST	SEGMENT
??_C@_0FO@BJNIFNID@?$AN?6?$FLEvents?$FN?$AN?6Format?3?5Layer?0?5Start@ DB 0dH
	DB	0aH, '[Events]', 0dH, 0aH, 'Format: Layer, Start, End, Style, '
	DB	'Name, MarginL, MarginR, MarginV, Effect, Text', 0dH, 0aH, 00H ; `string'
CONST	ENDS
;	COMDAT ??_C@_0BJ@DNHOCHEC@Style?3?5?$CFs?0?$CFs?0?$CFd?0?$CFs?$AN?6?1?1?$AN?6?$AA@
CONST	SEGMENT
??_C@_0BJ@DNHOCHEC@Style?3?5?$CFs?0?$CFs?0?$CFd?0?$CFs?$AN?6?1?1?$AN?6?$AA@ DB 'S'
	DB	'tyle: %s,%s,%d,%s', 0dH, 0aH, '//', 0dH, 0aH, 00H ; `string'
CONST	ENDS
;	COMDAT ??_C@_04NIIDALEH@Rubi?$AA@
CONST	SEGMENT
??_C@_04NIIDALEH@Rubi?$AA@ DB 'Rubi', 00H		; `string'
CONST	ENDS
;	COMDAT ??_C@_03ELMLMPLG@Box?$AA@
CONST	SEGMENT
??_C@_03ELMLMPLG@Box?$AA@ DB 'Box', 00H			; `string'
CONST	ENDS
;	COMDAT ??_C@_0BF@ENHKEJOA@Style?3?5?$CFs?0?$CFs?0?$CFd?0?$CFs?$AN?6?$AA@
CONST	SEGMENT
??_C@_0BF@ENHKEJOA@Style?3?5?$CFs?0?$CFs?0?$CFd?0?$CFs?$AN?6?$AA@ DB 'Sty'
	DB	'le: %s,%s,%d,%s', 0dH, 0aH, 00H		; `string'
CONST	ENDS
;	COMDAT ??_C@_07MCAEODGB@Default?$AA@
CONST	SEGMENT
??_C@_07MCAEODGB@Default?$AA@ DB 'Default', 00H		; `string'
CONST	ENDS
;	COMDAT ??_C@_0BBM@INGDKPDI@ScaledBorderAndShadow?3?5yes?$AN?6?$AN?6?$FLV@
CONST	SEGMENT
??_C@_0BBM@INGDKPDI@ScaledBorderAndShadow?3?5yes?$AN?6?$AN?6?$FLV@ DB 'Sc'
	DB	'aledBorderAndShadow: yes', 0dH, 0aH, 0dH, 0aH, '[V4+ Styles]', 0dH
	DB	0aH, 'Format: Name, Fontname, Fontsize, PrimaryColour, Seconda'
	DB	'ryColour, OutlineColour, BackColour, Bold, Italic, Underline,'
	DB	' StrikeOut, ScaleX, ScaleY, Spacing, Angle, BorderStyle, Outl'
	DB	'ine, Shadow, Alignment, MarginL, MarginR, MarginV, Encoding', 0dH
	DB	0aH, 00H					; `string'
CONST	ENDS
;	COMDAT ??_C@_0P@LKKNEGGP@PlayResY?3?5?$CFd?$AN?6?$AA@
CONST	SEGMENT
??_C@_0P@LKKNEGGP@PlayResY?3?5?$CFd?$AN?6?$AA@ DB 'PlayResY: %d', 0dH, 0aH
	DB	00H						; `string'
CONST	ENDS
;	COMDAT ??_C@_0P@HGAHEGPB@PlayResX?3?5?$CFd?$AN?6?$AA@
CONST	SEGMENT
??_C@_0P@HGAHEGPB@PlayResX?3?5?$CFd?$AN?6?$AA@ DB 'PlayResX: %d', 0dH, 0aH
	DB	00H						; `string'
CONST	ENDS
;	COMDAT ??_C@_02DKCKIIND@?$CFs?$AA@
CONST	SEGMENT
??_C@_02DKCKIIND@?$CFs?$AA@ DB '%s', 00H		; `string'
CONST	ENDS
;	COMDAT ??_C@_0EB@OEBAMFAA@Title?3?5Default?5SSA?5V4?$CL?5?$CIASS?$CJ?$AN?6Sc@
CONST	SEGMENT
??_C@_0EB@OEBAMFAA@Title?3?5Default?5SSA?5V4?$CL?5?$CIASS?$CJ?$AN?6Sc@ DB 'T'
	DB	'itle: Default SSA V4+ (ASS)', 0dH, 0aH, 'ScriptType: v4.00+', 0dH
	DB	0aH, 'WrapStyle: 0', 0dH, 0aH, 00H		; `string'
CONST	ENDS
;	COMDAT ??_C@_06ENMHAAMA@?$DL?5?$CFs?$AN?6?$AA@
CONST	SEGMENT
??_C@_06ENMHAAMA@?$DL?5?$CFs?$AN?6?$AA@ DB '; %s', 0dH, 0aH, 00H ; `string'
CONST	ENDS
;	COMDAT ??_C@_0BA@OBHIFHCN@?$FLScript?5Info?$FN?$AN?6?$AA@
CONST	SEGMENT
??_C@_0BA@OBHIFHCN@?$FLScript?5Info?$FN?$AN?6?$AA@ DB '[Script Info]', 0dH
	DB	0aH, 00H					; `string'
CONST	ENDS
PUBLIC	?assHeaderWrite@@YAXPEAU_iobuf@@PEAUass_setting_t@@@Z ; assHeaderWrite
PUBLIC	__real@3f800000
PUBLIC	__real@40000000
PUBLIC	__real@41200000
PUBLIC	__xmm@ffffffffffffffffffffffffffffffff
EXTRN	_CxxThrowException:PROC
EXTRN	__CxxFrameHandler3:PROC
EXTRN	__GSHandlerCheck:PROC
EXTRN	__GSHandlerCheck_EH:PROC
EXTRN	__GSHandlerCheck_SEH:PROC
EXTRN	__chkstk:PROC
EXTRN	memcpy:PROC
EXTRN	memset:PROC
EXTRN	__ImageBase:BYTE
EXTRN	__security_cookie:QWORD
EXTRN	_fltused:DWORD
;	COMDAT pdata
pdata	SEGMENT
$pdata$?assHeaderWrite@@YAXPEAU_iobuf@@PEAUass_setting_t@@@Z DD imagerel $LN12
	DD	imagerel $LN12+423
	DD	imagerel $unwind$?assHeaderWrite@@YAXPEAU_iobuf@@PEAUass_setting_t@@@Z
;	COMDAT __xmm@ffffffffffffffffffffffffffffffff
CONST	SEGMENT
__xmm@ffffffffffffffffffffffffffffffff DB 0ffH, 0ffH, 0ffH, 0ffH, 0ffH, 0ffH
	DB	0ffH, 0ffH, 0ffH, 0ffH, 0ffH, 0ffH, 0ffH, 0ffH, 0ffH, 0ffH
CONST	ENDS
;	COMDAT __real@41200000
CONST	SEGMENT
__real@41200000 DD 041200000r			; 10
CONST	ENDS
;	COMDAT __real@40000000
CONST	SEGMENT
__real@40000000 DD 040000000r			; 2
CONST	ENDS
;	COMDAT __real@3f800000
CONST	SEGMENT
__real@3f800000 DD 03f800000r			; 1
CONST	ENDS
;	COMDAT xdata
xdata	SEGMENT
$unwind$?assHeaderWrite@@YAXPEAU_iobuf@@PEAUass_setting_t@@@Z DD 060f01H
	DD	09640fH
	DD	08340fH
	DD	0700b520fH
xdata	ENDS
; Function compile flags: /Ogtpy
;	COMDAT ?assHeaderWrite@@YAXPEAU_iobuf@@PEAUass_setting_t@@@Z
_TEXT	SEGMENT
fp$ = 64
as$ = 72
?assHeaderWrite@@YAXPEAU_iobuf@@PEAUass_setting_t@@@Z PROC ; assHeaderWrite, COMDAT
; File e:\project\other\caption2ass-master\caption2ass_pcr\ass_header.cpp
; Line 11
$LN12:
	mov	QWORD PTR [rsp+8], rbx
	mov	QWORD PTR [rsp+16], rsi
	push	rdi
	sub	rsp, 48					; 00000030H
	mov	rsi, rdx
; Line 12
	lea	rdx, OFFSET FLAT:??_C@_0BA@OBHIFHCN@?$FLScript?5Info?$FN?$AN?6?$AA@
	mov	rdi, rcx
	call	QWORD PTR __imp_fprintf
; Line 13
	mov	r8, QWORD PTR [rsi+24]
	or	rbx, -1
	mov	rax, rbx
	npad	3
$LL10@assHeaderW:
	inc	rax
	cmp	BYTE PTR [r8+rax], 0
	jne	SHORT $LL10@assHeaderW
	test	rax, rax
	je	SHORT $LN5@assHeaderW
	lea	rdx, OFFSET FLAT:??_C@_06ENMHAAMA@?$DL?5?$CFs?$AN?6?$AA@
	mov	rcx, rdi
	call	QWORD PTR __imp_fprintf
$LN5@assHeaderW:
; Line 14
	mov	r8, QWORD PTR [rsi+32]
	mov	rax, rbx
$LL9@assHeaderW:
	inc	rax
	cmp	BYTE PTR [r8+rax], 0
	jne	SHORT $LL9@assHeaderW
	test	rax, rax
	je	SHORT $LN4@assHeaderW
	lea	rdx, OFFSET FLAT:??_C@_06ENMHAAMA@?$DL?5?$CFs?$AN?6?$AA@
	mov	rcx, rdi
	call	QWORD PTR __imp_fprintf
$LN4@assHeaderW:
; Line 15
	mov	r8, QWORD PTR [rsi+40]
	npad	7
$LL8@assHeaderW:
	inc	rbx
	cmp	BYTE PTR [r8+rbx], 0
	jne	SHORT $LL8@assHeaderW
	test	rbx, rbx
	je	SHORT $LN3@assHeaderW
	lea	rdx, OFFSET FLAT:??_C@_06ENMHAAMA@?$DL?5?$CFs?$AN?6?$AA@
	mov	rcx, rdi
	call	QWORD PTR __imp_fprintf
$LN3@assHeaderW:
; Line 16
	lea	r8, OFFSET FLAT:??_C@_0EB@OEBAMFAA@Title?3?5Default?5SSA?5V4?$CL?5?$CIASS?$CJ?$AN?6Sc@
	lea	rdx, OFFSET FLAT:??_C@_02DKCKIIND@?$CFs?$AA@
	mov	rcx, rdi
	call	QWORD PTR __imp_fprintf
; Line 17
	mov	r8d, DWORD PTR [rsi+48]
	test	r8d, r8d
	je	SHORT $LN2@assHeaderW
; Line 18
	lea	rdx, OFFSET FLAT:??_C@_0P@HGAHEGPB@PlayResX?3?5?$CFd?$AN?6?$AA@
	mov	rcx, rdi
	call	QWORD PTR __imp_fprintf
$LN2@assHeaderW:
; Line 19
	mov	r8d, DWORD PTR [rsi+52]
	test	r8d, r8d
	je	SHORT $LN1@assHeaderW
; Line 20
	lea	rdx, OFFSET FLAT:??_C@_0P@LKKNEGGP@PlayResY?3?5?$CFd?$AN?6?$AA@
	mov	rcx, rdi
	call	QWORD PTR __imp_fprintf
$LN1@assHeaderW:
; Line 21
	lea	r8, OFFSET FLAT:??_C@_0BBM@INGDKPDI@ScaledBorderAndShadow?3?5yes?$AN?6?$AN?6?$FLV@
	lea	rdx, OFFSET FLAT:??_C@_02DKCKIIND@?$CFs?$AA@
	mov	rcx, rdi
	call	QWORD PTR __imp_fprintf
; Line 22
	mov	rax, QWORD PTR [rsi+72]
	mov	r9, QWORD PTR [rsi+56]
	mov	QWORD PTR [rsp+40], rax
	mov	eax, DWORD PTR [rsi+64]
	lea	r8, OFFSET FLAT:??_C@_07MCAEODGB@Default?$AA@
	lea	rdx, OFFSET FLAT:??_C@_0BF@ENHKEJOA@Style?3?5?$CFs?0?$CFs?0?$CFd?0?$CFs?$AN?6?$AA@
	mov	rcx, rdi
	mov	DWORD PTR [rsp+32], eax
	call	QWORD PTR __imp_fprintf
; Line 23
	mov	rax, QWORD PTR [rsi+96]
	mov	r9, QWORD PTR [rsi+80]
	mov	QWORD PTR [rsp+40], rax
	mov	eax, DWORD PTR [rsi+88]
	lea	r8, OFFSET FLAT:??_C@_03ELMLMPLG@Box?$AA@
	lea	rdx, OFFSET FLAT:??_C@_0BF@ENHKEJOA@Style?3?5?$CFs?0?$CFs?0?$CFd?0?$CFs?$AN?6?$AA@
	mov	rcx, rdi
	mov	DWORD PTR [rsp+32], eax
	call	QWORD PTR __imp_fprintf
; Line 24
	mov	rax, QWORD PTR [rsi+120]
	mov	r9, QWORD PTR [rsi+104]
	mov	QWORD PTR [rsp+40], rax
	mov	eax, DWORD PTR [rsi+112]
	lea	r8, OFFSET FLAT:??_C@_04NIIDALEH@Rubi?$AA@
	lea	rdx, OFFSET FLAT:??_C@_0BJ@DNHOCHEC@Style?3?5?$CFs?0?$CFs?0?$CFd?0?$CFs?$AN?6?1?1?$AN?6?$AA@
	mov	rcx, rdi
	mov	DWORD PTR [rsp+32], eax
	call	QWORD PTR __imp_fprintf
; Line 25
	lea	r8, OFFSET FLAT:??_C@_0FO@BJNIFNID@?$AN?6?$FLEvents?$FN?$AN?6Format?3?5Layer?0?5Start@
	lea	rdx, OFFSET FLAT:??_C@_02DKCKIIND@?$CFs?$AA@
	mov	rcx, rdi
; Line 28
	mov	rbx, QWORD PTR [rsp+64]
	mov	rsi, QWORD PTR [rsp+72]
	add	rsp, 48					; 00000030H
	pop	rdi
; Line 25
	rex_jmp	QWORD PTR __imp_fprintf
?assHeaderWrite@@YAXPEAU_iobuf@@PEAUass_setting_t@@@Z ENDP ; assHeaderWrite
_TEXT	ENDS
END
