; Listing generated by Microsoft (R) Optimizing Compiler Version 17.00.50727.1 

include listing.inc

INCLUDELIB OLDNAMES

PUBLIC	??_C@_07DCLBNMLN@generic?$AA@			; `string'
PUBLIC	??_C@_0O@BFJCFAAK@unknown?5error?$AA@		; `string'
PUBLIC	??_C@_08LLGCOLLL@iostream?$AA@			; `string'
PUBLIC	??_C@_0BG@PADBLCHM@iostream?5stream?5error?$AA@	; `string'
PUBLIC	??_C@_06FHFOAHML@system?$AA@			; `string'
PUBLIC	??_C@_11LOCGONAA@?$AA?$AA@			; `string'
PUBLIC	??_C@_15MJDFFMKN@?$AAw?$AAb?$AA?$AA@		; `string'
PUBLIC	??_C@_1DE@OELKDLBD@?$AAO?$AAp?$AAe?$AAn?$AA?5?$AA?$CF?$AAs?$AA?5?$AAF?$AAi?$AAl?$AAe?$AA?3?$AA?5?$AA?$CF?$AAs?$AA?5?$AAf?$AAa?$AAi?$AAl?$AAe?$AAd?$AA?$AN?$AA?6?$AA?$AA@ ; `string'
PUBLIC	??_C@_1FG@HBDOCCID@?$AAF?$AAa?$AAi?$AAl?$AAe?$AAd?$AA?5?$AAt?$AAo?$AA?5?$AAa?$AAl?$AAl?$AAo?$AAc?$AAa?$AAt?$AAe?$AA?5?$AAt?$AAh?$AAe?$AA?5?$AAp?$AAa?$AAr?$AAa?$AAm?$AAt?$AAe?$AAr?$AA?5@ ; `string'
PUBLIC	??_C@_1FK@CMFIACLH@?$AAF?$AAa?$AAi?$AAl?$AAe?$AAd?$AA?5?$AAt?$AAo?$AA?5?$AAa?$AAl?$AAl?$AAo?$AAc?$AAa?$AAt?$AAe?$AA?5?$AAt?$AAh?$AAe?$AA?5?$AAb?$AAu?$AAf?$AAf?$AAe?$AAr?$AAs?$AA?5?$AAf@ ; `string'
PUBLIC	??_C@_1FG@LKGNIJDO@?$AAF?$AAa?$AAi?$AAl?$AAe?$AAd?$AA?5?$AAt?$AAo?$AA?5?$AAa?$AAl?$AAl?$AAo?$AAc?$AAa?$AAt?$AAe?$AA?5?$AAt?$AAh?$AAe?$AA?5?$AAc?$AAa?$AAp?$AAt?$AAi?$AAo?$AAn?$AA?5?$AAh@ ; `string'
PUBLIC	??_C@_1GI@PJGBGHDO@?$AAF?$AAa?$AAi?$AAl?$AAe?$AAd?$AA?5?$AAt?$AAo?$AA?5?$AAa?$AAl?$AAl?$AAo?$AAc?$AAa?$AAt?$AAe?$AA?5?$AAt?$AAh?$AAe?$AA?5?$AAb?$AAu?$AAf?$AAf?$AAe?$AAr?$AAs?$AA?5?$AAf@ ; `string'
PUBLIC	??_C@_1BK@ODNLEGBB@?$AA_?$AAC?$AAa?$AAp?$AAt?$AAi?$AAo?$AAn?$AA?4?$AAl?$AAo?$AAg?$AA?$AA@ ; `string'
PUBLIC	??_C@_19KFJMHENC@?$AA?4?$AAa?$AAs?$AAs?$AA?$AA@	; `string'
PUBLIC	??_C@_19MNIJKJJI@?$AA?4?$AAs?$AAr?$AAt?$AA?$AA@	; `string'
PUBLIC	??_C@_17LLLMIFAB@?$AAL?$AAo?$AAg?$AA?$AA@	; `string'
PUBLIC	??_C@_1O@DHOCLHPM@?$AAT?$AAa?$AAr?$AAg?$AAe?$AAt?$AA?$AA@ ; `string'
PUBLIC	??_C@_0GP@CIHGFHDJ@Dialogue?3?50?0?$CF01d?3?$CF02d?3?$CF02d?4?$CF02d?0@ ; `string'
PUBLIC	??_C@_02PCIJFNDE@?$AN?6?$AA@			; `string'
PUBLIC	??_C@_0IC@DPDCFKOD@Dialogue?3?50?0?$CF01d?3?$CF02d?3?$CF02d?4?$CF02d?0@ ; `string'
PUBLIC	??_C@_0EM@GPENGKLJ@Dialogue?3?50?0?$CF01d?3?$CF02d?3?$CF02d?4?$CF02d?0@ ; `string'
PUBLIC	??_C@_0EP@COLJFOLH@Dialogue?3?50?0?$CF01d?3?$CF02d?3?$CF02d?4?$CF02d?0@ ; `string'
PUBLIC	??_C@_0M@BGINJPIJ@?2pos?$CI?$CFd?0?$CFd?$CJ?$AA@ ; `string'
PUBLIC	??_C@_09CIHCCNFD@?2c?$CGH?$CF06x?$CG?$AA@	; `string'
PUBLIC	??_C@_03MLAHDNPA@?2u1?$AA@			; `string'
PUBLIC	??_C@_03NCGOIIAF@?2b1?$AA@			; `string'
PUBLIC	??_C@_03NODLGHOE@?2i1?$AA@			; `string'
PUBLIC	??_C@_01CELHOKLL@?$HN?$AA@			; `string'
PUBLIC	??_C@_02LOCJDLC@?2N?$AA@			; `string'
PUBLIC	??_C@_01OHGJGJJP@?$FL?$AA@			; `string'
PUBLIC	??_C@_01HCONENDN@?$HL?$AA@			; `string'
PUBLIC	??_C@_04KHMIFACO@?2u?$CFd?$AA@			; `string'
PUBLIC	??_C@_04GKAGDPAI@?2b?$CFd?$AA@			; `string'
PUBLIC	??_C@_04LNAHLIAJ@?2i?$CFd?$AA@			; `string'
PUBLIC	??_C@_01LBDDMOBJ@?$FN?$AA@			; `string'
PUBLIC	??_C@_0EO@MKIEJOMJ@Dialogue?3?50?0?$CF01d?3?$CF02d?3?$CF02d?4?$CF02d?0@ ; `string'
PUBLIC	??_C@_0DC@PLNIHMHC@?$CFd?$AN?6?$CF02d?3?$CF02d?3?$CF02d?0?$CF03d?5?9?9?$DO?5?$CF02d@ ; `string'
PUBLIC	??_C@_03GCIFIMCI@?$DMi?$DO?$AA@			; `string'
PUBLIC	??_C@_03GONAGDMJ@?$DMb?$DO?$AA@			; `string'
PUBLIC	??_C@_03HHLJNGDM@?$DMu?$DO?$AA@			; `string'
PUBLIC	??_C@_0BN@PJJHDIPA@?$DMfont?5color?$DN?$CC?$CD?$CF02x?$CF02x?$CF02x?$CC?$DO?$AA@ ; `string'
PUBLIC	??_C@_04KDJOAJNP@?$DM?1i?$DO?$AA@		; `string'
PUBLIC	??_C@_04KPMLOGDO@?$DM?1b?$DO?$AA@		; `string'
PUBLIC	??_C@_04LGKCFDML@?$DM?1u?$DO?$AA@		; `string'
PUBLIC	??_C@_07HNEBHIML@?$DM?1font?$DO?$AA@		; `string'
PUBLIC	??_C@_17JPBIBAFH@?$AA?4?$AAt?$AAs?$AA?$AA@	; `string'
PUBLIC	??_C@_13NOLLCAOD@?$AA?$AA?$AA?$AA@		; `string'
PUBLIC	??_C@_1CE@LGANKNKO@?$AA?$CF?$AAd?$AA?5?$AAC?$AAa?$AAp?$AAt?$AAi?$AAo?$AAn?$AA?5?$AAs?$AAk?$AAi?$AAp?$AA?$AN?$AA?6?$AA?$AA@ ; `string'
PUBLIC	??_C@_1CG@MBAOJKEB@?$AAS?$AAW?$AAF?$AAM?$AAo?$AAd?$AAe?$AA?5?$AA?5?$AA?5?$AA?5?$AA?3?$AA?5?$AA?$CF?$AA4?$AAd?$AA?$AN?$AA?6?$AA?$AA@ ; `string'
PUBLIC	??_C@_1CO@NJNKBHG@?$AAC?$AAl?$AAi?$AAe?$AAn?$AAt?$AA?5?$AAX?$AA?3?$AAY?$AA?5?$AA?3?$AA?5?$AA?$CF?$AA4?$AAd?$AA?7?$AA?$CF?$AA4?$AAd?$AA?$AN?$AA?6?$AA?$AA@ ; `string'
PUBLIC	??_C@_1CO@EMPGKLHK@?$AAC?$AAl?$AAi?$AAe?$AAn?$AAt?$AA?5?$AAW?$AA?3?$AAH?$AA?5?$AA?3?$AA?5?$AA?$CF?$AA4?$AAd?$AA?7?$AA?$CF?$AA4?$AAd?$AA?$AN?$AA?6?$AA?$AA@ ; `string'
PUBLIC	??_C@_1CO@IGOJOHOB@?$AAP?$AAo?$AAs?$AA?5?$AA?5?$AA?5?$AA?5?$AAX?$AA?3?$AAY?$AA?5?$AA?3?$AA?5?$AA?$CF?$AA4?$AAd?$AA?7?$AA?$CF?$AA4?$AAd?$AA?$AN?$AA?6?$AA?$AA@ ; `string'
PUBLIC	??_C@_1CC@PKCJANFB@?$AAU?$AAn?$AAd?$AAe?$AAr?$AAL?$AAi?$AAn?$AAe?$AA?5?$AA?3?$AA?5?$AAo?$AAn?$AA?$AN?$AA?6?$AA?$AA@ ; `string'
PUBLIC	??_C@_1BI@GNICFIOF@?$AAB?$AAo?$AAl?$AAd?$AA?5?$AA?3?$AA?5?$AAo?$AAn?$AA?$AN?$AA?6?$AA?$AA@ ; `string'
PUBLIC	??_C@_1BM@LBILINME@?$AAI?$AAt?$AAa?$AAl?$AAi?$AAc?$AA?5?$AA?3?$AA?5?$AAo?$AAn?$AA?$AN?$AA?6?$AA?$AA@ ; `string'
PUBLIC	??_C@_1BG@NCFPFLED@?$AAH?$AAL?$AAC?$AA?5?$AA?3?$AA?5?$AAo?$AAn?$AA?$AN?$AA?6?$AA?$AA@ ; `string'
PUBLIC	??_C@_1CA@GHHLGCDL@?$AAC?$AAo?$AAl?$AAo?$AAr?$AA?5?$AA?3?$AA?5?$AA?$CF?$AA?$CD?$AA?4?$AAX?$AA?5?$AA?5?$AA?5?$AA?$AA@ ; `string'
PUBLIC	??_C@_1FM@IBBPPJMK@?$AAC?$AAh?$AAa?$AAr?$AA?5?$AAM?$AA?0?$AAW?$AA?0?$AAH?$AA?0?$AAH?$AAI?$AA?0?$AAV?$AAI?$AA?5?$AA?3?$AA?5?$AA?$CF?$AA4?$AAd?$AA?0?$AA?5?$AA?$CF?$AA4?$AAd?$AA?0?$AA?5?$AA?$CF?$AA4?$AAd@ ; `string'
PUBLIC	??_C@_19EEPNDKNE@?$AA?$CF?$AAs?$AA?$AN?$AA?6?$AA?$AA@ ; `string'
PUBLIC	??_C@_1JE@FOGKDBBA@?$AAP?$AAr?$AAo?$AAg?$AAr?$AAa?$AAm?$AAe?$AA?5?$AAh?$AAa?$AAs?$AA?5?$AAd?$AAe?$AAt?$AAe?$AAc?$AAe?$AAd?$AA?5?$AA?$CF?$AAd?$AAw?$AA?5?$AAp?$AAa?$AAc?$AAk?$AAe?$AAt?$AAs@ ; `string'
PUBLIC	??_C@_1DA@DGCLJLO@?$AAP?$AAr?$AAo?$AAc?$AAe?$AAs?$AAs?$AA?5?$AA?5?$AA?$CF?$AAd?$AAw?$AA?5?$AAp?$AAa?$AAc?$AAk?$AAe?$AAt?$AAs?$AA?4?$AA?$AN?$AA?6?$AA?$AA@ ; `string'
PUBLIC	??_C@_1CG@HCFOLIID@?$AAI?$AAn?$AAv?$AAa?$AAl?$AAi?$AAd?$AA?5?$AAT?$AAS?$AA?5?$AAF?$AAi?$AAl?$AAe?$AA?4?$AA?$AN?$AA?6?$AA?$AA@ ; `string'
PUBLIC	??_C@_1EO@GFIANDIB@?$AAP?$AAM?$AAT?$AA?0?$AA?5?$AAP?$AAC?$AAR?$AA?0?$AA?5?$AAC?$AAa?$AAp?$AAt?$AAi?$AAo?$AAn?$AA?5?$AA?3?$AA?5?$AA?$CF?$AA0?$AA4?$AAx?$AA?0?$AA?5?$AA?$CF?$AA0?$AA4?$AAx?$AA?0?$AA?5@ ; `string'
PUBLIC	??_C@_1IG@GILMADAC@?$AAP?$AAC?$AAR?$AA?0?$AA?5?$AAs?$AAt?$AAa?$AAr?$AAt?$AAP?$AAC?$AAR?$AA?0?$AA?5?$AAl?$AAa?$AAs?$AAt?$AAP?$AAC?$AAR?$AA?0?$AA?5?$AAb?$AAa?$AAs?$AAe?$AAP?$AAC?$AAR?$AA?5@ ; `string'
PUBLIC	??_C@_1EM@LDFNLMCJ@?$AA?$DN?$AA?$DN?$AA?$DN?$AA?$DN?$AA?$DN?$AA?$DN?$AA?5?$AAP?$AAC?$AAR?$AA?5?$AAl?$AAe?$AAs?$AAs?$AA?5?$AAt?$AAh?$AAa?$AAn?$AA?5?$AAl?$AAa?$AAs?$AAt?$AAP?$AAC?$AAR?$AA?5?$AA?$DN?$AA?$DN?$AA?$DN@ ; `string'
PUBLIC	??_C@_1IK@BBCHPNMC@?$AAP?$AAT?$AAS?$AA?0?$AA?5?$AAl?$AAa?$AAs?$AAt?$AAP?$AAT?$AAS?$AA?0?$AA?5?$AAb?$AAa?$AAs?$AAe?$AAP?$AAT?$AAS?$AA?0?$AA?5?$AAs?$AAt?$AAa?$AAr?$AAt?$AAP?$AAC?$AAR?$AA?5@ ; `string'
PUBLIC	??_C@_1CG@PBDALLBL@?$AAS?$AAk?$AAi?$AAp?$AA?5?$AA1?$AAs?$AAt?$AA?5?$AAc?$AAa?$AAp?$AAt?$AAi?$AAo?$AAn?$AA?$AN?$AA?6?$AA?$AA@ ; `string'
PUBLIC	??_C@_1CG@LOHHIFIM@?$AAS?$AAk?$AAi?$AAp?$AA?5?$AA2?$AAn?$AAd?$AA?5?$AAc?$AAa?$AAp?$AAt?$AAi?$AAo?$AAn?$AA?$AN?$AA?6?$AA?$AA@ ; `string'
PUBLIC	??_C@_1EI@DEPLCDJG@?$AAC?$AAa?$AAp?$AAt?$AAi?$AAo?$AAn?$AA?5?$AAT?$AAi?$AAm?$AAe?$AA?3?$AA?5?$AA?$CF?$AA0?$AA1?$AAd?$AA?3?$AA?$CF?$AA0?$AA2?$AAd?$AA?3?$AA?$CF?$AA0?$AA2?$AAd?$AA?4?$AA?$CF?$AA0?$AA3@ ; `string'
PUBLIC	??_C@_03ILMINFNM@1st?$AA@			; `string'
PUBLIC	??_C@_03MHEBFIEA@2nd?$AA@			; `string'
PUBLIC	??_C@_1EO@GNDFAJJN@?$AA?$CF?$AAs?$AA?5?$AAC?$AAa?$AAp?$AAt?$AAi?$AAo?$AAn?$AA?5?$AAT?$AAi?$AAm?$AAe?$AA?3?$AA?5?$AA?$CF?$AA0?$AA1?$AAd?$AA?3?$AA?$CF?$AA0?$AA2?$AAd?$AA?3?$AA?$CF?$AA0?$AA2?$AAd?$AA?4@ ; `string'
PUBLIC	??_C@_1DE@MLGACPPL@?$AAL?$AAo?$AAa?$AAd?$AA?5?$AAC?$AAa?$AAp?$AAt?$AAi?$AAo?$AAn?$AA?4?$AAd?$AAl?$AAl?$AA?5?$AAf?$AAa?$AAi?$AAl?$AAe?$AAd?$AA?$AN?$AA?6?$AA?$AA@ ; `string'
PUBLIC	??_C@_17BKLFCNOE@?$AAs?$AAr?$AAt?$AA?$AA@	; `string'
PUBLIC	??_C@_17HCKAPAKO@?$AAa?$AAs?$AAs?$AA?$AA@	; `string'
PUBLIC	??_C@_1BI@MOFJANHI@?$AAs?$AAr?$AAt?$AA?5?$AAf?$AAo?$AAr?$AA?5?$AAT?$AAA?$AAW?$AA?$AA@ ; `string'
PUBLIC	??_C@_1BE@JKFEOJIK@?$AAa?$AAs?$AAs?$AA?5?$AA?$CG?$AA?5?$AAs?$AAr?$AAt?$AA?$AA@ ; `string'
PUBLIC	??_C@_1BM@JKKAIGBN@?$AA?$FL?$AAS?$AAo?$AAu?$AAr?$AAc?$AAe?$AA?$FN?$AA?5?$AA?$CF?$AAs?$AA?$AN?$AA?6?$AA?$AA@ ; `string'
PUBLIC	??_C@_1BM@MIPFMFCF@?$AA?$FL?$AAT?$AAa?$AAr?$AAg?$AAe?$AAt?$AA?$FN?$AA?5?$AA?$CF?$AAs?$AA?$AN?$AA?6?$AA?$AA@ ; `string'
PUBLIC	??_C@_1BM@EJGAMMOE@?$AA?$FL?$AAF?$AAo?$AAr?$AAm?$AAa?$AAt?$AA?$FN?$AA?5?$AA?$CF?$AAs?$AA?$AN?$AA?6?$AA?$AA@ ; `string'
PUBLIC	??_C@_15JJPIMNBO@?$AAr?$AAb?$AA?$AA@		; `string'
PUBLIC	??_C@_1DE@OLPKAEK@?$AAO?$AAp?$AAe?$AAn?$AA?5?$AAT?$AAS?$AA?5?$AAF?$AAi?$AAl?$AAe?$AA?3?$AA?5?$AA?$CF?$AAs?$AA?5?$AAf?$AAa?$AAi?$AAl?$AAe?$AAd?$AA?$AN?$AA?6?$AA?$AA@ ; `string'
PUBLIC	??_C@_0BI@CFPLBAOH@invalid?5string?5position?$AA@ ; `string'
PUBLIC	??_C@_0BD@OLBABOEK@vector?$DMT?$DO?5too?5long?$AA@ ; `string'
PUBLIC	??_C@_0BA@JFNIOLAK@string?5too?5long?$AA@	; `string'
PUBLIC	??_R1A@?0A@EA@IAppHandler@@8			; IAppHandler::`RTTI Base Class Descriptor at (0,-1,0,64)'
PUBLIC	??_7CAppHandler@@6B@				; CAppHandler::`vftable'
PUBLIC	??_R2CSrtHandler@@8				; CSrtHandler::`RTTI Base Class Array'
PUBLIC	??_R1A@?0A@EA@ICaptionHandler@@8		; ICaptionHandler::`RTTI Base Class Descriptor at (0,-1,0,64)'
PUBLIC	??_R3error_category@std@@8			; std::error_category::`RTTI Class Hierarchy Descriptor'
PUBLIC	??_R2ILogHandler@@8				; ILogHandler::`RTTI Base Class Array'
PUBLIC	??_R2ICaptionHandler@@8				; ICaptionHandler::`RTTI Base Class Array'
PUBLIC	??_R0?AVCSrtHandler@@@8				; CSrtHandler `RTTI Type Descriptor'
PUBLIC	??_7IAppHandler@@6B@				; IAppHandler::`vftable'
PUBLIC	??_R1A@?0A@EA@error_category@std@@8		; std::error_category::`RTTI Base Class Descriptor at (0,-1,0,64)'
PUBLIC	??_7ITimestampHandler@@6B@			; ITimestampHandler::`vftable'
PUBLIC	??_R3_System_error_category@std@@8		; std::_System_error_category::`RTTI Class Hierarchy Descriptor'
PUBLIC	??_R2_System_error_category@std@@8		; std::_System_error_category::`RTTI Base Class Array'
PUBLIC	??_7_Generic_error_category@std@@6B@		; std::_Generic_error_category::`vftable'
PUBLIC	??_R1A@?0A@EA@ITimestampHandler@@8		; ITimestampHandler::`RTTI Base Class Descriptor at (0,-1,0,64)'
PUBLIC	??_R3ICaptionHandler@@8				; ICaptionHandler::`RTTI Class Hierarchy Descriptor'
PUBLIC	??_R4CLogHandler@@6B@				; CLogHandler::`RTTI Complete Object Locator'
PUBLIC	??_R4_Generic_error_category@std@@6B@		; std::_Generic_error_category::`RTTI Complete Object Locator'
PUBLIC	??_R3ITimestampHandler@@8			; ITimestampHandler::`RTTI Class Hierarchy Descriptor'
PUBLIC	??_R4CAppHandler@@6B@				; CAppHandler::`RTTI Complete Object Locator'
PUBLIC	??_R0?AV_Iostream_error_category@std@@@8	; std::_Iostream_error_category `RTTI Type Descriptor'
PUBLIC	??_R4IAppHandler@@6B@				; IAppHandler::`RTTI Complete Object Locator'
PUBLIC	??_R0?AVITimestampHandler@@@8			; ITimestampHandler `RTTI Type Descriptor'
PUBLIC	??_R1A@?0A@EA@_Generic_error_category@std@@8	; std::_Generic_error_category::`RTTI Base Class Descriptor at (0,-1,0,64)'
PUBLIC	??_R1A@?0A@EA@CLogHandler@@8			; CLogHandler::`RTTI Base Class Descriptor at (0,-1,0,64)'
PUBLIC	??_R1A@?0A@EA@_Iostream_error_category@std@@8	; std::_Iostream_error_category::`RTTI Base Class Descriptor at (0,-1,0,64)'
PUBLIC	??_R4error_category@std@@6B@			; std::error_category::`RTTI Complete Object Locator'
PUBLIC	??_R4_Iostream_error_category@std@@6B@		; std::_Iostream_error_category::`RTTI Complete Object Locator'
PUBLIC	??_R2CAppHandler@@8				; CAppHandler::`RTTI Base Class Array'
PUBLIC	??_7CAssHandler@@6B@				; CAssHandler::`vftable'
PUBLIC	??_R3CLogHandler@@8				; CLogHandler::`RTTI Class Hierarchy Descriptor'
PUBLIC	??_R0?AVCLogHandler@@@8				; CLogHandler `RTTI Type Descriptor'
PUBLIC	??_R4IOutputHandler@@6B@			; IOutputHandler::`RTTI Complete Object Locator'
PUBLIC	??_R4ILogHandler@@6B@				; ILogHandler::`RTTI Complete Object Locator'
PUBLIC	??_7ICaptionHandler@@6B@			; ICaptionHandler::`vftable'
PUBLIC	??_R4ITimestampHandler@@6B@			; ITimestampHandler::`RTTI Complete Object Locator'
PUBLIC	??_R0?AV_System_error_category@std@@@8		; std::_System_error_category `RTTI Type Descriptor'
PUBLIC	??_R2IOutputHandler@@8				; IOutputHandler::`RTTI Base Class Array'
PUBLIC	??_R2error_category@std@@8			; std::error_category::`RTTI Base Class Array'
PUBLIC	??_R2ITimestampHandler@@8			; ITimestampHandler::`RTTI Base Class Array'
PUBLIC	??_R0?AVCAppHandler@@@8				; CAppHandler `RTTI Type Descriptor'
PUBLIC	??_R1A@?0A@EA@_System_error_category@std@@8	; std::_System_error_category::`RTTI Base Class Descriptor at (0,-1,0,64)'
PUBLIC	??_R3_Iostream_error_category@std@@8		; std::_Iostream_error_category::`RTTI Class Hierarchy Descriptor'
PUBLIC	??_7CSrtHandler@@6B@				; CSrtHandler::`vftable'
PUBLIC	??_R1A@?0A@EA@CSrtHandler@@8			; CSrtHandler::`RTTI Base Class Descriptor at (0,-1,0,64)'
PUBLIC	??_7IOutputHandler@@6B@				; IOutputHandler::`vftable'
PUBLIC	??_R0?AVILogHandler@@@8				; ILogHandler `RTTI Type Descriptor'
PUBLIC	??_7ILogHandler@@6B@				; ILogHandler::`vftable'
PUBLIC	??_R0?AVIAppHandler@@@8				; IAppHandler `RTTI Type Descriptor'
PUBLIC	??_R3ILogHandler@@8				; ILogHandler::`RTTI Class Hierarchy Descriptor'
PUBLIC	??_R0?AVICaptionHandler@@@8			; ICaptionHandler `RTTI Type Descriptor'
PUBLIC	??_R3CSrtHandler@@8				; CSrtHandler::`RTTI Class Hierarchy Descriptor'
PUBLIC	??_7_System_error_category@std@@6B@		; std::_System_error_category::`vftable'
PUBLIC	??_R0?AVerror_category@std@@@8			; std::error_category `RTTI Type Descriptor'
PUBLIC	??_7_Iostream_error_category@std@@6B@		; std::_Iostream_error_category::`vftable'
PUBLIC	??_R0?AVIOutputHandler@@@8			; IOutputHandler `RTTI Type Descriptor'
PUBLIC	??_R4CAssHandler@@6B@				; CAssHandler::`RTTI Complete Object Locator'
PUBLIC	??_R2CLogHandler@@8				; CLogHandler::`RTTI Base Class Array'
PUBLIC	??_7error_category@std@@6B@			; std::error_category::`vftable'
PUBLIC	??_R4_System_error_category@std@@6B@		; std::_System_error_category::`RTTI Complete Object Locator'
PUBLIC	??_R2IAppHandler@@8				; IAppHandler::`RTTI Base Class Array'
PUBLIC	??_R0?AV_Generic_error_category@std@@@8		; std::_Generic_error_category `RTTI Type Descriptor'
PUBLIC	??_R1A@?0A@EA@ILogHandler@@8			; ILogHandler::`RTTI Base Class Descriptor at (0,-1,0,64)'
PUBLIC	??_R1A@?0A@EA@CAppHandler@@8			; CAppHandler::`RTTI Base Class Descriptor at (0,-1,0,64)'
PUBLIC	??_7CLogHandler@@6B@				; CLogHandler::`vftable'
PUBLIC	??_R1A@?0A@EA@IOutputHandler@@8			; IOutputHandler::`RTTI Base Class Descriptor at (0,-1,0,64)'
PUBLIC	??_R2CAssHandler@@8				; CAssHandler::`RTTI Base Class Array'
PUBLIC	??_R3IAppHandler@@8				; IAppHandler::`RTTI Class Hierarchy Descriptor'
PUBLIC	??_R4ICaptionHandler@@6B@			; ICaptionHandler::`RTTI Complete Object Locator'
PUBLIC	??_R3CAppHandler@@8				; CAppHandler::`RTTI Class Hierarchy Descriptor'
PUBLIC	??_R2_Generic_error_category@std@@8		; std::_Generic_error_category::`RTTI Base Class Array'
PUBLIC	??_R1A@?0A@EA@CAssHandler@@8			; CAssHandler::`RTTI Base Class Descriptor at (0,-1,0,64)'
PUBLIC	??_R3CAssHandler@@8				; CAssHandler::`RTTI Class Hierarchy Descriptor'
PUBLIC	??_R0?AVCAssHandler@@@8				; CAssHandler `RTTI Type Descriptor'
PUBLIC	??_R3_Generic_error_category@std@@8		; std::_Generic_error_category::`RTTI Class Hierarchy Descriptor'
PUBLIC	?npos@?$basic_string@DU?$char_traits@D@std@@V?$allocator@D@2@@std@@2_KB ; std::basic_string<char,std::char_traits<char>,std::allocator<char> >::npos
PUBLIC	?value@?$_Sizeof@U_Nil@std@@U12@U12@U12@U12@U12@U12@U12@@std@@2_KB ; std::_Sizeof<std::_Nil,std::_Nil,std::_Nil,std::_Nil,std::_Nil,std::_Nil,std::_Nil,std::_Nil>::value
PUBLIC	?value@?$integral_constant@_N$00@std@@2_NB	; std::integral_constant<bool,1>::value
PUBLIC	?value@?$integral_constant@_N$0A@@std@@2_NB	; std::integral_constant<bool,0>::value
PUBLIC	??_R3IOutputHandler@@8				; IOutputHandler::`RTTI Class Hierarchy Descriptor'
PUBLIC	??_R4CSrtHandler@@6B@				; CSrtHandler::`RTTI Complete Object Locator'
PUBLIC	??_R2_Iostream_error_category@std@@8		; std::_Iostream_error_category::`RTTI Base Class Array'
EXTRN	__imp_?_Orphan_all@_Container_base0@std@@QEAAXXZ:PROC
EXTRN	_purecall:PROC
EXTRN	__imp_??0id@locale@std@@QEAA@_K@Z:PROC
EXTRN	__imp_??2@YAPEAX_K@Z:PROC
EXTRN	__imp_fclose:PROC
EXTRN	__imp_wcscpy_s:PROC
EXTRN	??_7type_info@@6B@:BYTE				; type_info::`vftable'
EXTRN	__imp_wcscat_s:PROC
EXTRN	__imp_fwrite:PROC
EXTRN	__imp_memcpy_s:PROC
EXTRN	__imp_??3@YAXPEAX@Z:PROC
EXTRN	__imp__purecall:PROC
EXTRN	__imp_strcpy_s:PROC
EXTRN	__imp_MultiByteToWideChar:PROC
EXTRN	__imp_fread:PROC
EXTRN	__imp_??_V@YAXPEAX@Z:PROC
EXTRN	atexit:PROC
EXTRN	__imp_Sleep:PROC
EXTRN	__imp_WideCharToMultiByte:PROC
EXTRN	__imp__wremove:PROC
EXTRN	__imp_PathFindExtensionW:PROC
EXTRN	__imp_??_U@YAPEAX_K@Z:PROC
EXTRN	__imp_memmove:PROC
EXTRN	__imp_?_Xlength_error@std@@YAXPEBD@Z:PROC
EXTRN	__imp_?_Xout_of_range@std@@YAXPEBD@Z:PROC
EXTRN	__imp_?_Xbad_alloc@std@@YAXXZ:PROC
EXTRN	__imp_?_Syserror_map@std@@YAPEBDH@Z:PROC
EXTRN	__imp_?_Winerror_map@std@@YAPEBDH@Z:PROC
EXTRN	__imp_vfwprintf:PROC
EXTRN	__imp__wcsicmp:PROC
EXTRN	__imp__wfopen_s:PROC
;	COMDAT ??_R2_Iostream_error_category@std@@8
rdata$r	SEGMENT
??_R2_Iostream_error_category@std@@8 DD imagerel ??_R1A@?0A@EA@_Iostream_error_category@std@@8 ; std::_Iostream_error_category::`RTTI Base Class Array'
	DD	imagerel ??_R1A@?0A@EA@_Generic_error_category@std@@8
	DD	imagerel ??_R1A@?0A@EA@error_category@std@@8
	ORG $+3
rdata$r	ENDS
;	COMDAT ?format_name@?L@??wmain@@9@4PAPEB_WA
_DATA	SEGMENT
?format_name@?L@??wmain@@9@4PAPEB_WA DQ FLAT:??_C@_11LOCGONAA@?$AA?$AA@ ; `wmain'::`11'::format_name
	DQ	FLAT:??_C@_17BKLFCNOE@?$AAs?$AAr?$AAt?$AA?$AA@
	DQ	FLAT:??_C@_17HCKAPAKO@?$AAa?$AAs?$AAs?$AA?$AA@
	DQ	FLAT:??_C@_1BI@MOFJANHI@?$AAs?$AAr?$AAt?$AA?5?$AAf?$AAo?$AAr?$AA?5?$AAT?$AAA?$AAW?$AA?$AA@
	DQ	FLAT:??_C@_1BE@JKFEOJIK@?$AAa?$AAs?$AAs?$AA?5?$AA?$CG?$AA?5?$AAs?$AAr?$AAt?$AA?$AA@
_DATA	ENDS
;	COMDAT ??_R4CSrtHandler@@6B@
rdata$r	SEGMENT
??_R4CSrtHandler@@6B@ DD 01H				; CSrtHandler::`RTTI Complete Object Locator'
	DD	00H
	DD	00H
	DD	imagerel ??_R0?AVCSrtHandler@@@8
	DD	imagerel ??_R3CSrtHandler@@8
	DD	imagerel ??_R4CSrtHandler@@6B@
rdata$r	ENDS
;	COMDAT ??_R3IOutputHandler@@8
rdata$r	SEGMENT
??_R3IOutputHandler@@8 DD 00H				; IOutputHandler::`RTTI Class Hierarchy Descriptor'
	DD	00H
	DD	01H
	DD	imagerel ??_R2IOutputHandler@@8
rdata$r	ENDS
;	COMDAT ?value@?$integral_constant@_N$0A@@std@@2_NB
CONST	SEGMENT
?value@?$integral_constant@_N$0A@@std@@2_NB DB 00H	; std::integral_constant<bool,0>::value
CONST	ENDS
;	COMDAT ?value@?$integral_constant@_N$00@std@@2_NB
CONST	SEGMENT
?value@?$integral_constant@_N$00@std@@2_NB DB 01H	; std::integral_constant<bool,1>::value
CONST	ENDS
;	COMDAT ?value@?$_Sizeof@U_Nil@std@@U12@U12@U12@U12@U12@U12@U12@@std@@2_KB
CONST	SEGMENT
?value@?$_Sizeof@U_Nil@std@@U12@U12@U12@U12@U12@U12@U12@@std@@2_KB DQ 0000000000000000H ; std::_Sizeof<std::_Nil,std::_Nil,std::_Nil,std::_Nil,std::_Nil,std::_Nil,std::_Nil,std::_Nil>::value
CONST	ENDS
;	COMDAT ?npos@?$basic_string@DU?$char_traits@D@std@@V?$allocator@D@2@@std@@2_KB
CONST	SEGMENT
?npos@?$basic_string@DU?$char_traits@D@std@@V?$allocator@D@2@@std@@2_KB DQ ffffffffffffffffH ; std::basic_string<char,std::char_traits<char>,std::allocator<char> >::npos
CONST	ENDS
;	COMDAT ??_R3_Generic_error_category@std@@8
rdata$r	SEGMENT
??_R3_Generic_error_category@std@@8 DD 00H		; std::_Generic_error_category::`RTTI Class Hierarchy Descriptor'
	DD	00H
	DD	02H
	DD	imagerel ??_R2_Generic_error_category@std@@8
rdata$r	ENDS
;	COMDAT ??_R0?AVCAssHandler@@@8
_DATA	SEGMENT
??_R0?AVCAssHandler@@@8 DQ FLAT:??_7type_info@@6B@	; CAssHandler `RTTI Type Descriptor'
	DQ	0000000000000000H
	DB	'.?AVCAssHandler@@', 00H
_DATA	ENDS
;	COMDAT ??_R3CAssHandler@@8
rdata$r	SEGMENT
??_R3CAssHandler@@8 DD 00H				; CAssHandler::`RTTI Class Hierarchy Descriptor'
	DD	00H
	DD	03H
	DD	imagerel ??_R2CAssHandler@@8
rdata$r	ENDS
;	COMDAT ??_R1A@?0A@EA@CAssHandler@@8
rdata$r	SEGMENT
??_R1A@?0A@EA@CAssHandler@@8 DD imagerel ??_R0?AVCAssHandler@@@8 ; CAssHandler::`RTTI Base Class Descriptor at (0,-1,0,64)'
	DD	02H
	DD	00H
	DD	0ffffffffH
	DD	00H
	DD	040H
	DD	imagerel ??_R3CAssHandler@@8
rdata$r	ENDS
;	COMDAT ??_R2_Generic_error_category@std@@8
rdata$r	SEGMENT
??_R2_Generic_error_category@std@@8 DD imagerel ??_R1A@?0A@EA@_Generic_error_category@std@@8 ; std::_Generic_error_category::`RTTI Base Class Array'
	DD	imagerel ??_R1A@?0A@EA@error_category@std@@8
	ORG $+3
rdata$r	ENDS
;	COMDAT ??_R3CAppHandler@@8
rdata$r	SEGMENT
??_R3CAppHandler@@8 DD 00H				; CAppHandler::`RTTI Class Hierarchy Descriptor'
	DD	00H
	DD	03H
	DD	imagerel ??_R2CAppHandler@@8
rdata$r	ENDS
;	COMDAT ??_R4ICaptionHandler@@6B@
rdata$r	SEGMENT
??_R4ICaptionHandler@@6B@ DD 01H			; ICaptionHandler::`RTTI Complete Object Locator'
	DD	00H
	DD	00H
	DD	imagerel ??_R0?AVICaptionHandler@@@8
	DD	imagerel ??_R3ICaptionHandler@@8
	DD	imagerel ??_R4ICaptionHandler@@6B@
rdata$r	ENDS
;	COMDAT ??_R3IAppHandler@@8
rdata$r	SEGMENT
??_R3IAppHandler@@8 DD 00H				; IAppHandler::`RTTI Class Hierarchy Descriptor'
	DD	00H
	DD	02H
	DD	imagerel ??_R2IAppHandler@@8
rdata$r	ENDS
;	COMDAT ??_R2CAssHandler@@8
rdata$r	SEGMENT
??_R2CAssHandler@@8 DD imagerel ??_R1A@?0A@EA@CAssHandler@@8 ; CAssHandler::`RTTI Base Class Array'
	DD	imagerel ??_R1A@?0A@EA@ICaptionHandler@@8
	DD	imagerel ??_R1A@?0A@EA@IOutputHandler@@8
	ORG $+3
utf8_bom DB	0efH
	DB	0bbH
	DB	0bfH
CONST	ENDS
;	COMDAT ??_R1A@?0A@EA@IOutputHandler@@8
rdata$r	SEGMENT
??_R1A@?0A@EA@IOutputHandler@@8 DD imagerel ??_R0?AVIOutputHandler@@@8 ; IOutputHandler::`RTTI Base Class Descriptor at (0,-1,0,64)'
	DD	00H
	DD	00H
	DD	0ffffffffH
	DD	00H
	DD	040H
	DD	imagerel ??_R3IOutputHandler@@8
rdata$r	ENDS
;	COMDAT ??_7CLogHandler@@6B@
CONST	SEGMENT
??_7CLogHandler@@6B@ DQ FLAT:??_R4CLogHandler@@6B@	; CLogHandler::`vftable'
	DQ	FLAT:?SetName@CLogHandler@@UEAAXXZ
	DQ	FLAT:?Open@CLogHandler@@UEAAHXZ
	DQ	FLAT:?WriteHeader@CLogHandler@@UEAAXXZ
	DQ	FLAT:?Close@CLogHandler@@UEAAXXZ
CONST	ENDS
;	COMDAT ??_R1A@?0A@EA@CAppHandler@@8
rdata$r	SEGMENT
??_R1A@?0A@EA@CAppHandler@@8 DD imagerel ??_R0?AVCAppHandler@@@8 ; CAppHandler::`RTTI Base Class Descriptor at (0,-1,0,64)'
	DD	02H
	DD	00H
	DD	0ffffffffH
	DD	00H
	DD	040H
	DD	imagerel ??_R3CAppHandler@@8
rdata$r	ENDS
;	COMDAT ??_R1A@?0A@EA@ILogHandler@@8
rdata$r	SEGMENT
??_R1A@?0A@EA@ILogHandler@@8 DD imagerel ??_R0?AVILogHandler@@@8 ; ILogHandler::`RTTI Base Class Descriptor at (0,-1,0,64)'
	DD	01H
	DD	00H
	DD	0ffffffffH
	DD	00H
	DD	040H
	DD	imagerel ??_R3ILogHandler@@8
rdata$r	ENDS
;	COMDAT ??_R0?AV_Generic_error_category@std@@@8
_DATA	SEGMENT
??_R0?AV_Generic_error_category@std@@@8 DQ FLAT:??_7type_info@@6B@ ; std::_Generic_error_category `RTTI Type Descriptor'
	DQ	0000000000000000H
	DB	'.?AV_Generic_error_category@std@@', 00H
_DATA	ENDS
;	COMDAT ??_R2IAppHandler@@8
rdata$r	SEGMENT
??_R2IAppHandler@@8 DD imagerel ??_R1A@?0A@EA@IAppHandler@@8 ; IAppHandler::`RTTI Base Class Array'
	DD	imagerel ??_R1A@?0A@EA@ITimestampHandler@@8
	ORG $+3
rdata$r	ENDS
;	COMDAT ??_R4_System_error_category@std@@6B@
rdata$r	SEGMENT
??_R4_System_error_category@std@@6B@ DD 01H		; std::_System_error_category::`RTTI Complete Object Locator'
	DD	00H
	DD	00H
	DD	imagerel ??_R0?AV_System_error_category@std@@@8
	DD	imagerel ??_R3_System_error_category@std@@8
	DD	imagerel ??_R4_System_error_category@std@@6B@
rdata$r	ENDS
;	COMDAT ??_7error_category@std@@6B@
CONST	SEGMENT
??_7error_category@std@@6B@ DQ FLAT:??_R4error_category@std@@6B@ ; std::error_category::`vftable'
	DQ	FLAT:??_Eerror_category@std@@UEAAPEAXI@Z
	DQ	FLAT:_purecall
	DQ	FLAT:_purecall
	DQ	FLAT:?default_error_condition@error_category@std@@UEBA?AVerror_condition@2@H@Z
	DQ	FLAT:?equivalent@error_category@std@@UEBA_NAEBVerror_code@2@H@Z
	DQ	FLAT:?equivalent@error_category@std@@UEBA_NHAEBVerror_condition@2@@Z
CONST	ENDS
;	COMDAT ??_R2CLogHandler@@8
rdata$r	SEGMENT
??_R2CLogHandler@@8 DD imagerel ??_R1A@?0A@EA@CLogHandler@@8 ; CLogHandler::`RTTI Base Class Array'
	DD	imagerel ??_R1A@?0A@EA@ILogHandler@@8
	DD	imagerel ??_R1A@?0A@EA@IOutputHandler@@8
	ORG $+3
rdata$r	ENDS
;	COMDAT ??_R4CAssHandler@@6B@
rdata$r	SEGMENT
??_R4CAssHandler@@6B@ DD 01H				; CAssHandler::`RTTI Complete Object Locator'
	DD	00H
	DD	00H
	DD	imagerel ??_R0?AVCAssHandler@@@8
	DD	imagerel ??_R3CAssHandler@@8
	DD	imagerel ??_R4CAssHandler@@6B@
rdata$r	ENDS
;	COMDAT ??_R0?AVIOutputHandler@@@8
_DATA	SEGMENT
??_R0?AVIOutputHandler@@@8 DQ FLAT:??_7type_info@@6B@	; IOutputHandler `RTTI Type Descriptor'
	DQ	0000000000000000H
	DB	'.?AVIOutputHandler@@', 00H
_DATA	ENDS
;	COMDAT ??_7_Iostream_error_category@std@@6B@
CONST	SEGMENT
??_7_Iostream_error_category@std@@6B@ DQ FLAT:??_R4_Iostream_error_category@std@@6B@ ; std::_Iostream_error_category::`vftable'
	DQ	FLAT:??_E_Iostream_error_category@std@@UEAAPEAXI@Z
	DQ	FLAT:?name@_Iostream_error_category@std@@UEBAPEBDXZ
	DQ	FLAT:?message@_Iostream_error_category@std@@UEBA?AV?$basic_string@DU?$char_traits@D@std@@V?$allocator@D@2@@2@H@Z
	DQ	FLAT:?default_error_condition@error_category@std@@UEBA?AVerror_condition@2@H@Z
	DQ	FLAT:?equivalent@error_category@std@@UEBA_NAEBVerror_code@2@H@Z
	DQ	FLAT:?equivalent@error_category@std@@UEBA_NHAEBVerror_condition@2@@Z
CONST	ENDS
;	COMDAT ??_R0?AVerror_category@std@@@8
_DATA	SEGMENT
??_R0?AVerror_category@std@@@8 DQ FLAT:??_7type_info@@6B@ ; std::error_category `RTTI Type Descriptor'
	DQ	0000000000000000H
	DB	'.?AVerror_category@std@@', 00H
_DATA	ENDS
;	COMDAT ??_7_System_error_category@std@@6B@
CONST	SEGMENT
??_7_System_error_category@std@@6B@ DQ FLAT:??_R4_System_error_category@std@@6B@ ; std::_System_error_category::`vftable'
	DQ	FLAT:??_E_System_error_category@std@@UEAAPEAXI@Z
	DQ	FLAT:?name@_System_error_category@std@@UEBAPEBDXZ
	DQ	FLAT:?message@_System_error_category@std@@UEBA?AV?$basic_string@DU?$char_traits@D@std@@V?$allocator@D@2@@2@H@Z
	DQ	FLAT:?default_error_condition@_System_error_category@std@@UEBA?AVerror_condition@2@H@Z
	DQ	FLAT:?equivalent@error_category@std@@UEBA_NAEBVerror_code@2@H@Z
	DQ	FLAT:?equivalent@error_category@std@@UEBA_NHAEBVerror_condition@2@@Z
CONST	ENDS
;	COMDAT ??_R3CSrtHandler@@8
rdata$r	SEGMENT
??_R3CSrtHandler@@8 DD 00H				; CSrtHandler::`RTTI Class Hierarchy Descriptor'
	DD	00H
	DD	03H
	DD	imagerel ??_R2CSrtHandler@@8
rdata$r	ENDS
;	COMDAT ??_R0?AVICaptionHandler@@@8
_DATA	SEGMENT
??_R0?AVICaptionHandler@@@8 DQ FLAT:??_7type_info@@6B@	; ICaptionHandler `RTTI Type Descriptor'
	DQ	0000000000000000H
	DB	'.?AVICaptionHandler@@', 00H
_DATA	ENDS
;	COMDAT ??_R3ILogHandler@@8
rdata$r	SEGMENT
??_R3ILogHandler@@8 DD 00H				; ILogHandler::`RTTI Class Hierarchy Descriptor'
	DD	00H
	DD	02H
	DD	imagerel ??_R2ILogHandler@@8
rdata$r	ENDS
;	COMDAT ??_R0?AVIAppHandler@@@8
_DATA	SEGMENT
??_R0?AVIAppHandler@@@8 DQ FLAT:??_7type_info@@6B@	; IAppHandler `RTTI Type Descriptor'
	DQ	0000000000000000H
	DB	'.?AVIAppHandler@@', 00H
_DATA	ENDS
;	COMDAT ??_7ILogHandler@@6B@
CONST	SEGMENT
??_7ILogHandler@@6B@ DQ FLAT:??_R4ILogHandler@@6B@	; ILogHandler::`vftable'
	DQ	FLAT:_purecall
	DQ	FLAT:_purecall
	DQ	FLAT:_purecall
	DQ	FLAT:_purecall
CONST	ENDS
;	COMDAT ??_R0?AVILogHandler@@@8
_DATA	SEGMENT
??_R0?AVILogHandler@@@8 DQ FLAT:??_7type_info@@6B@	; ILogHandler `RTTI Type Descriptor'
	DQ	0000000000000000H
	DB	'.?AVILogHandler@@', 00H
_DATA	ENDS
;	COMDAT ??_7IOutputHandler@@6B@
CONST	SEGMENT
??_7IOutputHandler@@6B@ DQ FLAT:??_R4IOutputHandler@@6B@ ; IOutputHandler::`vftable'
	DQ	FLAT:_purecall
	DQ	FLAT:_purecall
	DQ	FLAT:_purecall
	DQ	FLAT:_purecall
CONST	ENDS
;	COMDAT ??_R1A@?0A@EA@CSrtHandler@@8
rdata$r	SEGMENT
??_R1A@?0A@EA@CSrtHandler@@8 DD imagerel ??_R0?AVCSrtHandler@@@8 ; CSrtHandler::`RTTI Base Class Descriptor at (0,-1,0,64)'
	DD	02H
	DD	00H
	DD	0ffffffffH
	DD	00H
	DD	040H
	DD	imagerel ??_R3CSrtHandler@@8
rdata$r	ENDS
;	COMDAT ??_7CSrtHandler@@6B@
CONST	SEGMENT
??_7CSrtHandler@@6B@ DQ FLAT:??_R4CSrtHandler@@6B@	; CSrtHandler::`vftable'
	DQ	FLAT:?SetName@CSrtHandler@@UEAAXXZ
	DQ	FLAT:?Open@CSrtHandler@@UEAAHXZ
	DQ	FLAT:?WriteHeader@CSrtHandler@@UEAAXXZ
	DQ	FLAT:?Close@CSrtHandler@@UEAAXXZ
	DQ	FLAT:?Setup@CSrtHandler@@UEAAHXZ
	DQ	FLAT:?Dump@CSrtHandler@@UEAAXAEAV?$vector@PEAU_CAPTION_LINE@@V?$allocator@PEAU_CAPTION_LINE@@@std@@@std@@K@Z
CONST	ENDS
;	COMDAT ??_R3_Iostream_error_category@std@@8
rdata$r	SEGMENT
??_R3_Iostream_error_category@std@@8 DD 00H		; std::_Iostream_error_category::`RTTI Class Hierarchy Descriptor'
	DD	00H
	DD	03H
	DD	imagerel ??_R2_Iostream_error_category@std@@8
rdata$r	ENDS
;	COMDAT ??_R1A@?0A@EA@_System_error_category@std@@8
rdata$r	SEGMENT
??_R1A@?0A@EA@_System_error_category@std@@8 DD imagerel ??_R0?AV_System_error_category@std@@@8 ; std::_System_error_category::`RTTI Base Class Descriptor at (0,-1,0,64)'
	DD	02H
	DD	00H
	DD	0ffffffffH
	DD	00H
	DD	040H
	DD	imagerel ??_R3_System_error_category@std@@8
rdata$r	ENDS
;	COMDAT ??_R0?AVCAppHandler@@@8
_DATA	SEGMENT
??_R0?AVCAppHandler@@@8 DQ FLAT:??_7type_info@@6B@	; CAppHandler `RTTI Type Descriptor'
	DQ	0000000000000000H
	DB	'.?AVCAppHandler@@', 00H
_DATA	ENDS
;	COMDAT ??_R2ITimestampHandler@@8
rdata$r	SEGMENT
??_R2ITimestampHandler@@8 DD imagerel ??_R1A@?0A@EA@ITimestampHandler@@8 ; ITimestampHandler::`RTTI Base Class Array'
	ORG $+3
rdata$r	ENDS
;	COMDAT ??_R2error_category@std@@8
rdata$r	SEGMENT
??_R2error_category@std@@8 DD imagerel ??_R1A@?0A@EA@error_category@std@@8 ; std::error_category::`RTTI Base Class Array'
	ORG $+3
rdata$r	ENDS
;	COMDAT ??_R2IOutputHandler@@8
rdata$r	SEGMENT
??_R2IOutputHandler@@8 DD imagerel ??_R1A@?0A@EA@IOutputHandler@@8 ; IOutputHandler::`RTTI Base Class Array'
	ORG $+3
rdata$r	ENDS
;	COMDAT ??_R0?AV_System_error_category@std@@@8
_DATA	SEGMENT
??_R0?AV_System_error_category@std@@@8 DQ FLAT:??_7type_info@@6B@ ; std::_System_error_category `RTTI Type Descriptor'
	DQ	0000000000000000H
	DB	'.?AV_System_error_category@std@@', 00H
_DATA	ENDS
;	COMDAT ??_R4ITimestampHandler@@6B@
rdata$r	SEGMENT
??_R4ITimestampHandler@@6B@ DD 01H			; ITimestampHandler::`RTTI Complete Object Locator'
	DD	00H
	DD	00H
	DD	imagerel ??_R0?AVITimestampHandler@@@8
	DD	imagerel ??_R3ITimestampHandler@@8
	DD	imagerel ??_R4ITimestampHandler@@6B@
rdata$r	ENDS
;	COMDAT ??_7ICaptionHandler@@6B@
CONST	SEGMENT
??_7ICaptionHandler@@6B@ DQ FLAT:??_R4ICaptionHandler@@6B@ ; ICaptionHandler::`vftable'
	DQ	FLAT:_purecall
	DQ	FLAT:_purecall
	DQ	FLAT:_purecall
	DQ	FLAT:_purecall
	DQ	FLAT:_purecall
	DQ	FLAT:_purecall
CONST	ENDS
;	COMDAT ??_R4ILogHandler@@6B@
rdata$r	SEGMENT
??_R4ILogHandler@@6B@ DD 01H				; ILogHandler::`RTTI Complete Object Locator'
	DD	00H
	DD	00H
	DD	imagerel ??_R0?AVILogHandler@@@8
	DD	imagerel ??_R3ILogHandler@@8
	DD	imagerel ??_R4ILogHandler@@6B@
rdata$r	ENDS
;	COMDAT ??_R4IOutputHandler@@6B@
rdata$r	SEGMENT
??_R4IOutputHandler@@6B@ DD 01H				; IOutputHandler::`RTTI Complete Object Locator'
	DD	00H
	DD	00H
	DD	imagerel ??_R0?AVIOutputHandler@@@8
	DD	imagerel ??_R3IOutputHandler@@8
	DD	imagerel ??_R4IOutputHandler@@6B@
rdata$r	ENDS
;	COMDAT ??_R0?AVCLogHandler@@@8
_DATA	SEGMENT
??_R0?AVCLogHandler@@@8 DQ FLAT:??_7type_info@@6B@	; CLogHandler `RTTI Type Descriptor'
	DQ	0000000000000000H
	DB	'.?AVCLogHandler@@', 00H
_DATA	ENDS
;	COMDAT ??_R3CLogHandler@@8
rdata$r	SEGMENT
??_R3CLogHandler@@8 DD 00H				; CLogHandler::`RTTI Class Hierarchy Descriptor'
	DD	00H
	DD	03H
	DD	imagerel ??_R2CLogHandler@@8
rdata$r	ENDS
;	COMDAT ??_7CAssHandler@@6B@
CONST	SEGMENT
??_7CAssHandler@@6B@ DQ FLAT:??_R4CAssHandler@@6B@	; CAssHandler::`vftable'
	DQ	FLAT:?SetName@CAssHandler@@UEAAXXZ
	DQ	FLAT:?Open@CAssHandler@@UEAAHXZ
	DQ	FLAT:?WriteHeader@CAssHandler@@UEAAXXZ
	DQ	FLAT:?Close@CAssHandler@@UEAAXXZ
	DQ	FLAT:?Setup@CAssHandler@@UEAAHXZ
	DQ	FLAT:?Dump@CAssHandler@@UEAAXAEAV?$vector@PEAU_CAPTION_LINE@@V?$allocator@PEAU_CAPTION_LINE@@@std@@@std@@K@Z
CONST	ENDS
;	COMDAT ??_R2CAppHandler@@8
rdata$r	SEGMENT
??_R2CAppHandler@@8 DD imagerel ??_R1A@?0A@EA@CAppHandler@@8 ; CAppHandler::`RTTI Base Class Array'
	DD	imagerel ??_R1A@?0A@EA@IAppHandler@@8
	DD	imagerel ??_R1A@?0A@EA@ITimestampHandler@@8
	ORG $+3
rdata$r	ENDS
;	COMDAT ??_R4_Iostream_error_category@std@@6B@
rdata$r	SEGMENT
??_R4_Iostream_error_category@std@@6B@ DD 01H		; std::_Iostream_error_category::`RTTI Complete Object Locator'
	DD	00H
	DD	00H
	DD	imagerel ??_R0?AV_Iostream_error_category@std@@@8
	DD	imagerel ??_R3_Iostream_error_category@std@@8
	DD	imagerel ??_R4_Iostream_error_category@std@@6B@
rdata$r	ENDS
;	COMDAT ??_R4error_category@std@@6B@
rdata$r	SEGMENT
??_R4error_category@std@@6B@ DD 01H			; std::error_category::`RTTI Complete Object Locator'
	DD	00H
	DD	00H
	DD	imagerel ??_R0?AVerror_category@std@@@8
	DD	imagerel ??_R3error_category@std@@8
	DD	imagerel ??_R4error_category@std@@6B@
rdata$r	ENDS
;	COMDAT ??_R1A@?0A@EA@_Iostream_error_category@std@@8
rdata$r	SEGMENT
??_R1A@?0A@EA@_Iostream_error_category@std@@8 DD imagerel ??_R0?AV_Iostream_error_category@std@@@8 ; std::_Iostream_error_category::`RTTI Base Class Descriptor at (0,-1,0,64)'
	DD	02H
	DD	00H
	DD	0ffffffffH
	DD	00H
	DD	040H
	DD	imagerel ??_R3_Iostream_error_category@std@@8
rdata$r	ENDS
;	COMDAT ??_R1A@?0A@EA@CLogHandler@@8
rdata$r	SEGMENT
??_R1A@?0A@EA@CLogHandler@@8 DD imagerel ??_R0?AVCLogHandler@@@8 ; CLogHandler::`RTTI Base Class Descriptor at (0,-1,0,64)'
	DD	02H
	DD	00H
	DD	0ffffffffH
	DD	00H
	DD	040H
	DD	imagerel ??_R3CLogHandler@@8
rdata$r	ENDS
;	COMDAT ??_R1A@?0A@EA@_Generic_error_category@std@@8
rdata$r	SEGMENT
??_R1A@?0A@EA@_Generic_error_category@std@@8 DD imagerel ??_R0?AV_Generic_error_category@std@@@8 ; std::_Generic_error_category::`RTTI Base Class Descriptor at (0,-1,0,64)'
	DD	01H
	DD	00H
	DD	0ffffffffH
	DD	00H
	DD	040H
	DD	imagerel ??_R3_Generic_error_category@std@@8
rdata$r	ENDS
;	COMDAT ??_R0?AVITimestampHandler@@@8
_DATA	SEGMENT
??_R0?AVITimestampHandler@@@8 DQ FLAT:??_7type_info@@6B@ ; ITimestampHandler `RTTI Type Descriptor'
	DQ	0000000000000000H
	DB	'.?AVITimestampHandler@@', 00H
_DATA	ENDS
;	COMDAT ??_R4IAppHandler@@6B@
rdata$r	SEGMENT
??_R4IAppHandler@@6B@ DD 01H				; IAppHandler::`RTTI Complete Object Locator'
	DD	00H
	DD	00H
	DD	imagerel ??_R0?AVIAppHandler@@@8
	DD	imagerel ??_R3IAppHandler@@8
	DD	imagerel ??_R4IAppHandler@@6B@
rdata$r	ENDS
;	COMDAT ??_R0?AV_Iostream_error_category@std@@@8
_DATA	SEGMENT
??_R0?AV_Iostream_error_category@std@@@8 DQ FLAT:??_7type_info@@6B@ ; std::_Iostream_error_category `RTTI Type Descriptor'
	DQ	0000000000000000H
	DB	'.?AV_Iostream_error_category@std@@', 00H
_DATA	ENDS
;	COMDAT ??_R4CAppHandler@@6B@
rdata$r	SEGMENT
??_R4CAppHandler@@6B@ DD 01H				; CAppHandler::`RTTI Complete Object Locator'
	DD	00H
	DD	00H
	DD	imagerel ??_R0?AVCAppHandler@@@8
	DD	imagerel ??_R3CAppHandler@@8
	DD	imagerel ??_R4CAppHandler@@6B@
rdata$r	ENDS
;	COMDAT ??_R3ITimestampHandler@@8
rdata$r	SEGMENT
??_R3ITimestampHandler@@8 DD 00H			; ITimestampHandler::`RTTI Class Hierarchy Descriptor'
	DD	00H
	DD	01H
	DD	imagerel ??_R2ITimestampHandler@@8
rdata$r	ENDS
;	COMDAT ??_R4_Generic_error_category@std@@6B@
rdata$r	SEGMENT
??_R4_Generic_error_category@std@@6B@ DD 01H		; std::_Generic_error_category::`RTTI Complete Object Locator'
	DD	00H
	DD	00H
	DD	imagerel ??_R0?AV_Generic_error_category@std@@@8
	DD	imagerel ??_R3_Generic_error_category@std@@8
	DD	imagerel ??_R4_Generic_error_category@std@@6B@
rdata$r	ENDS
;	COMDAT ??_R4CLogHandler@@6B@
rdata$r	SEGMENT
??_R4CLogHandler@@6B@ DD 01H				; CLogHandler::`RTTI Complete Object Locator'
	DD	00H
	DD	00H
	DD	imagerel ??_R0?AVCLogHandler@@@8
	DD	imagerel ??_R3CLogHandler@@8
	DD	imagerel ??_R4CLogHandler@@6B@
rdata$r	ENDS
;	COMDAT ??_R3ICaptionHandler@@8
rdata$r	SEGMENT
??_R3ICaptionHandler@@8 DD 00H				; ICaptionHandler::`RTTI Class Hierarchy Descriptor'
	DD	00H
	DD	02H
	DD	imagerel ??_R2ICaptionHandler@@8
rdata$r	ENDS
;	COMDAT ??_R1A@?0A@EA@ITimestampHandler@@8
rdata$r	SEGMENT
??_R1A@?0A@EA@ITimestampHandler@@8 DD imagerel ??_R0?AVITimestampHandler@@@8 ; ITimestampHandler::`RTTI Base Class Descriptor at (0,-1,0,64)'
	DD	00H
	DD	00H
	DD	0ffffffffH
	DD	00H
	DD	040H
	DD	imagerel ??_R3ITimestampHandler@@8
rdata$r	ENDS
;	COMDAT ??_7_Generic_error_category@std@@6B@
CONST	SEGMENT
??_7_Generic_error_category@std@@6B@ DQ FLAT:??_R4_Generic_error_category@std@@6B@ ; std::_Generic_error_category::`vftable'
	DQ	FLAT:??_E_Generic_error_category@std@@UEAAPEAXI@Z
	DQ	FLAT:?name@_Generic_error_category@std@@UEBAPEBDXZ
	DQ	FLAT:?message@_Generic_error_category@std@@UEBA?AV?$basic_string@DU?$char_traits@D@std@@V?$allocator@D@2@@2@H@Z
	DQ	FLAT:?default_error_condition@error_category@std@@UEBA?AVerror_condition@2@H@Z
	DQ	FLAT:?equivalent@error_category@std@@UEBA_NAEBVerror_code@2@H@Z
	DQ	FLAT:?equivalent@error_category@std@@UEBA_NHAEBVerror_condition@2@@Z
CONST	ENDS
;	COMDAT ??_R2_System_error_category@std@@8
rdata$r	SEGMENT
??_R2_System_error_category@std@@8 DD imagerel ??_R1A@?0A@EA@_System_error_category@std@@8 ; std::_System_error_category::`RTTI Base Class Array'
	DD	imagerel ??_R1A@?0A@EA@_Generic_error_category@std@@8
	DD	imagerel ??_R1A@?0A@EA@error_category@std@@8
	ORG $+3
rdata$r	ENDS
;	COMDAT ??_R3_System_error_category@std@@8
rdata$r	SEGMENT
??_R3_System_error_category@std@@8 DD 00H		; std::_System_error_category::`RTTI Class Hierarchy Descriptor'
	DD	00H
	DD	03H
	DD	imagerel ??_R2_System_error_category@std@@8
rdata$r	ENDS
;	COMDAT ??_7ITimestampHandler@@6B@
CONST	SEGMENT
??_7ITimestampHandler@@6B@ DQ FLAT:??_R4ITimestampHandler@@6B@ ; ITimestampHandler::`vftable'
	DQ	FLAT:?initialize@ITimestampHandler@@UEAAXXZ
CONST	ENDS
;	COMDAT ??_R1A@?0A@EA@error_category@std@@8
rdata$r	SEGMENT
??_R1A@?0A@EA@error_category@std@@8 DD imagerel ??_R0?AVerror_category@std@@@8 ; std::error_category::`RTTI Base Class Descriptor at (0,-1,0,64)'
	DD	00H
	DD	00H
	DD	0ffffffffH
	DD	00H
	DD	040H
	DD	imagerel ??_R3error_category@std@@8
rdata$r	ENDS
;	COMDAT ??_7IAppHandler@@6B@
CONST	SEGMENT
??_7IAppHandler@@6B@ DQ FLAT:??_R4IAppHandler@@6B@	; IAppHandler::`vftable'
	DQ	FLAT:?initialize@IAppHandler@@MEAAXXZ
CONST	ENDS
;	COMDAT ??_R0?AVCSrtHandler@@@8
_DATA	SEGMENT
??_R0?AVCSrtHandler@@@8 DQ FLAT:??_7type_info@@6B@	; CSrtHandler `RTTI Type Descriptor'
	DQ	0000000000000000H
	DB	'.?AVCSrtHandler@@', 00H
_DATA	ENDS
;	COMDAT ??_R2ICaptionHandler@@8
rdata$r	SEGMENT
??_R2ICaptionHandler@@8 DD imagerel ??_R1A@?0A@EA@ICaptionHandler@@8 ; ICaptionHandler::`RTTI Base Class Array'
	DD	imagerel ??_R1A@?0A@EA@IOutputHandler@@8
	ORG $+3
rdata$r	ENDS
;	COMDAT ??_R2ILogHandler@@8
rdata$r	SEGMENT
??_R2ILogHandler@@8 DD imagerel ??_R1A@?0A@EA@ILogHandler@@8 ; ILogHandler::`RTTI Base Class Array'
	DD	imagerel ??_R1A@?0A@EA@IOutputHandler@@8
	ORG $+3
rdata$r	ENDS
;	COMDAT ?resolution@?BH@??output_caption@@YAHAEAVCAppHandler@@AEAVCCaptionDllUtil@@AEAV?$vector@PEAU_CAPTION_LINE@@V?$allocator@PEAU_CAPTION_LINE@@@std@@@std@@_J@Z@4QBU<unnamed-type-resolution>@?BH@??1@YAH0123@Z@B
CONST	SEGMENT
?resolution@?BH@??output_caption@@YAHAEAVCAppHandler@@AEAVCCaptionDllUtil@@AEAV?$vector@PEAU_CAPTION_LINE@@V?$allocator@PEAU_CAPTION_LINE@@@std@@@std@@_J@Z@4QBU<unnamed-type-resolution>@?BH@??1@YAH0123@Z@B DD 0780H ; `output_caption'::`23'::resolution
	DD	0438H
	DD	02d0H
	DD	01e0H
	DD	0500H
	DD	02d0H
	DD	03c0H
	DD	021cH
CONST	ENDS
;	COMDAT ??_R3error_category@std@@8
rdata$r	SEGMENT
??_R3error_category@std@@8 DD 00H			; std::error_category::`RTTI Class Hierarchy Descriptor'
	DD	00H
	DD	01H
	DD	imagerel ??_R2error_category@std@@8
rdata$r	ENDS
;	COMDAT ??_R1A@?0A@EA@ICaptionHandler@@8
rdata$r	SEGMENT
??_R1A@?0A@EA@ICaptionHandler@@8 DD imagerel ??_R0?AVICaptionHandler@@@8 ; ICaptionHandler::`RTTI Base Class Descriptor at (0,-1,0,64)'
	DD	01H
	DD	00H
	DD	0ffffffffH
	DD	00H
	DD	040H
	DD	imagerel ??_R3ICaptionHandler@@8
rdata$r	ENDS
;	COMDAT ??_R2CSrtHandler@@8
rdata$r	SEGMENT
??_R2CSrtHandler@@8 DD imagerel ??_R1A@?0A@EA@CSrtHandler@@8 ; CSrtHandler::`RTTI Base Class Array'
	DD	imagerel ??_R1A@?0A@EA@ICaptionHandler@@8
	DD	imagerel ??_R1A@?0A@EA@IOutputHandler@@8
	ORG $+3
rdata$r	ENDS
;	COMDAT ??_7CAppHandler@@6B@
CONST	SEGMENT
??_7CAppHandler@@6B@ DQ FLAT:??_R4CAppHandler@@6B@	; CAppHandler::`vftable'
	DQ	FLAT:?initialize@IAppHandler@@MEAAXXZ
CONST	ENDS
;	COMDAT ?utf8box@?O@??Dump@CAssHandler@@UEAAXAEAV?$vector@PEAU_CAPTION_LINE@@V?$allocator@PEAU_CAPTION_LINE@@@std@@@std@@K@Z@4QBEB
CONST	SEGMENT
?utf8box@?O@??Dump@CAssHandler@@UEAAXAEAV?$vector@PEAU_CAPTION_LINE@@V?$allocator@PEAU_CAPTION_LINE@@@std@@@std@@K@Z@4QBEB DB 0e2H ; `CAssHandler::Dump'::`14'::utf8box
	DB	096H
	DB	0a0H
CONST	ENDS
;	COMDAT ??_R1A@?0A@EA@IAppHandler@@8
rdata$r	SEGMENT
??_R1A@?0A@EA@IAppHandler@@8 DD imagerel ??_R0?AVIAppHandler@@@8 ; IAppHandler::`RTTI Base Class Descriptor at (0,-1,0,64)'
	DD	01H
	DD	00H
	DD	0ffffffffH
	DD	00H
	DD	040H
	DD	imagerel ??_R3IAppHandler@@8
rdata$r	ENDS
;	COMDAT ??_C@_0BA@JFNIOLAK@string?5too?5long?$AA@
CONST	SEGMENT
??_C@_0BA@JFNIOLAK@string?5too?5long?$AA@ DB 'string too long', 00H ; `string'
CONST	ENDS
;	COMDAT ??_C@_0BD@OLBABOEK@vector?$DMT?$DO?5too?5long?$AA@
CONST	SEGMENT
??_C@_0BD@OLBABOEK@vector?$DMT?$DO?5too?5long?$AA@ DB 'vector<T> too long'
	DB	00H						; `string'
CONST	ENDS
;	COMDAT ??_C@_0BI@CFPLBAOH@invalid?5string?5position?$AA@
CONST	SEGMENT
??_C@_0BI@CFPLBAOH@invalid?5string?5position?$AA@ DB 'invalid string posi'
	DB	'tion', 00H					; `string'
CONST	ENDS
;	COMDAT ??_C@_1DE@OLPKAEK@?$AAO?$AAp?$AAe?$AAn?$AA?5?$AAT?$AAS?$AA?5?$AAF?$AAi?$AAl?$AAe?$AA?3?$AA?5?$AA?$CF?$AAs?$AA?5?$AAf?$AAa?$AAi?$AAl?$AAe?$AAd?$AA?$AN?$AA?6?$AA?$AA@
CONST	SEGMENT
??_C@_1DE@OLPKAEK@?$AAO?$AAp?$AAe?$AAn?$AA?5?$AAT?$AAS?$AA?5?$AAF?$AAi?$AAl?$AAe?$AA?3?$AA?5?$AA?$CF?$AAs?$AA?5?$AAf?$AAa?$AAi?$AAl?$AAe?$AAd?$AA?$AN?$AA?6?$AA?$AA@ DB 'O'
	DB	00H, 'p', 00H, 'e', 00H, 'n', 00H, ' ', 00H, 'T', 00H, 'S', 00H
	DB	' ', 00H, 'F', 00H, 'i', 00H, 'l', 00H, 'e', 00H, ':', 00H, ' '
	DB	00H, '%', 00H, 's', 00H, ' ', 00H, 'f', 00H, 'a', 00H, 'i', 00H
	DB	'l', 00H, 'e', 00H, 'd', 00H, 0dH, 00H, 0aH, 00H, 00H, 00H ; `string'
CONST	ENDS
;	COMDAT ??_C@_15JJPIMNBO@?$AAr?$AAb?$AA?$AA@
CONST	SEGMENT
??_C@_15JJPIMNBO@?$AAr?$AAb?$AA?$AA@ DB 'r', 00H, 'b', 00H, 00H, 00H ; `string'
CONST	ENDS
;	COMDAT ??_C@_1BM@EJGAMMOE@?$AA?$FL?$AAF?$AAo?$AAr?$AAm?$AAa?$AAt?$AA?$FN?$AA?5?$AA?$CF?$AAs?$AA?$AN?$AA?6?$AA?$AA@
CONST	SEGMENT
??_C@_1BM@EJGAMMOE@?$AA?$FL?$AAF?$AAo?$AAr?$AAm?$AAa?$AAt?$AA?$FN?$AA?5?$AA?$CF?$AAs?$AA?$AN?$AA?6?$AA?$AA@ DB '['
	DB	00H, 'F', 00H, 'o', 00H, 'r', 00H, 'm', 00H, 'a', 00H, 't', 00H
	DB	']', 00H, ' ', 00H, '%', 00H, 's', 00H, 0dH, 00H, 0aH, 00H, 00H
	DB	00H						; `string'
CONST	ENDS
;	COMDAT ??_C@_1BM@MIPFMFCF@?$AA?$FL?$AAT?$AAa?$AAr?$AAg?$AAe?$AAt?$AA?$FN?$AA?5?$AA?$CF?$AAs?$AA?$AN?$AA?6?$AA?$AA@
CONST	SEGMENT
??_C@_1BM@MIPFMFCF@?$AA?$FL?$AAT?$AAa?$AAr?$AAg?$AAe?$AAt?$AA?$FN?$AA?5?$AA?$CF?$AAs?$AA?$AN?$AA?6?$AA?$AA@ DB '['
	DB	00H, 'T', 00H, 'a', 00H, 'r', 00H, 'g', 00H, 'e', 00H, 't', 00H
	DB	']', 00H, ' ', 00H, '%', 00H, 's', 00H, 0dH, 00H, 0aH, 00H, 00H
	DB	00H						; `string'
CONST	ENDS
;	COMDAT ??_C@_1BM@JKKAIGBN@?$AA?$FL?$AAS?$AAo?$AAu?$AAr?$AAc?$AAe?$AA?$FN?$AA?5?$AA?$CF?$AAs?$AA?$AN?$AA?6?$AA?$AA@
CONST	SEGMENT
??_C@_1BM@JKKAIGBN@?$AA?$FL?$AAS?$AAo?$AAu?$AAr?$AAc?$AAe?$AA?$FN?$AA?5?$AA?$CF?$AAs?$AA?$AN?$AA?6?$AA?$AA@ DB '['
	DB	00H, 'S', 00H, 'o', 00H, 'u', 00H, 'r', 00H, 'c', 00H, 'e', 00H
	DB	']', 00H, ' ', 00H, '%', 00H, 's', 00H, 0dH, 00H, 0aH, 00H, 00H
	DB	00H						; `string'
CONST	ENDS
;	COMDAT ??_C@_1BE@JKFEOJIK@?$AAa?$AAs?$AAs?$AA?5?$AA?$CG?$AA?5?$AAs?$AAr?$AAt?$AA?$AA@
CONST	SEGMENT
??_C@_1BE@JKFEOJIK@?$AAa?$AAs?$AAs?$AA?5?$AA?$CG?$AA?5?$AAs?$AAr?$AAt?$AA?$AA@ DB 'a'
	DB	00H, 's', 00H, 's', 00H, ' ', 00H, '&', 00H, ' ', 00H, 's', 00H
	DB	'r', 00H, 't', 00H, 00H, 00H			; `string'
CONST	ENDS
;	COMDAT ??_C@_1BI@MOFJANHI@?$AAs?$AAr?$AAt?$AA?5?$AAf?$AAo?$AAr?$AA?5?$AAT?$AAA?$AAW?$AA?$AA@
CONST	SEGMENT
??_C@_1BI@MOFJANHI@?$AAs?$AAr?$AAt?$AA?5?$AAf?$AAo?$AAr?$AA?5?$AAT?$AAA?$AAW?$AA?$AA@ DB 's'
	DB	00H, 'r', 00H, 't', 00H, ' ', 00H, 'f', 00H, 'o', 00H, 'r', 00H
	DB	' ', 00H, 'T', 00H, 'A', 00H, 'W', 00H, 00H, 00H ; `string'
CONST	ENDS
;	COMDAT ??_C@_17HCKAPAKO@?$AAa?$AAs?$AAs?$AA?$AA@
CONST	SEGMENT
??_C@_17HCKAPAKO@?$AAa?$AAs?$AAs?$AA?$AA@ DB 'a', 00H, 's', 00H, 's', 00H
	DB	00H, 00H					; `string'
CONST	ENDS
;	COMDAT ??_C@_17BKLFCNOE@?$AAs?$AAr?$AAt?$AA?$AA@
CONST	SEGMENT
??_C@_17BKLFCNOE@?$AAs?$AAr?$AAt?$AA?$AA@ DB 's', 00H, 'r', 00H, 't', 00H
	DB	00H, 00H					; `string'
CONST	ENDS
;	COMDAT ??_C@_1DE@MLGACPPL@?$AAL?$AAo?$AAa?$AAd?$AA?5?$AAC?$AAa?$AAp?$AAt?$AAi?$AAo?$AAn?$AA?4?$AAd?$AAl?$AAl?$AA?5?$AAf?$AAa?$AAi?$AAl?$AAe?$AAd?$AA?$AN?$AA?6?$AA?$AA@
CONST	SEGMENT
??_C@_1DE@MLGACPPL@?$AAL?$AAo?$AAa?$AAd?$AA?5?$AAC?$AAa?$AAp?$AAt?$AAi?$AAo?$AAn?$AA?4?$AAd?$AAl?$AAl?$AA?5?$AAf?$AAa?$AAi?$AAl?$AAe?$AAd?$AA?$AN?$AA?6?$AA?$AA@ DB 'L'
	DB	00H, 'o', 00H, 'a', 00H, 'd', 00H, ' ', 00H, 'C', 00H, 'a', 00H
	DB	'p', 00H, 't', 00H, 'i', 00H, 'o', 00H, 'n', 00H, '.', 00H, 'd'
	DB	00H, 'l', 00H, 'l', 00H, ' ', 00H, 'f', 00H, 'a', 00H, 'i', 00H
	DB	'l', 00H, 'e', 00H, 'd', 00H, 0dH, 00H, 0aH, 00H, 00H, 00H ; `string'
CONST	ENDS
;	COMDAT ??_C@_1EO@GNDFAJJN@?$AA?$CF?$AAs?$AA?5?$AAC?$AAa?$AAp?$AAt?$AAi?$AAo?$AAn?$AA?5?$AAT?$AAi?$AAm?$AAe?$AA?3?$AA?5?$AA?$CF?$AA0?$AA1?$AAd?$AA?3?$AA?$CF?$AA0?$AA2?$AAd?$AA?3?$AA?$CF?$AA0?$AA2?$AAd?$AA?4@
CONST	SEGMENT
??_C@_1EO@GNDFAJJN@?$AA?$CF?$AAs?$AA?5?$AAC?$AAa?$AAp?$AAt?$AAi?$AAo?$AAn?$AA?5?$AAT?$AAi?$AAm?$AAe?$AA?3?$AA?5?$AA?$CF?$AA0?$AA1?$AAd?$AA?3?$AA?$CF?$AA0?$AA2?$AAd?$AA?3?$AA?$CF?$AA0?$AA2?$AAd?$AA?4@ DB '%'
	DB	00H, 's', 00H, ' ', 00H, 'C', 00H, 'a', 00H, 'p', 00H, 't', 00H
	DB	'i', 00H, 'o', 00H, 'n', 00H, ' ', 00H, 'T', 00H, 'i', 00H, 'm'
	DB	00H, 'e', 00H, ':', 00H, ' ', 00H, '%', 00H, '0', 00H, '1', 00H
	DB	'd', 00H, ':', 00H, '%', 00H, '0', 00H, '2', 00H, 'd', 00H, ':'
	DB	00H, '%', 00H, '0', 00H, '2', 00H, 'd', 00H, '.', 00H, '%', 00H
	DB	'0', 00H, '3', 00H, 'd', 00H, 0dH, 00H, 0aH, 00H, 00H, 00H ; `string'
CONST	ENDS
;	COMDAT ??_C@_03MHEBFIEA@2nd?$AA@
CONST	SEGMENT
??_C@_03MHEBFIEA@2nd?$AA@ DB '2nd', 00H			; `string'
CONST	ENDS
;	COMDAT ??_C@_03ILMINFNM@1st?$AA@
CONST	SEGMENT
??_C@_03ILMINFNM@1st?$AA@ DB '1st', 00H			; `string'
CONST	ENDS
;	COMDAT ??_C@_1EI@DEPLCDJG@?$AAC?$AAa?$AAp?$AAt?$AAi?$AAo?$AAn?$AA?5?$AAT?$AAi?$AAm?$AAe?$AA?3?$AA?5?$AA?$CF?$AA0?$AA1?$AAd?$AA?3?$AA?$CF?$AA0?$AA2?$AAd?$AA?3?$AA?$CF?$AA0?$AA2?$AAd?$AA?4?$AA?$CF?$AA0?$AA3@
CONST	SEGMENT
??_C@_1EI@DEPLCDJG@?$AAC?$AAa?$AAp?$AAt?$AAi?$AAo?$AAn?$AA?5?$AAT?$AAi?$AAm?$AAe?$AA?3?$AA?5?$AA?$CF?$AA0?$AA1?$AAd?$AA?3?$AA?$CF?$AA0?$AA2?$AAd?$AA?3?$AA?$CF?$AA0?$AA2?$AAd?$AA?4?$AA?$CF?$AA0?$AA3@ DB 'C'
	DB	00H, 'a', 00H, 'p', 00H, 't', 00H, 'i', 00H, 'o', 00H, 'n', 00H
	DB	' ', 00H, 'T', 00H, 'i', 00H, 'm', 00H, 'e', 00H, ':', 00H, ' '
	DB	00H, '%', 00H, '0', 00H, '1', 00H, 'd', 00H, ':', 00H, '%', 00H
	DB	'0', 00H, '2', 00H, 'd', 00H, ':', 00H, '%', 00H, '0', 00H, '2'
	DB	00H, 'd', 00H, '.', 00H, '%', 00H, '0', 00H, '3', 00H, 'd', 00H
	DB	0dH, 00H, 0aH, 00H, 00H, 00H			; `string'
CONST	ENDS
;	COMDAT ??_C@_1CG@LOHHIFIM@?$AAS?$AAk?$AAi?$AAp?$AA?5?$AA2?$AAn?$AAd?$AA?5?$AAc?$AAa?$AAp?$AAt?$AAi?$AAo?$AAn?$AA?$AN?$AA?6?$AA?$AA@
CONST	SEGMENT
??_C@_1CG@LOHHIFIM@?$AAS?$AAk?$AAi?$AAp?$AA?5?$AA2?$AAn?$AAd?$AA?5?$AAc?$AAa?$AAp?$AAt?$AAi?$AAo?$AAn?$AA?$AN?$AA?6?$AA?$AA@ DB 'S'
	DB	00H, 'k', 00H, 'i', 00H, 'p', 00H, ' ', 00H, '2', 00H, 'n', 00H
	DB	'd', 00H, ' ', 00H, 'c', 00H, 'a', 00H, 'p', 00H, 't', 00H, 'i'
	DB	00H, 'o', 00H, 'n', 00H, 0dH, 00H, 0aH, 00H, 00H, 00H ; `string'
CONST	ENDS
;	COMDAT ??_C@_1CG@PBDALLBL@?$AAS?$AAk?$AAi?$AAp?$AA?5?$AA1?$AAs?$AAt?$AA?5?$AAc?$AAa?$AAp?$AAt?$AAi?$AAo?$AAn?$AA?$AN?$AA?6?$AA?$AA@
CONST	SEGMENT
??_C@_1CG@PBDALLBL@?$AAS?$AAk?$AAi?$AAp?$AA?5?$AA1?$AAs?$AAt?$AA?5?$AAc?$AAa?$AAp?$AAt?$AAi?$AAo?$AAn?$AA?$AN?$AA?6?$AA?$AA@ DB 'S'
	DB	00H, 'k', 00H, 'i', 00H, 'p', 00H, ' ', 00H, '1', 00H, 's', 00H
	DB	't', 00H, ' ', 00H, 'c', 00H, 'a', 00H, 'p', 00H, 't', 00H, 'i'
	DB	00H, 'o', 00H, 'n', 00H, 0dH, 00H, 0aH, 00H, 00H, 00H ; `string'
CONST	ENDS
;	COMDAT ??_C@_1IK@BBCHPNMC@?$AAP?$AAT?$AAS?$AA?0?$AA?5?$AAl?$AAa?$AAs?$AAt?$AAP?$AAT?$AAS?$AA?0?$AA?5?$AAb?$AAa?$AAs?$AAe?$AAP?$AAT?$AAS?$AA?0?$AA?5?$AAs?$AAt?$AAa?$AAr?$AAt?$AAP?$AAC?$AAR?$AA?5@
CONST	SEGMENT
??_C@_1IK@BBCHPNMC@?$AAP?$AAT?$AAS?$AA?0?$AA?5?$AAl?$AAa?$AAs?$AAt?$AAP?$AAT?$AAS?$AA?0?$AA?5?$AAb?$AAa?$AAs?$AAe?$AAP?$AAT?$AAS?$AA?0?$AA?5?$AAs?$AAt?$AAa?$AAr?$AAt?$AAP?$AAC?$AAR?$AA?5@ DB 'P'
	DB	00H, 'T', 00H, 'S', 00H, ',', 00H, ' ', 00H, 'l', 00H, 'a', 00H
	DB	's', 00H, 't', 00H, 'P', 00H, 'T', 00H, 'S', 00H, ',', 00H, ' '
	DB	00H, 'b', 00H, 'a', 00H, 's', 00H, 'e', 00H, 'P', 00H, 'T', 00H
	DB	'S', 00H, ',', 00H, ' ', 00H, 's', 00H, 't', 00H, 'a', 00H, 'r'
	DB	00H, 't', 00H, 'P', 00H, 'C', 00H, 'R', 00H, ' ', 00H, ':', 00H
	DB	' ', 00H, '%', 00H, '1', 00H, '1', 00H, 'l', 00H, 'l', 00H, 'd'
	DB	00H, ',', 00H, ' ', 00H, '%', 00H, '1', 00H, '1', 00H, 'l', 00H
	DB	'l', 00H, 'd', 00H, ',', 00H, ' ', 00H, '%', 00H, '1', 00H, '1'
	DB	00H, 'l', 00H, 'l', 00H, 'd', 00H, ',', 00H, ' ', 00H, '%', 00H
	DB	'1', 00H, '1', 00H, 'l', 00H, 'l', 00H, 'd', 00H, ' ', 00H, ' '
	DB	00H, ' ', 00H, ' ', 00H, 00H, 00H		; `string'
CONST	ENDS
;	COMDAT ??_C@_1EM@LDFNLMCJ@?$AA?$DN?$AA?$DN?$AA?$DN?$AA?$DN?$AA?$DN?$AA?$DN?$AA?5?$AAP?$AAC?$AAR?$AA?5?$AAl?$AAe?$AAs?$AAs?$AA?5?$AAt?$AAh?$AAa?$AAn?$AA?5?$AAl?$AAa?$AAs?$AAt?$AAP?$AAC?$AAR?$AA?5?$AA?$DN?$AA?$DN?$AA?$DN@
CONST	SEGMENT
??_C@_1EM@LDFNLMCJ@?$AA?$DN?$AA?$DN?$AA?$DN?$AA?$DN?$AA?$DN?$AA?$DN?$AA?5?$AAP?$AAC?$AAR?$AA?5?$AAl?$AAe?$AAs?$AAs?$AA?5?$AAt?$AAh?$AAa?$AAn?$AA?5?$AAl?$AAa?$AAs?$AAt?$AAP?$AAC?$AAR?$AA?5?$AA?$DN?$AA?$DN?$AA?$DN@ DB '='
	DB	00H, '=', 00H, '=', 00H, '=', 00H, '=', 00H, '=', 00H, ' ', 00H
	DB	'P', 00H, 'C', 00H, 'R', 00H, ' ', 00H, 'l', 00H, 'e', 00H, 's'
	DB	00H, 's', 00H, ' ', 00H, 't', 00H, 'h', 00H, 'a', 00H, 'n', 00H
	DB	' ', 00H, 'l', 00H, 'a', 00H, 's', 00H, 't', 00H, 'P', 00H, 'C'
	DB	00H, 'R', 00H, ' ', 00H, '=', 00H, '=', 00H, '=', 00H, '=', 00H
	DB	'=', 00H, '=', 00H, 0dH, 00H, 0aH, 00H, 00H, 00H ; `string'
CONST	ENDS
;	COMDAT ??_C@_1IG@GILMADAC@?$AAP?$AAC?$AAR?$AA?0?$AA?5?$AAs?$AAt?$AAa?$AAr?$AAt?$AAP?$AAC?$AAR?$AA?0?$AA?5?$AAl?$AAa?$AAs?$AAt?$AAP?$AAC?$AAR?$AA?0?$AA?5?$AAb?$AAa?$AAs?$AAe?$AAP?$AAC?$AAR?$AA?5@
CONST	SEGMENT
??_C@_1IG@GILMADAC@?$AAP?$AAC?$AAR?$AA?0?$AA?5?$AAs?$AAt?$AAa?$AAr?$AAt?$AAP?$AAC?$AAR?$AA?0?$AA?5?$AAl?$AAa?$AAs?$AAt?$AAP?$AAC?$AAR?$AA?0?$AA?5?$AAb?$AAa?$AAs?$AAe?$AAP?$AAC?$AAR?$AA?5@ DB 'P'
	DB	00H, 'C', 00H, 'R', 00H, ',', 00H, ' ', 00H, 's', 00H, 't', 00H
	DB	'a', 00H, 'r', 00H, 't', 00H, 'P', 00H, 'C', 00H, 'R', 00H, ','
	DB	00H, ' ', 00H, 'l', 00H, 'a', 00H, 's', 00H, 't', 00H, 'P', 00H
	DB	'C', 00H, 'R', 00H, ',', 00H, ' ', 00H, 'b', 00H, 'a', 00H, 's'
	DB	00H, 'e', 00H, 'P', 00H, 'C', 00H, 'R', 00H, ' ', 00H, ':', 00H
	DB	' ', 00H, '%', 00H, '1', 00H, '1', 00H, 'l', 00H, 'l', 00H, 'd'
	DB	00H, ',', 00H, ' ', 00H, '%', 00H, '1', 00H, '1', 00H, 'l', 00H
	DB	'l', 00H, 'd', 00H, ',', 00H, ' ', 00H, '%', 00H, '1', 00H, '1'
	DB	00H, 'l', 00H, 'l', 00H, 'd', 00H, ',', 00H, ' ', 00H, '%', 00H
	DB	'1', 00H, '1', 00H, 'l', 00H, 'l', 00H, 'd', 00H, 0dH, 00H, 0aH
	DB	00H, 00H, 00H				; `string'
CONST	ENDS
;	COMDAT ??_C@_1EO@GFIANDIB@?$AAP?$AAM?$AAT?$AA?0?$AA?5?$AAP?$AAC?$AAR?$AA?0?$AA?5?$AAC?$AAa?$AAp?$AAt?$AAi?$AAo?$AAn?$AA?5?$AA?3?$AA?5?$AA?$CF?$AA0?$AA4?$AAx?$AA?0?$AA?5?$AA?$CF?$AA0?$AA4?$AAx?$AA?0?$AA?5@
CONST	SEGMENT
??_C@_1EO@GFIANDIB@?$AAP?$AAM?$AAT?$AA?0?$AA?5?$AAP?$AAC?$AAR?$AA?0?$AA?5?$AAC?$AAa?$AAp?$AAt?$AAi?$AAo?$AAn?$AA?5?$AA?3?$AA?5?$AA?$CF?$AA0?$AA4?$AAx?$AA?0?$AA?5?$AA?$CF?$AA0?$AA4?$AAx?$AA?0?$AA?5@ DB 'P'
	DB	00H, 'M', 00H, 'T', 00H, ',', 00H, ' ', 00H, 'P', 00H, 'C', 00H
	DB	'R', 00H, ',', 00H, ' ', 00H, 'C', 00H, 'a', 00H, 'p', 00H, 't'
	DB	00H, 'i', 00H, 'o', 00H, 'n', 00H, ' ', 00H, ':', 00H, ' ', 00H
	DB	'%', 00H, '0', 00H, '4', 00H, 'x', 00H, ',', 00H, ' ', 00H, '%'
	DB	00H, '0', 00H, '4', 00H, 'x', 00H, ',', 00H, ' ', 00H, '%', 00H
	DB	'0', 00H, '4', 00H, 'x', 00H, 0dH, 00H, 0aH, 00H, 00H, 00H ; `string'
CONST	ENDS
;	COMDAT ??_C@_1CG@HCFOLIID@?$AAI?$AAn?$AAv?$AAa?$AAl?$AAi?$AAd?$AA?5?$AAT?$AAS?$AA?5?$AAF?$AAi?$AAl?$AAe?$AA?4?$AA?$AN?$AA?6?$AA?$AA@
CONST	SEGMENT
??_C@_1CG@HCFOLIID@?$AAI?$AAn?$AAv?$AAa?$AAl?$AAi?$AAd?$AA?5?$AAT?$AAS?$AA?5?$AAF?$AAi?$AAl?$AAe?$AA?4?$AA?$AN?$AA?6?$AA?$AA@ DB 'I'
	DB	00H, 'n', 00H, 'v', 00H, 'a', 00H, 'l', 00H, 'i', 00H, 'd', 00H
	DB	' ', 00H, 'T', 00H, 'S', 00H, ' ', 00H, 'F', 00H, 'i', 00H, 'l'
	DB	00H, 'e', 00H, '.', 00H, 0dH, 00H, 0aH, 00H, 00H, 00H ; `string'
CONST	ENDS
;	COMDAT ??_C@_1DA@DGCLJLO@?$AAP?$AAr?$AAo?$AAc?$AAe?$AAs?$AAs?$AA?5?$AA?5?$AA?$CF?$AAd?$AAw?$AA?5?$AAp?$AAa?$AAc?$AAk?$AAe?$AAt?$AAs?$AA?4?$AA?$AN?$AA?6?$AA?$AA@
CONST	SEGMENT
??_C@_1DA@DGCLJLO@?$AAP?$AAr?$AAo?$AAc?$AAe?$AAs?$AAs?$AA?5?$AA?5?$AA?$CF?$AAd?$AAw?$AA?5?$AAp?$AAa?$AAc?$AAk?$AAe?$AAt?$AAs?$AA?4?$AA?$AN?$AA?6?$AA?$AA@ DB 'P'
	DB	00H, 'r', 00H, 'o', 00H, 'c', 00H, 'e', 00H, 's', 00H, 's', 00H
	DB	' ', 00H, ' ', 00H, '%', 00H, 'd', 00H, 'w', 00H, ' ', 00H, 'p'
	DB	00H, 'a', 00H, 'c', 00H, 'k', 00H, 'e', 00H, 't', 00H, 's', 00H
	DB	'.', 00H, 0dH, 00H, 0aH, 00H, 00H, 00H	; `string'
CONST	ENDS
;	COMDAT ??_C@_1JE@FOGKDBBA@?$AAP?$AAr?$AAo?$AAg?$AAr?$AAa?$AAm?$AAe?$AA?5?$AAh?$AAa?$AAs?$AA?5?$AAd?$AAe?$AAt?$AAe?$AAc?$AAe?$AAd?$AA?5?$AA?$CF?$AAd?$AAw?$AA?5?$AAp?$AAa?$AAc?$AAk?$AAe?$AAt?$AAs@
CONST	SEGMENT
??_C@_1JE@FOGKDBBA@?$AAP?$AAr?$AAo?$AAg?$AAr?$AAa?$AAm?$AAe?$AA?5?$AAh?$AAa?$AAs?$AA?5?$AAd?$AAe?$AAt?$AAe?$AAc?$AAe?$AAd?$AA?5?$AA?$CF?$AAd?$AAw?$AA?5?$AAp?$AAa?$AAc?$AAk?$AAe?$AAt?$AAs@ DB 'P'
	DB	00H, 'r', 00H, 'o', 00H, 'g', 00H, 'r', 00H, 'a', 00H, 'm', 00H
	DB	'e', 00H, ' ', 00H, 'h', 00H, 'a', 00H, 's', 00H, ' ', 00H, 'd'
	DB	00H, 'e', 00H, 't', 00H, 'e', 00H, 'c', 00H, 'e', 00H, 'd', 00H
	DB	' ', 00H, '%', 00H, 'd', 00H, 'w', 00H, ' ', 00H, 'p', 00H, 'a'
	DB	00H, 'c', 00H, 'k', 00H, 'e', 00H, 't', 00H, 's', 00H, ',', 00H
	DB	' ', 00H, 'b', 00H, 'u', 00H, 't', 00H, ' ', 00H, 'c', 00H, 'a'
	DB	00H, 'n', 00H, '''', 00H, 't', 00H, ' ', 00H, 'f', 00H, 'i', 00H
	DB	'n', 00H, 'd', 00H, ' ', 00H, 'c', 00H, 'a', 00H, 'p', 00H, 't'
	DB	00H, 'i', 00H, 'o', 00H, 'n', 00H, '.', 00H, ' ', 00H, 'N', 00H
	DB	'o', 00H, 'w', 00H, ' ', 00H, 'i', 00H, 't', 00H, ' ', 00H, 'e'
	DB	00H, 'x', 00H, 'i', 00H, 't', 00H, 's', 00H, '.', 00H, 0dH, 00H
	DB	0aH, 00H, 00H, 00H				; `string'
CONST	ENDS
;	COMDAT ??_C@_19EEPNDKNE@?$AA?$CF?$AAs?$AA?$AN?$AA?6?$AA?$AA@
CONST	SEGMENT
??_C@_19EEPNDKNE@?$AA?$CF?$AAs?$AA?$AN?$AA?6?$AA?$AA@ DB '%', 00H, 's', 00H
	DB	0dH, 00H, 0aH, 00H, 00H, 00H			; `string'
CONST	ENDS
;	COMDAT ??_C@_1FM@IBBPPJMK@?$AAC?$AAh?$AAa?$AAr?$AA?5?$AAM?$AA?0?$AAW?$AA?0?$AAH?$AA?0?$AAH?$AAI?$AA?0?$AAV?$AAI?$AA?5?$AA?3?$AA?5?$AA?$CF?$AA4?$AAd?$AA?0?$AA?5?$AA?$CF?$AA4?$AAd?$AA?0?$AA?5?$AA?$CF?$AA4?$AAd@
CONST	SEGMENT
??_C@_1FM@IBBPPJMK@?$AAC?$AAh?$AAa?$AAr?$AA?5?$AAM?$AA?0?$AAW?$AA?0?$AAH?$AA?0?$AAH?$AAI?$AA?0?$AAV?$AAI?$AA?5?$AA?3?$AA?5?$AA?$CF?$AA4?$AAd?$AA?0?$AA?5?$AA?$CF?$AA4?$AAd?$AA?0?$AA?5?$AA?$CF?$AA4?$AAd@ DB 'C'
	DB	00H, 'h', 00H, 'a', 00H, 'r', 00H, ' ', 00H, 'M', 00H, ',', 00H
	DB	'W', 00H, ',', 00H, 'H', 00H, ',', 00H, 'H', 00H, 'I', 00H, ','
	DB	00H, 'V', 00H, 'I', 00H, ' ', 00H, ':', 00H, ' ', 00H, '%', 00H
	DB	'4', 00H, 'd', 00H, ',', 00H, ' ', 00H, '%', 00H, '4', 00H, 'd'
	DB	00H, ',', 00H, ' ', 00H, '%', 00H, '4', 00H, 'd', 00H, ',', 00H
	DB	' ', 00H, '%', 00H, '4', 00H, 'd', 00H, ',', 00H, ' ', 00H, '%'
	DB	00H, '4', 00H, 'd', 00H, ' ', 00H, ' ', 00H, ' ', 00H, 00H, 00H ; `string'
CONST	ENDS
;	COMDAT ??_C@_1CA@GHHLGCDL@?$AAC?$AAo?$AAl?$AAo?$AAr?$AA?5?$AA?3?$AA?5?$AA?$CF?$AA?$CD?$AA?4?$AAX?$AA?5?$AA?5?$AA?5?$AA?$AA@
CONST	SEGMENT
??_C@_1CA@GHHLGCDL@?$AAC?$AAo?$AAl?$AAo?$AAr?$AA?5?$AA?3?$AA?5?$AA?$CF?$AA?$CD?$AA?4?$AAX?$AA?5?$AA?5?$AA?5?$AA?$AA@ DB 'C'
	DB	00H, 'o', 00H, 'l', 00H, 'o', 00H, 'r', 00H, ' ', 00H, ':', 00H
	DB	' ', 00H, '%', 00H, '#', 00H, '.', 00H, 'X', 00H, ' ', 00H, ' '
	DB	00H, ' ', 00H, 00H, 00H			; `string'
CONST	ENDS
;	COMDAT ??_C@_1BG@NCFPFLED@?$AAH?$AAL?$AAC?$AA?5?$AA?3?$AA?5?$AAo?$AAn?$AA?$AN?$AA?6?$AA?$AA@
CONST	SEGMENT
??_C@_1BG@NCFPFLED@?$AAH?$AAL?$AAC?$AA?5?$AA?3?$AA?5?$AAo?$AAn?$AA?$AN?$AA?6?$AA?$AA@ DB 'H'
	DB	00H, 'L', 00H, 'C', 00H, ' ', 00H, ':', 00H, ' ', 00H, 'o', 00H
	DB	'n', 00H, 0dH, 00H, 0aH, 00H, 00H, 00H	; `string'
CONST	ENDS
;	COMDAT ??_C@_1BM@LBILINME@?$AAI?$AAt?$AAa?$AAl?$AAi?$AAc?$AA?5?$AA?3?$AA?5?$AAo?$AAn?$AA?$AN?$AA?6?$AA?$AA@
CONST	SEGMENT
??_C@_1BM@LBILINME@?$AAI?$AAt?$AAa?$AAl?$AAi?$AAc?$AA?5?$AA?3?$AA?5?$AAo?$AAn?$AA?$AN?$AA?6?$AA?$AA@ DB 'I'
	DB	00H, 't', 00H, 'a', 00H, 'l', 00H, 'i', 00H, 'c', 00H, ' ', 00H
	DB	':', 00H, ' ', 00H, 'o', 00H, 'n', 00H, 0dH, 00H, 0aH, 00H, 00H
	DB	00H						; `string'
CONST	ENDS
;	COMDAT ??_C@_1BI@GNICFIOF@?$AAB?$AAo?$AAl?$AAd?$AA?5?$AA?3?$AA?5?$AAo?$AAn?$AA?$AN?$AA?6?$AA?$AA@
CONST	SEGMENT
??_C@_1BI@GNICFIOF@?$AAB?$AAo?$AAl?$AAd?$AA?5?$AA?3?$AA?5?$AAo?$AAn?$AA?$AN?$AA?6?$AA?$AA@ DB 'B'
	DB	00H, 'o', 00H, 'l', 00H, 'd', 00H, ' ', 00H, ':', 00H, ' ', 00H
	DB	'o', 00H, 'n', 00H, 0dH, 00H, 0aH, 00H, 00H, 00H ; `string'
CONST	ENDS
;	COMDAT ??_C@_1CC@PKCJANFB@?$AAU?$AAn?$AAd?$AAe?$AAr?$AAL?$AAi?$AAn?$AAe?$AA?5?$AA?3?$AA?5?$AAo?$AAn?$AA?$AN?$AA?6?$AA?$AA@
CONST	SEGMENT
??_C@_1CC@PKCJANFB@?$AAU?$AAn?$AAd?$AAe?$AAr?$AAL?$AAi?$AAn?$AAe?$AA?5?$AA?3?$AA?5?$AAo?$AAn?$AA?$AN?$AA?6?$AA?$AA@ DB 'U'
	DB	00H, 'n', 00H, 'd', 00H, 'e', 00H, 'r', 00H, 'L', 00H, 'i', 00H
	DB	'n', 00H, 'e', 00H, ' ', 00H, ':', 00H, ' ', 00H, 'o', 00H, 'n'
	DB	00H, 0dH, 00H, 0aH, 00H, 00H, 00H		; `string'
CONST	ENDS
;	COMDAT ??_C@_1CO@IGOJOHOB@?$AAP?$AAo?$AAs?$AA?5?$AA?5?$AA?5?$AA?5?$AAX?$AA?3?$AAY?$AA?5?$AA?3?$AA?5?$AA?$CF?$AA4?$AAd?$AA?7?$AA?$CF?$AA4?$AAd?$AA?$AN?$AA?6?$AA?$AA@
CONST	SEGMENT
??_C@_1CO@IGOJOHOB@?$AAP?$AAo?$AAs?$AA?5?$AA?5?$AA?5?$AA?5?$AAX?$AA?3?$AAY?$AA?5?$AA?3?$AA?5?$AA?$CF?$AA4?$AAd?$AA?7?$AA?$CF?$AA4?$AAd?$AA?$AN?$AA?6?$AA?$AA@ DB 'P'
	DB	00H, 'o', 00H, 's', 00H, ' ', 00H, ' ', 00H, ' ', 00H, ' ', 00H
	DB	'X', 00H, ':', 00H, 'Y', 00H, ' ', 00H, ':', 00H, ' ', 00H, '%'
	DB	00H, '4', 00H, 'd', 00H, 09H, 00H, '%', 00H, '4', 00H, 'd', 00H
	DB	0dH, 00H, 0aH, 00H, 00H, 00H			; `string'
CONST	ENDS
;	COMDAT ??_C@_1CO@EMPGKLHK@?$AAC?$AAl?$AAi?$AAe?$AAn?$AAt?$AA?5?$AAW?$AA?3?$AAH?$AA?5?$AA?3?$AA?5?$AA?$CF?$AA4?$AAd?$AA?7?$AA?$CF?$AA4?$AAd?$AA?$AN?$AA?6?$AA?$AA@
CONST	SEGMENT
??_C@_1CO@EMPGKLHK@?$AAC?$AAl?$AAi?$AAe?$AAn?$AAt?$AA?5?$AAW?$AA?3?$AAH?$AA?5?$AA?3?$AA?5?$AA?$CF?$AA4?$AAd?$AA?7?$AA?$CF?$AA4?$AAd?$AA?$AN?$AA?6?$AA?$AA@ DB 'C'
	DB	00H, 'l', 00H, 'i', 00H, 'e', 00H, 'n', 00H, 't', 00H, ' ', 00H
	DB	'W', 00H, ':', 00H, 'H', 00H, ' ', 00H, ':', 00H, ' ', 00H, '%'
	DB	00H, '4', 00H, 'd', 00H, 09H, 00H, '%', 00H, '4', 00H, 'd', 00H
	DB	0dH, 00H, 0aH, 00H, 00H, 00H			; `string'
CONST	ENDS
;	COMDAT ??_C@_1CO@NJNKBHG@?$AAC?$AAl?$AAi?$AAe?$AAn?$AAt?$AA?5?$AAX?$AA?3?$AAY?$AA?5?$AA?3?$AA?5?$AA?$CF?$AA4?$AAd?$AA?7?$AA?$CF?$AA4?$AAd?$AA?$AN?$AA?6?$AA?$AA@
CONST	SEGMENT
??_C@_1CO@NJNKBHG@?$AAC?$AAl?$AAi?$AAe?$AAn?$AAt?$AA?5?$AAX?$AA?3?$AAY?$AA?5?$AA?3?$AA?5?$AA?$CF?$AA4?$AAd?$AA?7?$AA?$CF?$AA4?$AAd?$AA?$AN?$AA?6?$AA?$AA@ DB 'C'
	DB	00H, 'l', 00H, 'i', 00H, 'e', 00H, 'n', 00H, 't', 00H, ' ', 00H
	DB	'X', 00H, ':', 00H, 'Y', 00H, ' ', 00H, ':', 00H, ' ', 00H, '%'
	DB	00H, '4', 00H, 'd', 00H, 09H, 00H, '%', 00H, '4', 00H, 'd', 00H
	DB	0dH, 00H, 0aH, 00H, 00H, 00H			; `string'
CONST	ENDS
;	COMDAT ??_C@_1CG@MBAOJKEB@?$AAS?$AAW?$AAF?$AAM?$AAo?$AAd?$AAe?$AA?5?$AA?5?$AA?5?$AA?5?$AA?3?$AA?5?$AA?$CF?$AA4?$AAd?$AA?$AN?$AA?6?$AA?$AA@
CONST	SEGMENT
??_C@_1CG@MBAOJKEB@?$AAS?$AAW?$AAF?$AAM?$AAo?$AAd?$AAe?$AA?5?$AA?5?$AA?5?$AA?5?$AA?3?$AA?5?$AA?$CF?$AA4?$AAd?$AA?$AN?$AA?6?$AA?$AA@ DB 'S'
	DB	00H, 'W', 00H, 'F', 00H, 'M', 00H, 'o', 00H, 'd', 00H, 'e', 00H
	DB	' ', 00H, ' ', 00H, ' ', 00H, ' ', 00H, ':', 00H, ' ', 00H, '%'
	DB	00H, '4', 00H, 'd', 00H, 0dH, 00H, 0aH, 00H, 00H, 00H ; `string'
CONST	ENDS
;	COMDAT ??_C@_1CE@LGANKNKO@?$AA?$CF?$AAd?$AA?5?$AAC?$AAa?$AAp?$AAt?$AAi?$AAo?$AAn?$AA?5?$AAs?$AAk?$AAi?$AAp?$AA?$AN?$AA?6?$AA?$AA@
CONST	SEGMENT
??_C@_1CE@LGANKNKO@?$AA?$CF?$AAd?$AA?5?$AAC?$AAa?$AAp?$AAt?$AAi?$AAo?$AAn?$AA?5?$AAs?$AAk?$AAi?$AAp?$AA?$AN?$AA?6?$AA?$AA@ DB '%'
	DB	00H, 'd', 00H, ' ', 00H, 'C', 00H, 'a', 00H, 'p', 00H, 't', 00H
	DB	'i', 00H, 'o', 00H, 'n', 00H, ' ', 00H, 's', 00H, 'k', 00H, 'i'
	DB	00H, 'p', 00H, 0dH, 00H, 0aH, 00H, 00H, 00H	; `string'
CONST	ENDS
;	COMDAT ??_C@_13NOLLCAOD@?$AA?$AA?$AA?$AA@
CONST	SEGMENT
??_C@_13NOLLCAOD@?$AA?$AA?$AA?$AA@ DB 00H, 00H, 00H, 00H ; `string'
CONST	ENDS
;	COMDAT ??_C@_17JPBIBAFH@?$AA?4?$AAt?$AAs?$AA?$AA@
CONST	SEGMENT
??_C@_17JPBIBAFH@?$AA?4?$AAt?$AAs?$AA?$AA@ DB '.', 00H, 't', 00H, 's', 00H
	DB	00H, 00H					; `string'
CONST	ENDS
;	COMDAT ??_C@_07HNEBHIML@?$DM?1font?$DO?$AA@
CONST	SEGMENT
??_C@_07HNEBHIML@?$DM?1font?$DO?$AA@ DB '</font>', 00H	; `string'
CONST	ENDS
;	COMDAT ??_C@_04LGKCFDML@?$DM?1u?$DO?$AA@
CONST	SEGMENT
??_C@_04LGKCFDML@?$DM?1u?$DO?$AA@ DB '</u>', 00H	; `string'
CONST	ENDS
;	COMDAT ??_C@_04KPMLOGDO@?$DM?1b?$DO?$AA@
CONST	SEGMENT
??_C@_04KPMLOGDO@?$DM?1b?$DO?$AA@ DB '</b>', 00H	; `string'
CONST	ENDS
;	COMDAT ??_C@_04KDJOAJNP@?$DM?1i?$DO?$AA@
CONST	SEGMENT
??_C@_04KDJOAJNP@?$DM?1i?$DO?$AA@ DB '</i>', 00H	; `string'
CONST	ENDS
;	COMDAT ??_C@_0BN@PJJHDIPA@?$DMfont?5color?$DN?$CC?$CD?$CF02x?$CF02x?$CF02x?$CC?$DO?$AA@
CONST	SEGMENT
??_C@_0BN@PJJHDIPA@?$DMfont?5color?$DN?$CC?$CD?$CF02x?$CF02x?$CF02x?$CC?$DO?$AA@ DB '<'
	DB	'font color="#%02x%02x%02x">', 00H		; `string'
CONST	ENDS
;	COMDAT ??_C@_03HHLJNGDM@?$DMu?$DO?$AA@
CONST	SEGMENT
??_C@_03HHLJNGDM@?$DMu?$DO?$AA@ DB '<u>', 00H		; `string'
CONST	ENDS
;	COMDAT ??_C@_03GONAGDMJ@?$DMb?$DO?$AA@
CONST	SEGMENT
??_C@_03GONAGDMJ@?$DMb?$DO?$AA@ DB '<b>', 00H		; `string'
CONST	ENDS
;	COMDAT ??_C@_03GCIFIMCI@?$DMi?$DO?$AA@
CONST	SEGMENT
??_C@_03GCIFIMCI@?$DMi?$DO?$AA@ DB '<i>', 00H		; `string'
CONST	ENDS
;	COMDAT ??_C@_0DC@PLNIHMHC@?$CFd?$AN?6?$CF02d?3?$CF02d?3?$CF02d?0?$CF03d?5?9?9?$DO?5?$CF02d@
CONST	SEGMENT
??_C@_0DC@PLNIHMHC@?$CFd?$AN?6?$CF02d?3?$CF02d?3?$CF02d?0?$CF03d?5?9?9?$DO?5?$CF02d@ DB '%'
	DB	'd', 0dH, 0aH, '%02d:%02d:%02d,%03d --> %02d:%02d:%02d,%03d', 0dH
	DB	0aH, 00H					; `string'
CONST	ENDS
;	COMDAT ??_C@_0EO@MKIEJOMJ@Dialogue?3?50?0?$CF01d?3?$CF02d?3?$CF02d?4?$CF02d?0@
CONST	SEGMENT
??_C@_0EO@MKIEJOMJ@Dialogue?3?50?0?$CF01d?3?$CF02d?3?$CF02d?4?$CF02d?0@ DB 'D'
	DB	'ialogue: 0,%01d:%02d:%02d.%02d,%01d:%02d:%02d.%02d,Default,,0'
	DB	'000,0000,0000,,', 00H			; `string'
CONST	ENDS
;	COMDAT ??_C@_01LBDDMOBJ@?$FN?$AA@
CONST	SEGMENT
??_C@_01LBDDMOBJ@?$FN?$AA@ DB ']', 00H			; `string'
CONST	ENDS
;	COMDAT ??_C@_04LNAHLIAJ@?2i?$CFd?$AA@
CONST	SEGMENT
??_C@_04LNAHLIAJ@?2i?$CFd?$AA@ DB '\i%d', 00H		; `string'
CONST	ENDS
;	COMDAT ??_C@_04GKAGDPAI@?2b?$CFd?$AA@
CONST	SEGMENT
??_C@_04GKAGDPAI@?2b?$CFd?$AA@ DB '\b%d', 00H		; `string'
CONST	ENDS
;	COMDAT ??_C@_04KHMIFACO@?2u?$CFd?$AA@
CONST	SEGMENT
??_C@_04KHMIFACO@?2u?$CFd?$AA@ DB '\u%d', 00H		; `string'
CONST	ENDS
;	COMDAT ??_C@_01HCONENDN@?$HL?$AA@
CONST	SEGMENT
??_C@_01HCONENDN@?$HL?$AA@ DB '{', 00H			; `string'
CONST	ENDS
;	COMDAT ??_C@_01OHGJGJJP@?$FL?$AA@
CONST	SEGMENT
??_C@_01OHGJGJJP@?$FL?$AA@ DB '[', 00H			; `string'
CONST	ENDS
;	COMDAT ??_C@_02LOCJDLC@?2N?$AA@
CONST	SEGMENT
??_C@_02LOCJDLC@?2N?$AA@ DB '\N', 00H			; `string'
CONST	ENDS
;	COMDAT ??_C@_01CELHOKLL@?$HN?$AA@
CONST	SEGMENT
??_C@_01CELHOKLL@?$HN?$AA@ DB '}', 00H			; `string'
CONST	ENDS
;	COMDAT ??_C@_03NODLGHOE@?2i1?$AA@
CONST	SEGMENT
??_C@_03NODLGHOE@?2i1?$AA@ DB '\i1', 00H		; `string'
CONST	ENDS
;	COMDAT ??_C@_03NCGOIIAF@?2b1?$AA@
CONST	SEGMENT
??_C@_03NCGOIIAF@?2b1?$AA@ DB '\b1', 00H		; `string'
CONST	ENDS
;	COMDAT ??_C@_03MLAHDNPA@?2u1?$AA@
CONST	SEGMENT
??_C@_03MLAHDNPA@?2u1?$AA@ DB '\u1', 00H		; `string'
CONST	ENDS
;	COMDAT ??_C@_09CIHCCNFD@?2c?$CGH?$CF06x?$CG?$AA@
CONST	SEGMENT
??_C@_09CIHCCNFD@?2c?$CGH?$CF06x?$CG?$AA@ DB '\c&H%06x&', 00H ; `string'
CONST	ENDS
;	COMDAT ??_C@_0M@BGINJPIJ@?2pos?$CI?$CFd?0?$CFd?$CJ?$AA@
CONST	SEGMENT
??_C@_0M@BGINJPIJ@?2pos?$CI?$CFd?0?$CFd?$CJ?$AA@ DB '\pos(%d,%d)', 00H ; `string'
CONST	ENDS
;	COMDAT ??_C@_0EP@COLJFOLH@Dialogue?3?50?0?$CF01d?3?$CF02d?3?$CF02d?4?$CF02d?0@
CONST	SEGMENT
??_C@_0EP@COLJFOLH@Dialogue?3?50?0?$CF01d?3?$CF02d?3?$CF02d?4?$CF02d?0@ DB 'D'
	DB	'ialogue: 0,%01d:%02d:%02d.%02d,%01d:%02d:%02d.%02d,Default,,0'
	DB	'000,0000,0000,,{', 00H			; `string'
CONST	ENDS
;	COMDAT ??_C@_0EM@GPENGKLJ@Dialogue?3?50?0?$CF01d?3?$CF02d?3?$CF02d?4?$CF02d?0@
CONST	SEGMENT
??_C@_0EM@GPENGKLJ@Dialogue?3?50?0?$CF01d?3?$CF02d?3?$CF02d?4?$CF02d?0@ DB 'D'
	DB	'ialogue: 0,%01d:%02d:%02d.%02d,%01d:%02d:%02d.%02d,Rubi,,0000'
	DB	',0000,0000,,{', 00H				; `string'
CONST	ENDS
;	COMDAT ??_C@_0IC@DPDCFKOD@Dialogue?3?50?0?$CF01d?3?$CF02d?3?$CF02d?4?$CF02d?0@
CONST	SEGMENT
??_C@_0IC@DPDCFKOD@Dialogue?3?50?0?$CF01d?3?$CF02d?3?$CF02d?4?$CF02d?0@ DB 'D'
	DB	'ialogue: 0,%01d:%02d:%02d.%02d,%01d:%02d:%02d.%02d,Box,,0000,'
	DB	'0000,0000,,{\pos(%d,%d)\3c&H%06x&\p1}m 0 0 l %d 0 %d %d 0 %d{'
	DB	'\p0}', 0dH, 0aH, 00H			; `string'
CONST	ENDS
;	COMDAT ??_C@_02PCIJFNDE@?$AN?6?$AA@
CONST	SEGMENT
??_C@_02PCIJFNDE@?$AN?6?$AA@ DB 0dH, 0aH, 00H		; `string'
CONST	ENDS
;	COMDAT ??_C@_0GP@CIHGFHDJ@Dialogue?3?50?0?$CF01d?3?$CF02d?3?$CF02d?4?$CF02d?0@
CONST	SEGMENT
??_C@_0GP@CIHGFHDJ@Dialogue?3?50?0?$CF01d?3?$CF02d?3?$CF02d?4?$CF02d?0@ DB 'D'
	DB	'ialogue: 0,%01d:%02d:%02d.%02d,%01d:%02d:%02d.%02d,Box,,0000,'
	DB	'0000,0000,,{\pos(%d,%d)\fscx%d\fscy%d\3c&H%06x&}', 00H ; `string'
CONST	ENDS
;	COMDAT ??_C@_1O@DHOCLHPM@?$AAT?$AAa?$AAr?$AAg?$AAe?$AAt?$AA?$AA@
CONST	SEGMENT
??_C@_1O@DHOCLHPM@?$AAT?$AAa?$AAr?$AAg?$AAe?$AAt?$AA?$AA@ DB 'T', 00H, 'a'
	DB	00H, 'r', 00H, 'g', 00H, 'e', 00H, 't', 00H, 00H, 00H ; `string'
CONST	ENDS
;	COMDAT ??_C@_17LLLMIFAB@?$AAL?$AAo?$AAg?$AA?$AA@
CONST	SEGMENT
??_C@_17LLLMIFAB@?$AAL?$AAo?$AAg?$AA?$AA@ DB 'L', 00H, 'o', 00H, 'g', 00H
	DB	00H, 00H					; `string'
CONST	ENDS
;	COMDAT ??_C@_19MNIJKJJI@?$AA?4?$AAs?$AAr?$AAt?$AA?$AA@
CONST	SEGMENT
??_C@_19MNIJKJJI@?$AA?4?$AAs?$AAr?$AAt?$AA?$AA@ DB '.', 00H, 's', 00H, 'r'
	DB	00H, 't', 00H, 00H, 00H			; `string'
CONST	ENDS
;	COMDAT ??_C@_19KFJMHENC@?$AA?4?$AAa?$AAs?$AAs?$AA?$AA@
CONST	SEGMENT
??_C@_19KFJMHENC@?$AA?4?$AAa?$AAs?$AAs?$AA?$AA@ DB '.', 00H, 'a', 00H, 's'
	DB	00H, 's', 00H, 00H, 00H			; `string'
CONST	ENDS
;	COMDAT ??_C@_1BK@ODNLEGBB@?$AA_?$AAC?$AAa?$AAp?$AAt?$AAi?$AAo?$AAn?$AA?4?$AAl?$AAo?$AAg?$AA?$AA@
CONST	SEGMENT
??_C@_1BK@ODNLEGBB@?$AA_?$AAC?$AAa?$AAp?$AAt?$AAi?$AAo?$AAn?$AA?4?$AAl?$AAo?$AAg?$AA?$AA@ DB '_'
	DB	00H, 'C', 00H, 'a', 00H, 'p', 00H, 't', 00H, 'i', 00H, 'o', 00H
	DB	'n', 00H, '.', 00H, 'l', 00H, 'o', 00H, 'g', 00H, 00H, 00H ; `string'
CONST	ENDS
;	COMDAT ??_C@_1GI@PJGBGHDO@?$AAF?$AAa?$AAi?$AAl?$AAe?$AAd?$AA?5?$AAt?$AAo?$AA?5?$AAa?$AAl?$AAl?$AAo?$AAc?$AAa?$AAt?$AAe?$AA?5?$AAt?$AAh?$AAe?$AA?5?$AAb?$AAu?$AAf?$AAf?$AAe?$AAr?$AAs?$AA?5?$AAf@
CONST	SEGMENT
??_C@_1GI@PJGBGHDO@?$AAF?$AAa?$AAi?$AAl?$AAe?$AAd?$AA?5?$AAt?$AAo?$AA?5?$AAa?$AAl?$AAl?$AAo?$AAc?$AAa?$AAt?$AAe?$AA?5?$AAt?$AAh?$AAe?$AA?5?$AAb?$AAu?$AAf?$AAf?$AAe?$AAr?$AAs?$AA?5?$AAf@ DB 'F'
	DB	00H, 'a', 00H, 'i', 00H, 'l', 00H, 'e', 00H, 'd', 00H, ' ', 00H
	DB	't', 00H, 'o', 00H, ' ', 00H, 'a', 00H, 'l', 00H, 'l', 00H, 'o'
	DB	00H, 'c', 00H, 'a', 00H, 't', 00H, 'e', 00H, ' ', 00H, 't', 00H
	DB	'h', 00H, 'e', 00H, ' ', 00H, 'b', 00H, 'u', 00H, 'f', 00H, 'f'
	DB	00H, 'e', 00H, 'r', 00H, 's', 00H, ' ', 00H, 'f', 00H, 'o', 00H
	DB	'r', 00H, ' ', 00H, 'c', 00H, 'a', 00H, 'p', 00H, 't', 00H, 'i'
	DB	00H, 'o', 00H, 'n', 00H, ' ', 00H, 'n', 00H, 'a', 00H, 'm', 00H
	DB	'e', 00H, 's', 00H, '.', 00H, 0dH, 00H, 0aH, 00H, 00H, 00H ; `string'
CONST	ENDS
;	COMDAT ??_C@_1FG@LKGNIJDO@?$AAF?$AAa?$AAi?$AAl?$AAe?$AAd?$AA?5?$AAt?$AAo?$AA?5?$AAa?$AAl?$AAl?$AAo?$AAc?$AAa?$AAt?$AAe?$AA?5?$AAt?$AAh?$AAe?$AA?5?$AAc?$AAa?$AAp?$AAt?$AAi?$AAo?$AAn?$AA?5?$AAh@
CONST	SEGMENT
??_C@_1FG@LKGNIJDO@?$AAF?$AAa?$AAi?$AAl?$AAe?$AAd?$AA?5?$AAt?$AAo?$AA?5?$AAa?$AAl?$AAl?$AAo?$AAc?$AAa?$AAt?$AAe?$AA?5?$AAt?$AAh?$AAe?$AA?5?$AAc?$AAa?$AAp?$AAt?$AAi?$AAo?$AAn?$AA?5?$AAh@ DB 'F'
	DB	00H, 'a', 00H, 'i', 00H, 'l', 00H, 'e', 00H, 'd', 00H, ' ', 00H
	DB	't', 00H, 'o', 00H, ' ', 00H, 'a', 00H, 'l', 00H, 'l', 00H, 'o'
	DB	00H, 'c', 00H, 'a', 00H, 't', 00H, 'e', 00H, ' ', 00H, 't', 00H
	DB	'h', 00H, 'e', 00H, ' ', 00H, 'c', 00H, 'a', 00H, 'p', 00H, 't'
	DB	00H, 'i', 00H, 'o', 00H, 'n', 00H, ' ', 00H, 'h', 00H, 'a', 00H
	DB	'n', 00H, 'd', 00H, 'l', 00H, 'e', 00H, 'r', 00H, 's', 00H, '.'
	DB	00H, 0dH, 00H, 0aH, 00H, 00H, 00H		; `string'
CONST	ENDS
;	COMDAT ??_C@_1FK@CMFIACLH@?$AAF?$AAa?$AAi?$AAl?$AAe?$AAd?$AA?5?$AAt?$AAo?$AA?5?$AAa?$AAl?$AAl?$AAo?$AAc?$AAa?$AAt?$AAe?$AA?5?$AAt?$AAh?$AAe?$AA?5?$AAb?$AAu?$AAf?$AAf?$AAe?$AAr?$AAs?$AA?5?$AAf@
CONST	SEGMENT
??_C@_1FK@CMFIACLH@?$AAF?$AAa?$AAi?$AAl?$AAe?$AAd?$AA?5?$AAt?$AAo?$AA?5?$AAa?$AAl?$AAl?$AAo?$AAc?$AAa?$AAt?$AAe?$AA?5?$AAt?$AAh?$AAe?$AA?5?$AAb?$AAu?$AAf?$AAf?$AAe?$AAr?$AAs?$AA?5?$AAf@ DB 'F'
	DB	00H, 'a', 00H, 'i', 00H, 'l', 00H, 'e', 00H, 'd', 00H, ' ', 00H
	DB	't', 00H, 'o', 00H, ' ', 00H, 'a', 00H, 'l', 00H, 'l', 00H, 'o'
	DB	00H, 'c', 00H, 'a', 00H, 't', 00H, 'e', 00H, ' ', 00H, 't', 00H
	DB	'h', 00H, 'e', 00H, ' ', 00H, 'b', 00H, 'u', 00H, 'f', 00H, 'f'
	DB	00H, 'e', 00H, 'r', 00H, 's', 00H, ' ', 00H, 'f', 00H, 'o', 00H
	DB	'r', 00H, ' ', 00H, 'o', 00H, 'u', 00H, 't', 00H, 'p', 00H, 'u'
	DB	00H, 't', 00H, '.', 00H, 0dH, 00H, 0aH, 00H, 00H, 00H ; `string'
CONST	ENDS
;	COMDAT ??_C@_1FG@HBDOCCID@?$AAF?$AAa?$AAi?$AAl?$AAe?$AAd?$AA?5?$AAt?$AAo?$AA?5?$AAa?$AAl?$AAl?$AAo?$AAc?$AAa?$AAt?$AAe?$AA?5?$AAt?$AAh?$AAe?$AA?5?$AAp?$AAa?$AAr?$AAa?$AAm?$AAt?$AAe?$AAr?$AA?5@
CONST	SEGMENT
??_C@_1FG@HBDOCCID@?$AAF?$AAa?$AAi?$AAl?$AAe?$AAd?$AA?5?$AAt?$AAo?$AA?5?$AAa?$AAl?$AAl?$AAo?$AAc?$AAa?$AAt?$AAe?$AA?5?$AAt?$AAh?$AAe?$AA?5?$AAp?$AAa?$AAr?$AAa?$AAm?$AAt?$AAe?$AAr?$AA?5@ DB 'F'
	DB	00H, 'a', 00H, 'i', 00H, 'l', 00H, 'e', 00H, 'd', 00H, ' ', 00H
	DB	't', 00H, 'o', 00H, ' ', 00H, 'a', 00H, 'l', 00H, 'l', 00H, 'o'
	DB	00H, 'c', 00H, 'a', 00H, 't', 00H, 'e', 00H, ' ', 00H, 't', 00H
	DB	'h', 00H, 'e', 00H, ' ', 00H, 'p', 00H, 'a', 00H, 'r', 00H, 'a'
	DB	00H, 'm', 00H, 't', 00H, 'e', 00H, 'r', 00H, ' ', 00H, 'h', 00H
	DB	'a', 00H, 'n', 00H, 'd', 00H, 'l', 00H, 'e', 00H, 'r', 00H, '.'
	DB	00H, 0dH, 00H, 0aH, 00H, 00H, 00H		; `string'
CONST	ENDS
;	COMDAT ??_C@_1DE@OELKDLBD@?$AAO?$AAp?$AAe?$AAn?$AA?5?$AA?$CF?$AAs?$AA?5?$AAF?$AAi?$AAl?$AAe?$AA?3?$AA?5?$AA?$CF?$AAs?$AA?5?$AAf?$AAa?$AAi?$AAl?$AAe?$AAd?$AA?$AN?$AA?6?$AA?$AA@
CONST	SEGMENT
??_C@_1DE@OELKDLBD@?$AAO?$AAp?$AAe?$AAn?$AA?5?$AA?$CF?$AAs?$AA?5?$AAF?$AAi?$AAl?$AAe?$AA?3?$AA?5?$AA?$CF?$AAs?$AA?5?$AAf?$AAa?$AAi?$AAl?$AAe?$AAd?$AA?$AN?$AA?6?$AA?$AA@ DB 'O'
	DB	00H, 'p', 00H, 'e', 00H, 'n', 00H, ' ', 00H, '%', 00H, 's', 00H
	DB	' ', 00H, 'F', 00H, 'i', 00H, 'l', 00H, 'e', 00H, ':', 00H, ' '
	DB	00H, '%', 00H, 's', 00H, ' ', 00H, 'f', 00H, 'a', 00H, 'i', 00H
	DB	'l', 00H, 'e', 00H, 'd', 00H, 0dH, 00H, 0aH, 00H, 00H, 00H ; `string'
CONST	ENDS
;	COMDAT ??_C@_15MJDFFMKN@?$AAw?$AAb?$AA?$AA@
CONST	SEGMENT
??_C@_15MJDFFMKN@?$AAw?$AAb?$AA?$AA@ DB 'w', 00H, 'b', 00H, 00H, 00H ; `string'
CONST	ENDS
;	COMDAT ??_C@_11LOCGONAA@?$AA?$AA@
CONST	SEGMENT
??_C@_11LOCGONAA@?$AA?$AA@ DB 00H, 00H			; `string'
CONST	ENDS
;	COMDAT ??_C@_06FHFOAHML@system?$AA@
CONST	SEGMENT
??_C@_06FHFOAHML@system?$AA@ DB 'system', 00H		; `string'
CONST	ENDS
;	COMDAT ??_C@_0BG@PADBLCHM@iostream?5stream?5error?$AA@
CONST	SEGMENT
??_C@_0BG@PADBLCHM@iostream?5stream?5error?$AA@ DB 'iostream stream error'
	DB	00H						; `string'
CONST	ENDS
;	COMDAT ??_C@_08LLGCOLLL@iostream?$AA@
CONST	SEGMENT
??_C@_08LLGCOLLL@iostream?$AA@ DB 'iostream', 00H	; `string'
CONST	ENDS
;	COMDAT ??_C@_0O@BFJCFAAK@unknown?5error?$AA@
CONST	SEGMENT
??_C@_0O@BFJCFAAK@unknown?5error?$AA@ DB 'unknown error', 00H ; `string'
CONST	ENDS
;	COMDAT ??_C@_07DCLBNMLN@generic?$AA@
CONST	SEGMENT
??_C@_07DCLBNMLN@generic?$AA@ DB 'generic', 00H		; `string'
PUBLIC	??1?$vector@U_CAPTION_CHAR_DATA@@V?$allocator@U_CAPTION_CHAR_DATA@@@std@@@std@@QEAA@XZ ; std::vector<_CAPTION_CHAR_DATA,std::allocator<_CAPTION_CHAR_DATA> >::~vector<_CAPTION_CHAR_DATA,std::allocator<_CAPTION_CHAR_DATA> >
PUBLIC	??1_CAPTION_DATA@@QEAA@XZ			; _CAPTION_DATA::~_CAPTION_DATA
PUBLIC	??1_CAPTION_CHAR_DATA@@QEAA@XZ			; _CAPTION_CHAR_DATA::~_CAPTION_CHAR_DATA
PUBLIC	??_G_CAPTION_DATA@@QEAAPEAXI@Z			; _CAPTION_DATA::`scalar deleting destructor'
PUBLIC	??_G_CAPTION_CHAR_DATA@@QEAAPEAXI@Z		; _CAPTION_CHAR_DATA::`scalar deleting destructor'
PUBLIC	??$destroy@U_LANG_TAG_INFO@@@?$allocator@U_LANG_TAG_INFO@@@std@@QEAAXPEAU_LANG_TAG_INFO@@@Z ; std::allocator<_LANG_TAG_INFO>::destroy<_LANG_TAG_INFO>
PUBLIC	??$destroy@U_CAPTION_DATA@@@?$allocator@U_CAPTION_DATA@@@std@@QEAAXPEAU_CAPTION_DATA@@@Z ; std::allocator<_CAPTION_DATA>::destroy<_CAPTION_DATA>
PUBLIC	??$destroy@U_CAPTION_CHAR_DATA@@@?$allocator@U_CAPTION_CHAR_DATA@@@std@@QEAAXPEAU_CAPTION_CHAR_DATA@@@Z ; std::allocator<_CAPTION_CHAR_DATA>::destroy<_CAPTION_CHAR_DATA>
PUBLIC	??$destroy@U_LANG_TAG_INFO@@@?$allocator_traits@V?$allocator@U_LANG_TAG_INFO@@@std@@@std@@SAXAEAV?$allocator@U_LANG_TAG_INFO@@@1@PEAU_LANG_TAG_INFO@@@Z ; std::allocator_traits<std::allocator<_LANG_TAG_INFO> >::destroy<_LANG_TAG_INFO>
PUBLIC	??$destroy@U_CAPTION_DATA@@@?$allocator_traits@V?$allocator@U_CAPTION_DATA@@@std@@@std@@SAXAEAV?$allocator@U_CAPTION_DATA@@@1@PEAU_CAPTION_DATA@@@Z ; std::allocator_traits<std::allocator<_CAPTION_DATA> >::destroy<_CAPTION_DATA>
PUBLIC	??$destroy@U_CAPTION_CHAR_DATA@@@?$allocator_traits@V?$allocator@U_CAPTION_CHAR_DATA@@@std@@@std@@SAXAEAV?$allocator@U_CAPTION_CHAR_DATA@@@1@PEAU_CAPTION_CHAR_DATA@@@Z ; std::allocator_traits<std::allocator<_CAPTION_CHAR_DATA> >::destroy<_CAPTION_CHAR_DATA>
PUBLIC	??$destroy@U_LANG_TAG_INFO@@@?$_Wrap_alloc@V?$allocator@U_LANG_TAG_INFO@@@std@@@std@@QEAAXPEAU_LANG_TAG_INFO@@@Z ; std::_Wrap_alloc<std::allocator<_LANG_TAG_INFO> >::destroy<_LANG_TAG_INFO>
PUBLIC	??$destroy@U_CAPTION_DATA@@@?$_Wrap_alloc@V?$allocator@U_CAPTION_DATA@@@std@@@std@@QEAAXPEAU_CAPTION_DATA@@@Z ; std::_Wrap_alloc<std::allocator<_CAPTION_DATA> >::destroy<_CAPTION_DATA>
PUBLIC	??$_Uninit_move@PEAU_CAPTION_LINE@@PEAU1@PEAU1@@std@@YAPEAPEAU_CAPTION_LINE@@PEAPEAU1@00AEAU?$_Wrap_alloc@V?$allocator@PEAU_CAPTION_LINE@@@std@@@0@0U_Scalar_ptr_iterator_tag@0@@Z ; std::_Uninit_move<_CAPTION_LINE * __ptr64,_CAPTION_LINE * __ptr64,_CAPTION_LINE * __ptr64>
PUBLIC	??$_Val_type@PEAPEAU_CAPTION_LINE@@@std@@YAPEAPEAU_CAPTION_LINE@@PEAPEAU1@@Z ; std::_Val_type<_CAPTION_LINE * __ptr64 * __ptr64>
PUBLIC	??$_Uninit_move@PEAU_LINE_STR@@PEAU1@PEAU1@@std@@YAPEAPEAU_LINE_STR@@PEAPEAU1@00AEAU?$_Wrap_alloc@V?$allocator@PEAU_LINE_STR@@@std@@@0@0U_Scalar_ptr_iterator_tag@0@@Z ; std::_Uninit_move<_LINE_STR * __ptr64,_LINE_STR * __ptr64,_LINE_STR * __ptr64>
PUBLIC	??$_Val_type@PEAPEAU_LINE_STR@@@std@@YAPEAPEAU_LINE_STR@@PEAPEAU1@@Z ; std::_Val_type<_LINE_STR * __ptr64 * __ptr64>
PUBLIC	??$destroy@U_CAPTION_CHAR_DATA@@@?$_Wrap_alloc@V?$allocator@U_CAPTION_CHAR_DATA@@@std@@@std@@QEAAXPEAU_CAPTION_CHAR_DATA@@@Z ; std::_Wrap_alloc<std::allocator<_CAPTION_CHAR_DATA> >::destroy<_CAPTION_CHAR_DATA>
PUBLIC	??$destroy@PEAD@?$allocator@D@std@@QEAAXPEAPEAD@Z ; std::allocator<char>::destroy<char * __ptr64>
PUBLIC	??$construct@PEADAEAPEAD@?$allocator@D@std@@QEAAXPEAPEADAEAPEAD@Z ; std::allocator<char>::construct<char * __ptr64,char * __ptr64 & __ptr64>
PUBLIC	??$construct@PEAU_CAPTION_LINE@@AEAPEAU1@@?$allocator@PEAU_CAPTION_LINE@@@std@@QEAAXPEAPEAU_CAPTION_LINE@@AEAPEAU2@@Z ; std::allocator<_CAPTION_LINE * __ptr64>::construct<_CAPTION_LINE * __ptr64,_CAPTION_LINE * __ptr64 & __ptr64>
PUBLIC	??$construct@PEAU_LINE_STR@@AEAPEAU1@@?$allocator@PEAU_LINE_STR@@@std@@QEAAXPEAPEAU_LINE_STR@@AEAPEAU2@@Z ; std::allocator<_LINE_STR * __ptr64>::construct<_LINE_STR * __ptr64,_LINE_STR * __ptr64 & __ptr64>
PUBLIC	?construct@?$allocator@PEAU_CAPTION_LINE@@@std@@QEAAXPEAPEAU_CAPTION_LINE@@AEBQEAU3@@Z ; std::allocator<_CAPTION_LINE * __ptr64>::construct
PUBLIC	?construct@?$allocator@PEAU_LINE_STR@@@std@@QEAAXPEAPEAU_LINE_STR@@AEBQEAU3@@Z ; std::allocator<_LINE_STR * __ptr64>::construct
PUBLIC	??$_Destroy_range@U?$_Wrap_alloc@V?$allocator@U_LANG_TAG_INFO@@@std@@@std@@@std@@YAXPEAU_LANG_TAG_INFO@@0AEAU?$_Wrap_alloc@V?$allocator@U_LANG_TAG_INFO@@@std@@@0@U_Nonscalar_ptr_iterator_tag@0@@Z ; std::_Destroy_range<std::_Wrap_alloc<std::allocator<_LANG_TAG_INFO> > >
PUBLIC	??$_Ptr_cat@U_LANG_TAG_INFO@@U1@@std@@YA?AU_Nonscalar_ptr_iterator_tag@0@PEAU_LANG_TAG_INFO@@0@Z ; std::_Ptr_cat<_LANG_TAG_INFO,_LANG_TAG_INFO>
PUBLIC	??$_Destroy_range@U?$_Wrap_alloc@V?$allocator@U_CAPTION_DATA@@@std@@@std@@@std@@YAXPEAU_CAPTION_DATA@@0AEAU?$_Wrap_alloc@V?$allocator@U_CAPTION_DATA@@@std@@@0@U_Nonscalar_ptr_iterator_tag@0@@Z ; std::_Destroy_range<std::_Wrap_alloc<std::allocator<_CAPTION_DATA> > >
PUBLIC	??$_Ptr_cat@U_CAPTION_DATA@@U1@@std@@YA?AU_Nonscalar_ptr_iterator_tag@0@PEAU_CAPTION_DATA@@0@Z ; std::_Ptr_cat<_CAPTION_DATA,_CAPTION_DATA>
PUBLIC	??$_Uninitialized_move@PEAPEAU_CAPTION_LINE@@PEAPEAU1@U?$_Wrap_alloc@V?$allocator@PEAU_CAPTION_LINE@@@std@@@std@@@std@@YAPEAPEAU_CAPTION_LINE@@PEAPEAU1@00AEAU?$_Wrap_alloc@V?$allocator@PEAU_CAPTION_LINE@@@std@@@0@@Z ; std::_Uninitialized_move<_CAPTION_LINE * __ptr64 * __ptr64,_CAPTION_LINE * __ptr64 * __ptr64,std::_Wrap_alloc<std::allocator<_CAPTION_LINE * __ptr64> > >
PUBLIC	??$_Uninitialized_move@PEAPEAU_LINE_STR@@PEAPEAU1@U?$_Wrap_alloc@V?$allocator@PEAU_LINE_STR@@@std@@@std@@@std@@YAPEAPEAU_LINE_STR@@PEAPEAU1@00AEAU?$_Wrap_alloc@V?$allocator@PEAU_LINE_STR@@@std@@@0@@Z ; std::_Uninitialized_move<_LINE_STR * __ptr64 * __ptr64,_LINE_STR * __ptr64 * __ptr64,std::_Wrap_alloc<std::allocator<_LINE_STR * __ptr64> > >
PUBLIC	??$_Destroy_range@U?$_Wrap_alloc@V?$allocator@PEAU_LINE_STR@@@std@@@std@@@std@@YAXPEAPEAU_LINE_STR@@0AEAU?$_Wrap_alloc@V?$allocator@PEAU_LINE_STR@@@std@@@0@U_Scalar_ptr_iterator_tag@0@@Z ; std::_Destroy_range<std::_Wrap_alloc<std::allocator<_LINE_STR * __ptr64> > >
PUBLIC	??$_Ptr_cat@PEAU_LINE_STR@@PEAU1@@std@@YA?AU_Scalar_ptr_iterator_tag@0@PEAPEAU_LINE_STR@@0@Z ; std::_Ptr_cat<_LINE_STR * __ptr64,_LINE_STR * __ptr64>
PUBLIC	??$_Destroy_range@U?$_Wrap_alloc@V?$allocator@PEAU_CAPTION_LINE@@@std@@@std@@@std@@YAXPEAPEAU_CAPTION_LINE@@0AEAU?$_Wrap_alloc@V?$allocator@PEAU_CAPTION_LINE@@@std@@@0@U_Scalar_ptr_iterator_tag@0@@Z ; std::_Destroy_range<std::_Wrap_alloc<std::allocator<_CAPTION_LINE * __ptr64> > >
PUBLIC	??$_Ptr_cat@PEAU_CAPTION_LINE@@PEAU1@@std@@YA?AU_Scalar_ptr_iterator_tag@0@PEAPEAU_CAPTION_LINE@@0@Z ; std::_Ptr_cat<_CAPTION_LINE * __ptr64,_CAPTION_LINE * __ptr64>
PUBLIC	??$_Destroy_range@U?$_Wrap_alloc@V?$allocator@U_CAPTION_CHAR_DATA@@@std@@@std@@@std@@YAXPEAU_CAPTION_CHAR_DATA@@0AEAU?$_Wrap_alloc@V?$allocator@U_CAPTION_CHAR_DATA@@@std@@@0@U_Nonscalar_ptr_iterator_tag@0@@Z ; std::_Destroy_range<std::_Wrap_alloc<std::allocator<_CAPTION_CHAR_DATA> > >
PUBLIC	??$destroy@PEAD@?$allocator_traits@V?$allocator@D@std@@@std@@SAXAEAV?$allocator@D@1@PEAPEAD@Z ; std::allocator_traits<std::allocator<char> >::destroy<char * __ptr64>
PUBLIC	??$construct@PEADAEAPEAD@?$allocator_traits@V?$allocator@D@std@@@std@@SAXAEAV?$allocator@D@1@PEAPEADAEAPEAD@Z ; std::allocator_traits<std::allocator<char> >::construct<char * __ptr64,char * __ptr64 & __ptr64>
PUBLIC	??$forward@AEAPEAD@std@@YAAEAPEADAEAPEAD@Z	; std::forward<char * __ptr64 & __ptr64>
PUBLIC	??$?8DD@std@@YA_NAEBV?$allocator@D@0@0@Z	; std::operator==<char,char>
PUBLIC	??$construct@PEAU_CAPTION_LINE@@AEBQEAU1@@?$allocator_traits@V?$allocator@PEAU_CAPTION_LINE@@@std@@@std@@SAXAEAV?$allocator@PEAU_CAPTION_LINE@@@1@PEAPEAU_CAPTION_LINE@@AEBQEAU3@@Z ; std::allocator_traits<std::allocator<_CAPTION_LINE * __ptr64> >::construct<_CAPTION_LINE * __ptr64,_CAPTION_LINE * __ptr64 const & __ptr64>
PUBLIC	??$forward@AEBQEAU_CAPTION_LINE@@@std@@YAAEBQEAU_CAPTION_LINE@@AEBQEAU1@@Z ; std::forward<_CAPTION_LINE * __ptr64 const & __ptr64>
PUBLIC	??$construct@PEAU_CAPTION_LINE@@AEAPEAU1@@?$allocator_traits@V?$allocator@PEAU_CAPTION_LINE@@@std@@@std@@SAXAEAV?$allocator@PEAU_CAPTION_LINE@@@1@PEAPEAU_CAPTION_LINE@@AEAPEAU3@@Z ; std::allocator_traits<std::allocator<_CAPTION_LINE * __ptr64> >::construct<_CAPTION_LINE * __ptr64,_CAPTION_LINE * __ptr64 & __ptr64>
PUBLIC	??$forward@AEAPEAU_CAPTION_LINE@@@std@@YAAEAPEAU_CAPTION_LINE@@AEAPEAU1@@Z ; std::forward<_CAPTION_LINE * __ptr64 & __ptr64>
PUBLIC	??$construct@PEAU_LINE_STR@@AEBQEAU1@@?$allocator_traits@V?$allocator@PEAU_LINE_STR@@@std@@@std@@SAXAEAV?$allocator@PEAU_LINE_STR@@@1@PEAPEAU_LINE_STR@@AEBQEAU3@@Z ; std::allocator_traits<std::allocator<_LINE_STR * __ptr64> >::construct<_LINE_STR * __ptr64,_LINE_STR * __ptr64 const & __ptr64>
PUBLIC	??$forward@AEBQEAU_LINE_STR@@@std@@YAAEBQEAU_LINE_STR@@AEBQEAU1@@Z ; std::forward<_LINE_STR * __ptr64 const & __ptr64>
PUBLIC	??$construct@PEAU_LINE_STR@@AEAPEAU1@@?$allocator_traits@V?$allocator@PEAU_LINE_STR@@@std@@@std@@SAXAEAV?$allocator@PEAU_LINE_STR@@@1@PEAPEAU_LINE_STR@@AEAPEAU3@@Z ; std::allocator_traits<std::allocator<_LINE_STR * __ptr64> >::construct<_LINE_STR * __ptr64,_LINE_STR * __ptr64 & __ptr64>
PUBLIC	??$forward@AEAPEAU_LINE_STR@@@std@@YAAEAPEAU_LINE_STR@@AEAPEAU1@@Z ; std::forward<_LINE_STR * __ptr64 & __ptr64>
PUBLIC	??$_Ptr_cat@U_CAPTION_CHAR_DATA@@U1@@std@@YA?AU_Nonscalar_ptr_iterator_tag@0@PEAU_CAPTION_CHAR_DATA@@0@Z ; std::_Ptr_cat<_CAPTION_CHAR_DATA,_CAPTION_CHAR_DATA>
PUBLIC	??$?8V?$allocator@D@std@@V01@@std@@YA_NAEBU?$_Wrap_alloc@V?$allocator@D@std@@@0@0@Z ; std::operator==<std::allocator<char>,std::allocator<char> >
PUBLIC	??D?$_String_const_iterator@V?$_String_val@U?$_Simple_types@D@std@@@std@@@std@@QEBAAEBDXZ ; std::_String_const_iterator<std::_String_val<std::_Simple_types<char> > >::operator*
PUBLIC	?replace@?$basic_string@DU?$char_traits@D@std@@V?$allocator@D@2@@std@@QEAAAEAV12@_K0AEBV12@00@Z ; std::basic_string<char,std::char_traits<char>,std::allocator<char> >::replace
PUBLIC	??8?$_String_const_iterator@V?$_String_val@U?$_Simple_types@D@std@@@std@@@std@@QEBA_NAEBV01@@Z ; std::_String_const_iterator<std::_String_val<std::_Simple_types<char> > >::operator==
PUBLIC	??G?$_String_iterator@V?$_String_val@U?$_Simple_types@D@std@@@std@@@std@@QEBA_JAEBV?$_String_const_iterator@V?$_String_val@U?$_Simple_types@D@std@@@std@@@1@@Z ; std::_String_iterator<std::_String_val<std::_Simple_types<char> > >::operator-
PUBLIC	??D?$_String_iterator@V?$_String_val@U?$_Simple_types@D@std@@@std@@@std@@QEBAAEADXZ ; std::_String_iterator<std::_String_val<std::_Simple_types<char> > >::operator*
PUBLIC	?replace@?$basic_string@DU?$char_traits@D@std@@V?$allocator@D@2@@std@@QEAAAEAV12@_K0PEBD0@Z ; std::basic_string<char,std::char_traits<char>,std::allocator<char> >::replace
PUBLIC	?replace@?$basic_string@DU?$char_traits@D@std@@V?$allocator@D@2@@std@@QEAAAEAV12@V?$_String_const_iterator@V?$_String_val@U?$_Simple_types@D@std@@@std@@@2@0V?$_String_iterator@V?$_String_val@U?$_Simple_types@D@std@@@std@@@2@1@Z ; std::basic_string<char,std::char_traits<char>,std::allocator<char> >::replace
PUBLIC	??$_Allocate@D@std@@YAPEAD_KPEAD@Z		; std::_Allocate<char>
PUBLIC	??$_Allocate@PEAU_CAPTION_LINE@@@std@@YAPEAPEAU_CAPTION_LINE@@_KPEAPEAU1@@Z ; std::_Allocate<_CAPTION_LINE * __ptr64>
PUBLIC	??$_Allocate@PEAU_LINE_STR@@@std@@YAPEAPEAU_LINE_STR@@_KPEAPEAU1@@Z ; std::_Allocate<_LINE_STR * __ptr64>
PUBLIC	??$_Destroy_range@U?$_Wrap_alloc@V?$allocator@U_LANG_TAG_INFO@@@std@@@std@@@std@@YAXPEAU_LANG_TAG_INFO@@0AEAU?$_Wrap_alloc@V?$allocator@U_LANG_TAG_INFO@@@std@@@0@@Z ; std::_Destroy_range<std::_Wrap_alloc<std::allocator<_LANG_TAG_INFO> > >
PUBLIC	??$_Destroy_range@U?$_Wrap_alloc@V?$allocator@U_CAPTION_DATA@@@std@@@std@@@std@@YAXPEAU_CAPTION_DATA@@0AEAU?$_Wrap_alloc@V?$allocator@U_CAPTION_DATA@@@std@@@0@@Z ; std::_Destroy_range<std::_Wrap_alloc<std::allocator<_CAPTION_DATA> > >
PUBLIC	??$_Umove@PEAPEAU_CAPTION_LINE@@@?$vector@PEAU_CAPTION_LINE@@V?$allocator@PEAU_CAPTION_LINE@@@std@@@std@@IEAAPEAPEAU_CAPTION_LINE@@PEAPEAU2@00@Z ; std::vector<_CAPTION_LINE * __ptr64,std::allocator<_CAPTION_LINE * __ptr64> >::_Umove<_CAPTION_LINE * __ptr64 * __ptr64>
PUBLIC	??$_Umove@PEAPEAU_LINE_STR@@@?$vector@PEAU_LINE_STR@@V?$allocator@PEAU_LINE_STR@@@std@@@std@@IEAAPEAPEAU_LINE_STR@@PEAPEAU2@00@Z ; std::vector<_LINE_STR * __ptr64,std::allocator<_LINE_STR * __ptr64> >::_Umove<_LINE_STR * __ptr64 * __ptr64>
PUBLIC	??$_Destroy_range@U?$_Wrap_alloc@V?$allocator@PEAU_LINE_STR@@@std@@@std@@@std@@YAXPEAPEAU_LINE_STR@@0AEAU?$_Wrap_alloc@V?$allocator@PEAU_LINE_STR@@@std@@@0@@Z ; std::_Destroy_range<std::_Wrap_alloc<std::allocator<_LINE_STR * __ptr64> > >
PUBLIC	??$addressof@U_CAPTION_CHAR_DATA@@@std@@YAPEAU_CAPTION_CHAR_DATA@@AEAU1@@Z ; std::addressof<_CAPTION_CHAR_DATA>
PUBLIC	??$addressof@U_CAPTION_DATA@@@std@@YAPEAU_CAPTION_DATA@@AEAU1@@Z ; std::addressof<_CAPTION_DATA>
PUBLIC	??$_Destroy_range@U?$_Wrap_alloc@V?$allocator@PEAU_CAPTION_LINE@@@std@@@std@@@std@@YAXPEAPEAU_CAPTION_LINE@@0AEAU?$_Wrap_alloc@V?$allocator@PEAU_CAPTION_LINE@@@std@@@0@@Z ; std::_Destroy_range<std::_Wrap_alloc<std::allocator<_CAPTION_LINE * __ptr64> > >
PUBLIC	??$_Destroy_range@U?$_Wrap_alloc@V?$allocator@U_CAPTION_CHAR_DATA@@@std@@@std@@@std@@YAXPEAU_CAPTION_CHAR_DATA@@0AEAU?$_Wrap_alloc@V?$allocator@U_CAPTION_CHAR_DATA@@@std@@@0@@Z ; std::_Destroy_range<std::_Wrap_alloc<std::allocator<_CAPTION_CHAR_DATA> > >
PUBLIC	??$addressof@D@std@@YAPEADAEAD@Z		; std::addressof<char>
PUBLIC	??$destroy@PEAD@?$_Wrap_alloc@V?$allocator@D@std@@@std@@QEAAXPEAPEAD@Z ; std::_Wrap_alloc<std::allocator<char> >::destroy<char * __ptr64>
PUBLIC	??$construct@PEADAEAPEAD@?$_Wrap_alloc@V?$allocator@D@std@@@std@@QEAAXPEAPEADAEAPEAD@Z ; std::_Wrap_alloc<std::allocator<char> >::construct<char * __ptr64,char * __ptr64 & __ptr64>
PUBLIC	??$construct@PEAU_CAPTION_LINE@@AEBQEAU1@@?$_Wrap_alloc@V?$allocator@PEAU_CAPTION_LINE@@@std@@@std@@QEAAXPEAPEAU_CAPTION_LINE@@AEBQEAU2@@Z ; std::_Wrap_alloc<std::allocator<_CAPTION_LINE * __ptr64> >::construct<_CAPTION_LINE * __ptr64,_CAPTION_LINE * __ptr64 const & __ptr64>
PUBLIC	??$construct@PEAU_CAPTION_LINE@@AEAPEAU1@@?$_Wrap_alloc@V?$allocator@PEAU_CAPTION_LINE@@@std@@@std@@QEAAXPEAPEAU_CAPTION_LINE@@AEAPEAU2@@Z ; std::_Wrap_alloc<std::allocator<_CAPTION_LINE * __ptr64> >::construct<_CAPTION_LINE * __ptr64,_CAPTION_LINE * __ptr64 & __ptr64>
PUBLIC	??$addressof@QEAU_CAPTION_LINE@@@std@@YAPEBQEAU_CAPTION_LINE@@AEBQEAU1@@Z ; std::addressof<_CAPTION_LINE * __ptr64 const>
PUBLIC	??$construct@PEAU_LINE_STR@@AEBQEAU1@@?$_Wrap_alloc@V?$allocator@PEAU_LINE_STR@@@std@@@std@@QEAAXPEAPEAU_LINE_STR@@AEBQEAU2@@Z ; std::_Wrap_alloc<std::allocator<_LINE_STR * __ptr64> >::construct<_LINE_STR * __ptr64,_LINE_STR * __ptr64 const & __ptr64>
PUBLIC	??$construct@PEAU_LINE_STR@@AEAPEAU1@@?$_Wrap_alloc@V?$allocator@PEAU_LINE_STR@@@std@@@std@@QEAAXPEAPEAU_LINE_STR@@AEAPEAU2@@Z ; std::_Wrap_alloc<std::allocator<_LINE_STR * __ptr64> >::construct<_LINE_STR * __ptr64,_LINE_STR * __ptr64 & __ptr64>
PUBLIC	??$addressof@QEAU_LINE_STR@@@std@@YAPEBQEAU_LINE_STR@@AEBQEAU1@@Z ; std::addressof<_LINE_STR * __ptr64 const>
PUBLIC	??$assign@V?$_String_iterator@V?$_String_val@U?$_Simple_types@D@std@@@std@@@std@@@?$basic_string@DU?$char_traits@D@std@@V?$allocator@D@2@@std@@QEAAAEAV01@V?$_String_iterator@V?$_String_val@U?$_Simple_types@D@std@@@std@@@1@0@Z ; std::basic_string<char,std::char_traits<char>,std::allocator<char> >::assign<std::_String_iterator<std::_String_val<std::_Simple_types<char> > > >
PUBLIC	??$?9V?$allocator@D@std@@V01@@std@@YA_NAEBU?$_Wrap_alloc@V?$allocator@D@std@@@0@0@Z ; std::operator!=<std::allocator<char>,std::allocator<char> >
PUBLIC	??$forward@V?$basic_string@DU?$char_traits@D@std@@V?$allocator@D@2@@std@@@std@@YA$$QEAV?$basic_string@DU?$char_traits@D@std@@V?$allocator@D@2@@0@AEAV10@@Z ; std::forward<std::basic_string<char,std::char_traits<char>,std::allocator<char> > >
PUBLIC	?_Compat@?$_String_const_iterator@V?$_String_val@U?$_Simple_types@D@std@@@std@@@std@@QEBAXAEBV12@@Z ; std::_String_const_iterator<std::_String_val<std::_Simple_types<char> > >::_Compat
PUBLIC	??G?$_String_const_iterator@V?$_String_val@U?$_Simple_types@D@std@@@std@@@std@@QEBA_JAEBV01@@Z ; std::_String_const_iterator<std::_String_val<std::_Simple_types<char> > >::operator-
PUBLIC	?max_size@?$allocator@D@std@@QEBA_KXZ		; std::allocator<char>::max_size
PUBLIC	?max_size@?$allocator@PEAU_CAPTION_LINE@@@std@@QEBA_KXZ ; std::allocator<_CAPTION_LINE * __ptr64>::max_size
PUBLIC	?max_size@?$allocator@PEAU_LINE_STR@@@std@@QEBA_KXZ ; std::allocator<_LINE_STR * __ptr64>::max_size
PUBLIC	?max_size@?$allocator_traits@V?$allocator@D@std@@@std@@SA_KAEBV?$allocator@D@2@@Z ; std::allocator_traits<std::allocator<char> >::max_size
PUBLIC	?allocate@?$allocator@D@std@@QEAAPEAD_K@Z	; std::allocator<char>::allocate
PUBLIC	?_Pdif@?$basic_string@DU?$char_traits@D@std@@V?$allocator@D@2@@std@@SA_KV?$_String_const_iterator@V?$_String_val@U?$_Simple_types@D@std@@@std@@@2@0@Z ; std::basic_string<char,std::char_traits<char>,std::allocator<char> >::_Pdif
PUBLIC	?max_size@?$allocator_traits@V?$allocator@PEAU_CAPTION_LINE@@@std@@@std@@SA_KAEBV?$allocator@PEAU_CAPTION_LINE@@@2@@Z ; std::allocator_traits<std::allocator<_CAPTION_LINE * __ptr64> >::max_size
PUBLIC	?allocate@?$allocator@PEAU_CAPTION_LINE@@@std@@QEAAPEAPEAU_CAPTION_LINE@@_K@Z ; std::allocator<_CAPTION_LINE * __ptr64>::allocate
PUBLIC	?max_size@?$allocator_traits@V?$allocator@PEAU_LINE_STR@@@std@@@std@@SA_KAEBV?$allocator@PEAU_LINE_STR@@@2@@Z ; std::allocator_traits<std::allocator<_LINE_STR * __ptr64> >::max_size
PUBLIC	?allocate@?$allocator@PEAU_LINE_STR@@@std@@QEAAPEAPEAU_LINE_STR@@_K@Z ; std::allocator<_LINE_STR * __ptr64>::allocate
PUBLIC	?max_size@?$_Wrap_alloc@V?$allocator@D@std@@@std@@QEBA_KXZ ; std::_Wrap_alloc<std::allocator<char> >::max_size
PUBLIC	?allocate@?$_Wrap_alloc@V?$allocator@D@std@@@std@@QEAAPEAD_K@Z ; std::_Wrap_alloc<std::allocator<char> >::allocate
PUBLIC	??0?$_String_const_iterator@V?$_String_val@U?$_Simple_types@D@std@@@std@@@std@@QEAA@PEBDPEBU_Container_base0@1@@Z ; std::_String_const_iterator<std::_String_val<std::_Simple_types<char> > >::_String_const_iterator<std::_String_val<std::_Simple_types<char> > >
PUBLIC	??0?$_Wrap_alloc@V?$allocator@U_LANG_TAG_INFO@@@std@@@std@@QEAA@XZ ; std::_Wrap_alloc<std::allocator<_LANG_TAG_INFO> >::_Wrap_alloc<std::allocator<_LANG_TAG_INFO> >
PUBLIC	?deallocate@?$allocator@U_LANG_TAG_INFO@@@std@@QEAAXPEAU_LANG_TAG_INFO@@_K@Z ; std::allocator<_LANG_TAG_INFO>::deallocate
PUBLIC	??0?$_Wrap_alloc@V?$allocator@U_CAPTION_DATA@@@std@@@std@@QEAA@XZ ; std::_Wrap_alloc<std::allocator<_CAPTION_DATA> >::_Wrap_alloc<std::allocator<_CAPTION_DATA> >
PUBLIC	?deallocate@?$allocator@U_CAPTION_DATA@@@std@@QEAAXPEAU_CAPTION_DATA@@_K@Z ; std::allocator<_CAPTION_DATA>::deallocate
PUBLIC	?max_size@?$_Wrap_alloc@V?$allocator@PEAU_CAPTION_LINE@@@std@@@std@@QEBA_KXZ ; std::_Wrap_alloc<std::allocator<_CAPTION_LINE * __ptr64> >::max_size
PUBLIC	?allocate@?$_Wrap_alloc@V?$allocator@PEAU_CAPTION_LINE@@@std@@@std@@QEAAPEAPEAU_CAPTION_LINE@@_K@Z ; std::_Wrap_alloc<std::allocator<_CAPTION_LINE * __ptr64> >::allocate
PUBLIC	?deallocate@?$allocator@PEAU_CAPTION_LINE@@@std@@QEAAXPEAPEAU_CAPTION_LINE@@_K@Z ; std::allocator<_CAPTION_LINE * __ptr64>::deallocate
PUBLIC	?capacity@?$vector@PEAU_CAPTION_LINE@@V?$allocator@PEAU_CAPTION_LINE@@@std@@@std@@QEBA_KXZ ; std::vector<_CAPTION_LINE * __ptr64,std::allocator<_CAPTION_LINE * __ptr64> >::capacity
PUBLIC	?max_size@?$_Wrap_alloc@V?$allocator@PEAU_LINE_STR@@@std@@@std@@QEBA_KXZ ; std::_Wrap_alloc<std::allocator<_LINE_STR * __ptr64> >::max_size
PUBLIC	?allocate@?$_Wrap_alloc@V?$allocator@PEAU_LINE_STR@@@std@@@std@@QEAAPEAPEAU_LINE_STR@@_K@Z ; std::_Wrap_alloc<std::allocator<_LINE_STR * __ptr64> >::allocate
PUBLIC	?deallocate@?$allocator@PEAU_LINE_STR@@@std@@QEAAXPEAPEAU_LINE_STR@@_K@Z ; std::allocator<_LINE_STR * __ptr64>::deallocate
PUBLIC	?capacity@?$vector@PEAU_LINE_STR@@V?$allocator@PEAU_LINE_STR@@@std@@@std@@QEBA_KXZ ; std::vector<_LINE_STR * __ptr64,std::allocator<_LINE_STR * __ptr64> >::capacity
PUBLIC	??0?$allocator@U_CAPTION_CHAR_DATA@@@std@@QEAA@XZ ; std::allocator<_CAPTION_CHAR_DATA>::allocator<_CAPTION_CHAR_DATA>
PUBLIC	?deallocate@?$allocator@D@std@@QEAAXPEAD_K@Z	; std::allocator<char>::deallocate
PUBLIC	??0?$allocator@D@std@@QEAA@AEBV01@@Z		; std::allocator<char>::allocator<char>
PUBLIC	?select_on_container_copy_construction@?$allocator@D@std@@QEBA?AV12@XZ ; std::allocator<char>::select_on_container_copy_construction
PUBLIC	?_Xlen@?$basic_string@DU?$char_traits@D@std@@V?$allocator@D@2@@std@@QEBAXXZ ; std::basic_string<char,std::char_traits<char>,std::allocator<char> >::_Xlen
PUBLIC	?_Inside@?$basic_string@DU?$char_traits@D@std@@V?$allocator@D@2@@std@@QEAA_NPEBD@Z ; std::basic_string<char,std::char_traits<char>,std::allocator<char> >::_Inside
PUBLIC	?_Copy@?$basic_string@DU?$char_traits@D@std@@V?$allocator@D@2@@std@@QEAAX_K0@Z ; std::basic_string<char,std::char_traits<char>,std::allocator<char> >::_Copy
PUBLIC	?max_size@?$basic_string@DU?$char_traits@D@std@@V?$allocator@D@2@@std@@QEBA_KXZ ; std::basic_string<char,std::char_traits<char>,std::allocator<char> >::max_size
PUBLIC	??0?$_String_iterator@V?$_String_val@U?$_Simple_types@D@std@@@std@@@std@@QEAA@PEADPEBU_Container_base0@1@@Z ; std::_String_iterator<std::_String_val<std::_Simple_types<char> > >::_String_iterator<std::_String_val<std::_Simple_types<char> > >
PUBLIC	??0?$_Vector_val@U?$_Simple_types@U_LANG_TAG_INFO@@@std@@@std@@QEAA@XZ ; std::_Vector_val<std::_Simple_types<_LANG_TAG_INFO> >::_Vector_val<std::_Simple_types<_LANG_TAG_INFO> >
PUBLIC	?deallocate@?$_Wrap_alloc@V?$allocator@U_LANG_TAG_INFO@@@std@@@std@@QEAAXPEAU_LANG_TAG_INFO@@_K@Z ; std::_Wrap_alloc<std::allocator<_LANG_TAG_INFO> >::deallocate
PUBLIC	?_Getal@?$_Vector_alloc@$0A@U?$_Vec_base_types@U_LANG_TAG_INFO@@V?$allocator@U_LANG_TAG_INFO@@@std@@@std@@@std@@QEBA?AU?$_Wrap_alloc@V?$allocator@U_LANG_TAG_INFO@@@std@@@2@XZ ; std::_Vector_alloc<0,std::_Vec_base_types<_LANG_TAG_INFO,std::allocator<_LANG_TAG_INFO> > >::_Getal
PUBLIC	?_Destroy@?$vector@U_LANG_TAG_INFO@@V?$allocator@U_LANG_TAG_INFO@@@std@@@std@@IEAAXPEAU_LANG_TAG_INFO@@0@Z ; std::vector<_LANG_TAG_INFO,std::allocator<_LANG_TAG_INFO> >::_Destroy
PUBLIC	?_Compat@?$_Vector_const_iterator@V?$_Vector_val@U?$_Simple_types@U_CAPTION_CHAR_DATA@@@std@@@std@@@std@@QEBAXAEBV12@@Z ; std::_Vector_const_iterator<std::_Vector_val<std::_Simple_types<_CAPTION_CHAR_DATA> > >::_Compat
PUBLIC	??E?$_Vector_const_iterator@V?$_Vector_val@U?$_Simple_types@U_CAPTION_CHAR_DATA@@@std@@@std@@@std@@QEAAAEAV01@XZ ; std::_Vector_const_iterator<std::_Vector_val<std::_Simple_types<_CAPTION_CHAR_DATA> > >::operator++
PUBLIC	??D?$_Vector_const_iterator@V?$_Vector_val@U?$_Simple_types@U_CAPTION_CHAR_DATA@@@std@@@std@@@std@@QEBAAEBU_CAPTION_CHAR_DATA@@XZ ; std::_Vector_const_iterator<std::_Vector_val<std::_Simple_types<_CAPTION_CHAR_DATA> > >::operator*
PUBLIC	??0?$_Vector_const_iterator@V?$_Vector_val@U?$_Simple_types@U_CAPTION_CHAR_DATA@@@std@@@std@@@std@@QEAA@PEAU_CAPTION_CHAR_DATA@@PEBU_Container_base0@1@@Z ; std::_Vector_const_iterator<std::_Vector_val<std::_Simple_types<_CAPTION_CHAR_DATA> > >::_Vector_const_iterator<std::_Vector_val<std::_Simple_types<_CAPTION_CHAR_DATA> > >
PUBLIC	?_Compat@?$_Vector_const_iterator@V?$_Vector_val@U?$_Simple_types@U_CAPTION_DATA@@@std@@@std@@@std@@QEBAXAEBV12@@Z ; std::_Vector_const_iterator<std::_Vector_val<std::_Simple_types<_CAPTION_DATA> > >::_Compat
PUBLIC	??E?$_Vector_const_iterator@V?$_Vector_val@U?$_Simple_types@U_CAPTION_DATA@@@std@@@std@@@std@@QEAAAEAV01@XZ ; std::_Vector_const_iterator<std::_Vector_val<std::_Simple_types<_CAPTION_DATA> > >::operator++
PUBLIC	??D?$_Vector_const_iterator@V?$_Vector_val@U?$_Simple_types@U_CAPTION_DATA@@@std@@@std@@@std@@QEBAAEBU_CAPTION_DATA@@XZ ; std::_Vector_const_iterator<std::_Vector_val<std::_Simple_types<_CAPTION_DATA> > >::operator*
PUBLIC	??0?$_Vector_const_iterator@V?$_Vector_val@U?$_Simple_types@U_CAPTION_DATA@@@std@@@std@@@std@@QEAA@PEAU_CAPTION_DATA@@PEBU_Container_base0@1@@Z ; std::_Vector_const_iterator<std::_Vector_val<std::_Simple_types<_CAPTION_DATA> > >::_Vector_const_iterator<std::_Vector_val<std::_Simple_types<_CAPTION_DATA> > >
PUBLIC	??0?$_Vector_val@U?$_Simple_types@U_CAPTION_DATA@@@std@@@std@@QEAA@XZ ; std::_Vector_val<std::_Simple_types<_CAPTION_DATA> >::_Vector_val<std::_Simple_types<_CAPTION_DATA> >
PUBLIC	?deallocate@?$_Wrap_alloc@V?$allocator@U_CAPTION_DATA@@@std@@@std@@QEAAXPEAU_CAPTION_DATA@@_K@Z ; std::_Wrap_alloc<std::allocator<_CAPTION_DATA> >::deallocate
PUBLIC	?_Getal@?$_Vector_alloc@$0A@U?$_Vec_base_types@U_CAPTION_DATA@@V?$allocator@U_CAPTION_DATA@@@std@@@std@@@std@@QEBA?AU?$_Wrap_alloc@V?$allocator@U_CAPTION_DATA@@@std@@@2@XZ ; std::_Vector_alloc<0,std::_Vec_base_types<_CAPTION_DATA,std::allocator<_CAPTION_DATA> > >::_Getal
PUBLIC	?_Destroy@?$vector@U_CAPTION_DATA@@V?$allocator@U_CAPTION_DATA@@@std@@@std@@IEAAXPEAU_CAPTION_DATA@@0@Z ; std::vector<_CAPTION_DATA,std::allocator<_CAPTION_DATA> >::_Destroy
PUBLIC	??0?$_Vector_const_iterator@V?$_Vector_val@U?$_Simple_types@PEAU_LINE_STR@@@std@@@std@@@std@@QEAA@PEAPEAU_LINE_STR@@PEBU_Container_base0@1@@Z ; std::_Vector_const_iterator<std::_Vector_val<std::_Simple_types<_LINE_STR * __ptr64> > >::_Vector_const_iterator<std::_Vector_val<std::_Simple_types<_LINE_STR * __ptr64> > >
PUBLIC	?_Compat@?$_Vector_const_iterator@V?$_Vector_val@U?$_Simple_types@PEAU_CAPTION_LINE@@@std@@@std@@@std@@QEBAXAEBV12@@Z ; std::_Vector_const_iterator<std::_Vector_val<std::_Simple_types<_CAPTION_LINE * __ptr64> > >::_Compat
PUBLIC	??0?$_Vector_const_iterator@V?$_Vector_val@U?$_Simple_types@PEAU_CAPTION_LINE@@@std@@@std@@@std@@QEAA@PEAPEAU_CAPTION_LINE@@PEBU_Container_base0@1@@Z ; std::_Vector_const_iterator<std::_Vector_val<std::_Simple_types<_CAPTION_LINE * __ptr64> > >::_Vector_const_iterator<std::_Vector_val<std::_Simple_types<_CAPTION_LINE * __ptr64> > >
PUBLIC	??0?$_Vector_val@U?$_Simple_types@PEAU_CAPTION_LINE@@@std@@@std@@QEAA@XZ ; std::_Vector_val<std::_Simple_types<_CAPTION_LINE * __ptr64> >::_Vector_val<std::_Simple_types<_CAPTION_LINE * __ptr64> >
PUBLIC	?deallocate@?$_Wrap_alloc@V?$allocator@PEAU_CAPTION_LINE@@@std@@@std@@QEAAXPEAPEAU_CAPTION_LINE@@_K@Z ; std::_Wrap_alloc<std::allocator<_CAPTION_LINE * __ptr64> >::deallocate
PUBLIC	??0?$_Wrap_alloc@V?$allocator@PEAU_CAPTION_LINE@@@std@@@std@@QEAA@XZ ; std::_Wrap_alloc<std::allocator<_CAPTION_LINE * __ptr64> >::_Wrap_alloc<std::allocator<_CAPTION_LINE * __ptr64> >
PUBLIC	?_Xlen@?$vector@PEAU_CAPTION_LINE@@V?$allocator@PEAU_CAPTION_LINE@@@std@@@std@@IEBAXXZ ; std::vector<_CAPTION_LINE * __ptr64,std::allocator<_CAPTION_LINE * __ptr64> >::_Xlen
PUBLIC	?_Reallocate@?$vector@PEAU_CAPTION_LINE@@V?$allocator@PEAU_CAPTION_LINE@@@std@@@std@@IEAAX_K@Z ; std::vector<_CAPTION_LINE * __ptr64,std::allocator<_CAPTION_LINE * __ptr64> >::_Reallocate
PUBLIC	?_Grow_to@?$vector@PEAU_CAPTION_LINE@@V?$allocator@PEAU_CAPTION_LINE@@@std@@@std@@IEBA_K_K@Z ; std::vector<_CAPTION_LINE * __ptr64,std::allocator<_CAPTION_LINE * __ptr64> >::_Grow_to
PUBLIC	?max_size@?$vector@PEAU_CAPTION_LINE@@V?$allocator@PEAU_CAPTION_LINE@@@std@@@std@@QEBA_KXZ ; std::vector<_CAPTION_LINE * __ptr64,std::allocator<_CAPTION_LINE * __ptr64> >::max_size
PUBLIC	?_Unused_capacity@?$vector@PEAU_CAPTION_LINE@@V?$allocator@PEAU_CAPTION_LINE@@@std@@@std@@QEBA_KXZ ; std::vector<_CAPTION_LINE * __ptr64,std::allocator<_CAPTION_LINE * __ptr64> >::_Unused_capacity
PUBLIC	??0?$_Vector_val@U?$_Simple_types@PEAU_LINE_STR@@@std@@@std@@QEAA@XZ ; std::_Vector_val<std::_Simple_types<_LINE_STR * __ptr64> >::_Vector_val<std::_Simple_types<_LINE_STR * __ptr64> >
PUBLIC	?deallocate@?$_Wrap_alloc@V?$allocator@PEAU_LINE_STR@@@std@@@std@@QEAAXPEAPEAU_LINE_STR@@_K@Z ; std::_Wrap_alloc<std::allocator<_LINE_STR * __ptr64> >::deallocate
PUBLIC	??0?$_Wrap_alloc@V?$allocator@PEAU_LINE_STR@@@std@@@std@@QEAA@XZ ; std::_Wrap_alloc<std::allocator<_LINE_STR * __ptr64> >::_Wrap_alloc<std::allocator<_LINE_STR * __ptr64> >
PUBLIC	?_Xlen@?$vector@PEAU_LINE_STR@@V?$allocator@PEAU_LINE_STR@@@std@@@std@@IEBAXXZ ; std::vector<_LINE_STR * __ptr64,std::allocator<_LINE_STR * __ptr64> >::_Xlen
PUBLIC	?_Reallocate@?$vector@PEAU_LINE_STR@@V?$allocator@PEAU_LINE_STR@@@std@@@std@@IEAAX_K@Z ; std::vector<_LINE_STR * __ptr64,std::allocator<_LINE_STR * __ptr64> >::_Reallocate
PUBLIC	?_Grow_to@?$vector@PEAU_LINE_STR@@V?$allocator@PEAU_LINE_STR@@@std@@@std@@IEBA_K_K@Z ; std::vector<_LINE_STR * __ptr64,std::allocator<_LINE_STR * __ptr64> >::_Grow_to
PUBLIC	?_Destroy@?$vector@PEAU_LINE_STR@@V?$allocator@PEAU_LINE_STR@@@std@@@std@@IEAAXPEAPEAU_LINE_STR@@0@Z ; std::vector<_LINE_STR * __ptr64,std::allocator<_LINE_STR * __ptr64> >::_Destroy
PUBLIC	?max_size@?$vector@PEAU_LINE_STR@@V?$allocator@PEAU_LINE_STR@@@std@@@std@@QEBA_KXZ ; std::vector<_LINE_STR * __ptr64,std::allocator<_LINE_STR * __ptr64> >::max_size
PUBLIC	?size@?$vector@PEAU_LINE_STR@@V?$allocator@PEAU_LINE_STR@@@std@@@std@@QEBA_KXZ ; std::vector<_LINE_STR * __ptr64,std::allocator<_LINE_STR * __ptr64> >::size
PUBLIC	?_Unused_capacity@?$vector@PEAU_LINE_STR@@V?$allocator@PEAU_LINE_STR@@@std@@@std@@QEBA_KXZ ; std::vector<_LINE_STR * __ptr64,std::allocator<_LINE_STR * __ptr64> >::_Unused_capacity
PUBLIC	??0?$_Wrap_alloc@V?$allocator@U_CAPTION_CHAR_DATA@@@std@@@std@@QEAA@XZ ; std::_Wrap_alloc<std::allocator<_CAPTION_CHAR_DATA> >::_Wrap_alloc<std::allocator<_CAPTION_CHAR_DATA> >
PUBLIC	?deallocate@?$allocator@U_CAPTION_CHAR_DATA@@@std@@QEAAXPEAU_CAPTION_CHAR_DATA@@_K@Z ; std::allocator<_CAPTION_CHAR_DATA>::deallocate
PUBLIC	?_Myptr@?$_String_val@U?$_Simple_types@D@std@@@std@@QEAAPEADXZ ; std::_String_val<std::_Simple_types<char> >::_Myptr
PUBLIC	??0?$_String_val@U?$_Simple_types@D@std@@@std@@QEAA@XZ ; std::_String_val<std::_Simple_types<char> >::_String_val<std::_Simple_types<char> >
PUBLIC	?select_on_container_copy_construction@?$allocator_traits@V?$allocator@D@std@@@std@@SA?AV?$allocator@D@2@AEBV32@@Z ; std::allocator_traits<std::allocator<char> >::select_on_container_copy_construction
PUBLIC	?deallocate@?$_Wrap_alloc@V?$allocator@D@std@@@std@@QEAAXPEAD_K@Z ; std::_Wrap_alloc<std::allocator<char> >::deallocate
PUBLIC	??0?$_Wrap_alloc@V?$allocator@D@std@@@std@@QEAA@AEBV?$allocator@D@1@@Z ; std::_Wrap_alloc<std::allocator<char> >::_Wrap_alloc<std::allocator<char> >
PUBLIC	??0?$_Wrap_alloc@V?$allocator@D@std@@@std@@QEAA@XZ ; std::_Wrap_alloc<std::allocator<char> >::_Wrap_alloc<std::allocator<char> >
PUBLIC	?_Xran@?$basic_string@DU?$char_traits@D@std@@V?$allocator@D@2@@std@@QEBAXXZ ; std::basic_string<char,std::char_traits<char>,std::allocator<char> >::_Xran
PUBLIC	?_Grow@?$basic_string@DU?$char_traits@D@std@@V?$allocator@D@2@@std@@QEAA_N_K_N@Z ; std::basic_string<char,std::char_traits<char>,std::allocator<char> >::_Grow
PUBLIC	?_Eos@?$basic_string@DU?$char_traits@D@std@@V?$allocator@D@2@@std@@QEAAX_K@Z ; std::basic_string<char,std::char_traits<char>,std::allocator<char> >::_Eos
PUBLIC	?erase@?$basic_string@DU?$char_traits@D@std@@V?$allocator@D@2@@std@@QEAAAEAV12@_K0@Z ; std::basic_string<char,std::char_traits<char>,std::allocator<char> >::erase
PUBLIC	?erase@?$basic_string@DU?$char_traits@D@std@@V?$allocator@D@2@@std@@QEAAAEAV12@_K@Z ; std::basic_string<char,std::char_traits<char>,std::allocator<char> >::erase
PUBLIC	?assign@?$basic_string@DU?$char_traits@D@std@@V?$allocator@D@2@@std@@QEAAAEAV12@PEBD_K@Z ; std::basic_string<char,std::char_traits<char>,std::allocator<char> >::assign
PUBLIC	?pointer_to@?$pointer_traits@PEAU_CAPTION_CHAR_DATA@@@std@@SAPEAU_CAPTION_CHAR_DATA@@AEAU3@@Z ; std::pointer_traits<_CAPTION_CHAR_DATA * __ptr64>::pointer_to
PUBLIC	?pointer_to@?$pointer_traits@PEAU_CAPTION_DATA@@@std@@SAPEAU_CAPTION_DATA@@AEAU3@@Z ; std::pointer_traits<_CAPTION_DATA * __ptr64>::pointer_to
PUBLIC	??0?$_Vector_alloc@$0A@U?$_Vec_base_types@U_LANG_TAG_INFO@@V?$allocator@U_LANG_TAG_INFO@@@std@@@std@@@std@@QEAA@AEBV?$allocator@U_LANG_TAG_INFO@@@1@@Z ; std::_Vector_alloc<0,std::_Vec_base_types<_LANG_TAG_INFO,std::allocator<_LANG_TAG_INFO> > >::_Vector_alloc<0,std::_Vec_base_types<_LANG_TAG_INFO,std::allocator<_LANG_TAG_INFO> > >
PUBLIC	??0?$allocator@U_LANG_TAG_INFO@@@std@@QEAA@XZ	; std::allocator<_LANG_TAG_INFO>::allocator<_LANG_TAG_INFO>
PUBLIC	?_Tidy@?$vector@U_LANG_TAG_INFO@@V?$allocator@U_LANG_TAG_INFO@@@std@@@std@@IEAAXXZ ; std::vector<_LANG_TAG_INFO,std::allocator<_LANG_TAG_INFO> >::_Tidy
PUBLIC	??8?$_Vector_const_iterator@V?$_Vector_val@U?$_Simple_types@U_CAPTION_CHAR_DATA@@@std@@@std@@@std@@QEBA_NAEBV01@@Z ; std::_Vector_const_iterator<std::_Vector_val<std::_Simple_types<_CAPTION_CHAR_DATA> > >::operator==
PUBLIC	??E?$_Vector_iterator@V?$_Vector_val@U?$_Simple_types@U_CAPTION_CHAR_DATA@@@std@@@std@@@std@@QEAAAEAV01@XZ ; std::_Vector_iterator<std::_Vector_val<std::_Simple_types<_CAPTION_CHAR_DATA> > >::operator++
PUBLIC	??D?$_Vector_iterator@V?$_Vector_val@U?$_Simple_types@U_CAPTION_CHAR_DATA@@@std@@@std@@@std@@QEBAAEAU_CAPTION_CHAR_DATA@@XZ ; std::_Vector_iterator<std::_Vector_val<std::_Simple_types<_CAPTION_CHAR_DATA> > >::operator*
PUBLIC	??0?$_Vector_iterator@V?$_Vector_val@U?$_Simple_types@U_CAPTION_CHAR_DATA@@@std@@@std@@@std@@QEAA@PEAU_CAPTION_CHAR_DATA@@PEBU_Container_base0@1@@Z ; std::_Vector_iterator<std::_Vector_val<std::_Simple_types<_CAPTION_CHAR_DATA> > >::_Vector_iterator<std::_Vector_val<std::_Simple_types<_CAPTION_CHAR_DATA> > >
PUBLIC	??8?$_Vector_const_iterator@V?$_Vector_val@U?$_Simple_types@U_CAPTION_DATA@@@std@@@std@@@std@@QEBA_NAEBV01@@Z ; std::_Vector_const_iterator<std::_Vector_val<std::_Simple_types<_CAPTION_DATA> > >::operator==
PUBLIC	??E?$_Vector_iterator@V?$_Vector_val@U?$_Simple_types@U_CAPTION_DATA@@@std@@@std@@@std@@QEAAAEAV01@XZ ; std::_Vector_iterator<std::_Vector_val<std::_Simple_types<_CAPTION_DATA> > >::operator++
PUBLIC	??D?$_Vector_iterator@V?$_Vector_val@U?$_Simple_types@U_CAPTION_DATA@@@std@@@std@@@std@@QEBAAEAU_CAPTION_DATA@@XZ ; std::_Vector_iterator<std::_Vector_val<std::_Simple_types<_CAPTION_DATA> > >::operator*
PUBLIC	??0?$_Vector_iterator@V?$_Vector_val@U?$_Simple_types@U_CAPTION_DATA@@@std@@@std@@@std@@QEAA@PEAU_CAPTION_DATA@@PEBU_Container_base0@1@@Z ; std::_Vector_iterator<std::_Vector_val<std::_Simple_types<_CAPTION_DATA> > >::_Vector_iterator<std::_Vector_val<std::_Simple_types<_CAPTION_DATA> > >
PUBLIC	??0?$_Vector_alloc@$0A@U?$_Vec_base_types@U_CAPTION_DATA@@V?$allocator@U_CAPTION_DATA@@@std@@@std@@@std@@QEAA@AEBV?$allocator@U_CAPTION_DATA@@@1@@Z ; std::_Vector_alloc<0,std::_Vec_base_types<_CAPTION_DATA,std::allocator<_CAPTION_DATA> > >::_Vector_alloc<0,std::_Vec_base_types<_CAPTION_DATA,std::allocator<_CAPTION_DATA> > >
PUBLIC	??0?$allocator@U_CAPTION_DATA@@@std@@QEAA@XZ	; std::allocator<_CAPTION_DATA>::allocator<_CAPTION_DATA>
PUBLIC	?_Tidy@?$vector@U_CAPTION_DATA@@V?$allocator@U_CAPTION_DATA@@@std@@@std@@IEAAXXZ ; std::vector<_CAPTION_DATA,std::allocator<_CAPTION_DATA> >::_Tidy
PUBLIC	?_Compat@?$_Vector_const_iterator@V?$_Vector_val@U?$_Simple_types@PEAU_LINE_STR@@@std@@@std@@@std@@QEBAXAEBV12@@Z ; std::_Vector_const_iterator<std::_Vector_val<std::_Simple_types<_LINE_STR * __ptr64> > >::_Compat
PUBLIC	??E?$_Vector_const_iterator@V?$_Vector_val@U?$_Simple_types@PEAU_LINE_STR@@@std@@@std@@@std@@QEAAAEAV01@XZ ; std::_Vector_const_iterator<std::_Vector_val<std::_Simple_types<_LINE_STR * __ptr64> > >::operator++
PUBLIC	??D?$_Vector_const_iterator@V?$_Vector_val@U?$_Simple_types@PEAU_LINE_STR@@@std@@@std@@@std@@QEBAAEBQEAU_LINE_STR@@XZ ; std::_Vector_const_iterator<std::_Vector_val<std::_Simple_types<_LINE_STR * __ptr64> > >::operator*
PUBLIC	??0?$_Vector_iterator@V?$_Vector_val@U?$_Simple_types@PEAU_LINE_STR@@@std@@@std@@@std@@QEAA@PEAPEAU_LINE_STR@@PEBU_Container_base0@1@@Z ; std::_Vector_iterator<std::_Vector_val<std::_Simple_types<_LINE_STR * __ptr64> > >::_Vector_iterator<std::_Vector_val<std::_Simple_types<_LINE_STR * __ptr64> > >
PUBLIC	??8?$_Vector_const_iterator@V?$_Vector_val@U?$_Simple_types@PEAU_CAPTION_LINE@@@std@@@std@@@std@@QEBA_NAEBV01@@Z ; std::_Vector_const_iterator<std::_Vector_val<std::_Simple_types<_CAPTION_LINE * __ptr64> > >::operator==
PUBLIC	??E?$_Vector_const_iterator@V?$_Vector_val@U?$_Simple_types@PEAU_CAPTION_LINE@@@std@@@std@@@std@@QEAAAEAV01@XZ ; std::_Vector_const_iterator<std::_Vector_val<std::_Simple_types<_CAPTION_LINE * __ptr64> > >::operator++
PUBLIC	??D?$_Vector_const_iterator@V?$_Vector_val@U?$_Simple_types@PEAU_CAPTION_LINE@@@std@@@std@@@std@@QEBAAEBQEAU_CAPTION_LINE@@XZ ; std::_Vector_const_iterator<std::_Vector_val<std::_Simple_types<_CAPTION_LINE * __ptr64> > >::operator*
PUBLIC	??0?$_Vector_iterator@V?$_Vector_val@U?$_Simple_types@PEAU_CAPTION_LINE@@@std@@@std@@@std@@QEAA@PEAPEAU_CAPTION_LINE@@PEBU_Container_base0@1@@Z ; std::_Vector_iterator<std::_Vector_val<std::_Simple_types<_CAPTION_LINE * __ptr64> > >::_Vector_iterator<std::_Vector_val<std::_Simple_types<_CAPTION_LINE * __ptr64> > >
PUBLIC	?_Getal@?$_Vector_alloc@$0A@U?$_Vec_base_types@PEAU_CAPTION_LINE@@V?$allocator@PEAU_CAPTION_LINE@@@std@@@std@@@std@@QEBA?AU?$_Wrap_alloc@V?$allocator@PEAU_CAPTION_LINE@@@std@@@2@XZ ; std::_Vector_alloc<0,std::_Vec_base_types<_CAPTION_LINE * __ptr64,std::allocator<_CAPTION_LINE * __ptr64> > >::_Getal
PUBLIC	??0?$_Vector_alloc@$0A@U?$_Vec_base_types@PEAU_CAPTION_LINE@@V?$allocator@PEAU_CAPTION_LINE@@@std@@@std@@@std@@QEAA@AEBV?$allocator@PEAU_CAPTION_LINE@@@1@@Z ; std::_Vector_alloc<0,std::_Vec_base_types<_CAPTION_LINE * __ptr64,std::allocator<_CAPTION_LINE * __ptr64> > >::_Vector_alloc<0,std::_Vec_base_types<_CAPTION_LINE * __ptr64,std::allocator<_CAPTION_LINE * __ptr64> > >
PUBLIC	??0?$allocator@PEAU_CAPTION_LINE@@@std@@QEAA@XZ	; std::allocator<_CAPTION_LINE * __ptr64>::allocator<_CAPTION_LINE * __ptr64>
PUBLIC	?_Orphan_range@?$vector@PEAU_CAPTION_LINE@@V?$allocator@PEAU_CAPTION_LINE@@@std@@@std@@IEBAXPEAPEAU_CAPTION_LINE@@0@Z ; std::vector<_CAPTION_LINE * __ptr64,std::allocator<_CAPTION_LINE * __ptr64> >::_Orphan_range
PUBLIC	?_Tidy@?$vector@PEAU_CAPTION_LINE@@V?$allocator@PEAU_CAPTION_LINE@@@std@@@std@@IEAAXXZ ; std::vector<_CAPTION_LINE * __ptr64,std::allocator<_CAPTION_LINE * __ptr64> >::_Tidy
PUBLIC	?_Reserve@?$vector@PEAU_CAPTION_LINE@@V?$allocator@PEAU_CAPTION_LINE@@@std@@@std@@IEAAX_K@Z ; std::vector<_CAPTION_LINE * __ptr64,std::allocator<_CAPTION_LINE * __ptr64> >::_Reserve
PUBLIC	?_Inside@?$vector@PEAU_CAPTION_LINE@@V?$allocator@PEAU_CAPTION_LINE@@@std@@@std@@IEBA_NPEBQEAU_CAPTION_LINE@@@Z ; std::vector<_CAPTION_LINE * __ptr64,std::allocator<_CAPTION_LINE * __ptr64> >::_Inside
PUBLIC	?_Destroy@?$vector@PEAU_CAPTION_LINE@@V?$allocator@PEAU_CAPTION_LINE@@@std@@@std@@IEAAXPEAPEAU_CAPTION_LINE@@0@Z ; std::vector<_CAPTION_LINE * __ptr64,std::allocator<_CAPTION_LINE * __ptr64> >::_Destroy
PUBLIC	?_Getal@?$_Vector_alloc@$0A@U?$_Vec_base_types@PEAU_LINE_STR@@V?$allocator@PEAU_LINE_STR@@@std@@@std@@@std@@QEBA?AU?$_Wrap_alloc@V?$allocator@PEAU_LINE_STR@@@std@@@2@XZ ; std::_Vector_alloc<0,std::_Vec_base_types<_LINE_STR * __ptr64,std::allocator<_LINE_STR * __ptr64> > >::_Getal
PUBLIC	??0?$_Vector_alloc@$0A@U?$_Vec_base_types@PEAU_LINE_STR@@V?$allocator@PEAU_LINE_STR@@@std@@@std@@@std@@QEAA@AEBV?$allocator@PEAU_LINE_STR@@@1@@Z ; std::_Vector_alloc<0,std::_Vec_base_types<_LINE_STR * __ptr64,std::allocator<_LINE_STR * __ptr64> > >::_Vector_alloc<0,std::_Vec_base_types<_LINE_STR * __ptr64,std::allocator<_LINE_STR * __ptr64> > >
PUBLIC	??0?$allocator@PEAU_LINE_STR@@@std@@QEAA@XZ	; std::allocator<_LINE_STR * __ptr64>::allocator<_LINE_STR * __ptr64>
PUBLIC	?_Orphan_range@?$vector@PEAU_LINE_STR@@V?$allocator@PEAU_LINE_STR@@@std@@@std@@IEBAXPEAPEAU_LINE_STR@@0@Z ; std::vector<_LINE_STR * __ptr64,std::allocator<_LINE_STR * __ptr64> >::_Orphan_range
PUBLIC	?_Tidy@?$vector@PEAU_LINE_STR@@V?$allocator@PEAU_LINE_STR@@@std@@@std@@IEAAXXZ ; std::vector<_LINE_STR * __ptr64,std::allocator<_LINE_STR * __ptr64> >::_Tidy
PUBLIC	?_Reserve@?$vector@PEAU_LINE_STR@@V?$allocator@PEAU_LINE_STR@@@std@@@std@@IEAAX_K@Z ; std::vector<_LINE_STR * __ptr64,std::allocator<_LINE_STR * __ptr64> >::_Reserve
PUBLIC	?_Inside@?$vector@PEAU_LINE_STR@@V?$allocator@PEAU_LINE_STR@@@std@@@std@@IEBA_NPEBQEAU_LINE_STR@@@Z ; std::vector<_LINE_STR * __ptr64,std::allocator<_LINE_STR * __ptr64> >::_Inside
PUBLIC	?deallocate@?$_Wrap_alloc@V?$allocator@U_CAPTION_CHAR_DATA@@@std@@@std@@QEAAXPEAU_CAPTION_CHAR_DATA@@_K@Z ; std::_Wrap_alloc<std::allocator<_CAPTION_CHAR_DATA> >::deallocate
PUBLIC	?_Getal@?$_Vector_alloc@$0A@U?$_Vec_base_types@U_CAPTION_CHAR_DATA@@V?$allocator@U_CAPTION_CHAR_DATA@@@std@@@std@@@std@@QEBA?AU?$_Wrap_alloc@V?$allocator@U_CAPTION_CHAR_DATA@@@std@@@2@XZ ; std::_Vector_alloc<0,std::_Vec_base_types<_CAPTION_CHAR_DATA,std::allocator<_CAPTION_CHAR_DATA> > >::_Getal
PUBLIC	?_Tidy@?$vector@U_CAPTION_CHAR_DATA@@V?$allocator@U_CAPTION_CHAR_DATA@@@std@@@std@@IEAAXXZ ; std::vector<_CAPTION_CHAR_DATA,std::allocator<_CAPTION_CHAR_DATA> >::_Tidy
PUBLIC	?_Destroy@?$vector@U_CAPTION_CHAR_DATA@@V?$allocator@U_CAPTION_CHAR_DATA@@@std@@@std@@IEAAXPEAU_CAPTION_CHAR_DATA@@0@Z ; std::vector<_CAPTION_CHAR_DATA,std::allocator<_CAPTION_CHAR_DATA> >::_Destroy
PUBLIC	?_Myptr@?$_String_val@U?$_Simple_types@D@std@@@std@@QEBAPEBDXZ ; std::_String_val<std::_Simple_types<char> >::_Myptr
PUBLIC	?select_on_container_copy_construction@?$_Wrap_alloc@V?$allocator@D@std@@@std@@QEBA?AU12@XZ ; std::_Wrap_alloc<std::allocator<char> >::select_on_container_copy_construction
PUBLIC	?_Getal@?$_String_alloc@$0A@U?$_String_base_types@DV?$allocator@D@std@@@std@@@std@@QEBA?AU?$_Wrap_alloc@V?$allocator@D@std@@@2@XZ ; std::_String_alloc<0,std::_String_base_types<char,std::allocator<char> > >::_Getal
PUBLIC	?_Change_alloc@?$_String_alloc@$0A@U?$_String_base_types@DV?$allocator@D@std@@@std@@@std@@QEAAXAEBU?$_Wrap_alloc@V?$allocator@D@std@@@2@@Z ; std::_String_alloc<0,std::_String_base_types<char,std::allocator<char> > >::_Change_alloc
PUBLIC	??0?$_String_alloc@$0A@U?$_String_base_types@DV?$allocator@D@std@@@std@@@std@@QEAA@AEBV?$allocator@D@1@@Z ; std::_String_alloc<0,std::_String_base_types<char,std::allocator<char> > >::_String_alloc<0,std::_String_base_types<char,std::allocator<char> > >
PUBLIC	??0?$allocator@D@std@@QEAA@XZ			; std::allocator<char>::allocator<char>
PUBLIC	?_Tidy@?$basic_string@DU?$char_traits@D@std@@V?$allocator@D@2@@std@@QEAAX_N_K@Z ; std::basic_string<char,std::char_traits<char>,std::allocator<char> >::_Tidy
PUBLIC	?end@?$basic_string@DU?$char_traits@D@std@@V?$allocator@D@2@@std@@QEAA?AV?$_String_iterator@V?$_String_val@U?$_Simple_types@D@std@@@std@@@2@XZ ; std::basic_string<char,std::char_traits<char>,std::allocator<char> >::end
PUBLIC	?begin@?$basic_string@DU?$char_traits@D@std@@V?$allocator@D@2@@std@@QEAA?AV?$_String_iterator@V?$_String_val@U?$_Simple_types@D@std@@@std@@@2@XZ ; std::basic_string<char,std::char_traits<char>,std::allocator<char> >::begin
PUBLIC	?assign@?$basic_string@DU?$char_traits@D@std@@V?$allocator@D@2@@std@@QEAAAEAV12@PEBD@Z ; std::basic_string<char,std::char_traits<char>,std::allocator<char> >::assign
PUBLIC	?assign@?$basic_string@DU?$char_traits@D@std@@V?$allocator@D@2@@std@@QEAAAEAV12@AEBV12@_K1@Z ; std::basic_string<char,std::char_traits<char>,std::allocator<char> >::assign
PUBLIC	?_Assign_rv@?$basic_string@DU?$char_traits@D@std@@V?$allocator@D@2@@std@@QEAAX$$QEAV12@@Z ; std::basic_string<char,std::char_traits<char>,std::allocator<char> >::_Assign_rv
PUBLIC	??1?$vector@U_LANG_TAG_INFO@@V?$allocator@U_LANG_TAG_INFO@@@std@@@std@@QEAA@XZ ; std::vector<_LANG_TAG_INFO,std::allocator<_LANG_TAG_INFO> >::~vector<_LANG_TAG_INFO,std::allocator<_LANG_TAG_INFO> >
PUBLIC	??0?$vector@U_LANG_TAG_INFO@@V?$allocator@U_LANG_TAG_INFO@@@std@@@std@@QEAA@XZ ; std::vector<_LANG_TAG_INFO,std::allocator<_LANG_TAG_INFO> >::vector<_LANG_TAG_INFO,std::allocator<_LANG_TAG_INFO> >
PUBLIC	??9?$_Vector_const_iterator@V?$_Vector_val@U?$_Simple_types@U_CAPTION_CHAR_DATA@@@std@@@std@@@std@@QEBA_NAEBV01@@Z ; std::_Vector_const_iterator<std::_Vector_val<std::_Simple_types<_CAPTION_CHAR_DATA> > >::operator!=
PUBLIC	??E?$_Vector_iterator@V?$_Vector_val@U?$_Simple_types@U_CAPTION_CHAR_DATA@@@std@@@std@@@std@@QEAA?AV01@H@Z ; std::_Vector_iterator<std::_Vector_val<std::_Simple_types<_CAPTION_CHAR_DATA> > >::operator++
PUBLIC	??C?$_Vector_iterator@V?$_Vector_val@U?$_Simple_types@U_CAPTION_CHAR_DATA@@@std@@@std@@@std@@QEBAPEAU_CAPTION_CHAR_DATA@@XZ ; std::_Vector_iterator<std::_Vector_val<std::_Simple_types<_CAPTION_CHAR_DATA> > >::operator->
PUBLIC	??9?$_Vector_const_iterator@V?$_Vector_val@U?$_Simple_types@U_CAPTION_DATA@@@std@@@std@@@std@@QEBA_NAEBV01@@Z ; std::_Vector_const_iterator<std::_Vector_val<std::_Simple_types<_CAPTION_DATA> > >::operator!=
PUBLIC	??E?$_Vector_iterator@V?$_Vector_val@U?$_Simple_types@U_CAPTION_DATA@@@std@@@std@@@std@@QEAA?AV01@H@Z ; std::_Vector_iterator<std::_Vector_val<std::_Simple_types<_CAPTION_DATA> > >::operator++
PUBLIC	??C?$_Vector_iterator@V?$_Vector_val@U?$_Simple_types@U_CAPTION_DATA@@@std@@@std@@@std@@QEBAPEAU_CAPTION_DATA@@XZ ; std::_Vector_iterator<std::_Vector_val<std::_Simple_types<_CAPTION_DATA> > >::operator->
PUBLIC	?end@?$vector@U_CAPTION_DATA@@V?$allocator@U_CAPTION_DATA@@@std@@@std@@QEAA?AV?$_Vector_iterator@V?$_Vector_val@U?$_Simple_types@U_CAPTION_DATA@@@std@@@std@@@2@XZ ; std::vector<_CAPTION_DATA,std::allocator<_CAPTION_DATA> >::end
PUBLIC	?begin@?$vector@U_CAPTION_DATA@@V?$allocator@U_CAPTION_DATA@@@std@@@std@@QEAA?AV?$_Vector_iterator@V?$_Vector_val@U?$_Simple_types@U_CAPTION_DATA@@@std@@@std@@@2@XZ ; std::vector<_CAPTION_DATA,std::allocator<_CAPTION_DATA> >::begin
PUBLIC	??1?$vector@U_CAPTION_DATA@@V?$allocator@U_CAPTION_DATA@@@std@@@std@@QEAA@XZ ; std::vector<_CAPTION_DATA,std::allocator<_CAPTION_DATA> >::~vector<_CAPTION_DATA,std::allocator<_CAPTION_DATA> >
PUBLIC	??0?$vector@U_CAPTION_DATA@@V?$allocator@U_CAPTION_DATA@@@std@@@std@@QEAA@XZ ; std::vector<_CAPTION_DATA,std::allocator<_CAPTION_DATA> >::vector<_CAPTION_DATA,std::allocator<_CAPTION_DATA> >
PUBLIC	??9?$_Vector_const_iterator@V?$_Vector_val@U?$_Simple_types@PEAU_LINE_STR@@@std@@@std@@@std@@QEBA_NAEBV01@@Z ; std::_Vector_const_iterator<std::_Vector_val<std::_Simple_types<_LINE_STR * __ptr64> > >::operator!=
PUBLIC	??8?$_Vector_const_iterator@V?$_Vector_val@U?$_Simple_types@PEAU_LINE_STR@@@std@@@std@@@std@@QEBA_NAEBV01@@Z ; std::_Vector_const_iterator<std::_Vector_val<std::_Simple_types<_LINE_STR * __ptr64> > >::operator==
PUBLIC	??E?$_Vector_iterator@V?$_Vector_val@U?$_Simple_types@PEAU_LINE_STR@@@std@@@std@@@std@@QEAAAEAV01@XZ ; std::_Vector_iterator<std::_Vector_val<std::_Simple_types<_LINE_STR * __ptr64> > >::operator++
PUBLIC	??D?$_Vector_iterator@V?$_Vector_val@U?$_Simple_types@PEAU_LINE_STR@@@std@@@std@@@std@@QEBAAEAPEAU_LINE_STR@@XZ ; std::_Vector_iterator<std::_Vector_val<std::_Simple_types<_LINE_STR * __ptr64> > >::operator*
PUBLIC	??9?$_Vector_const_iterator@V?$_Vector_val@U?$_Simple_types@PEAU_CAPTION_LINE@@@std@@@std@@@std@@QEBA_NAEBV01@@Z ; std::_Vector_const_iterator<std::_Vector_val<std::_Simple_types<_CAPTION_LINE * __ptr64> > >::operator!=
PUBLIC	??E?$_Vector_iterator@V?$_Vector_val@U?$_Simple_types@PEAU_CAPTION_LINE@@@std@@@std@@@std@@QEAA?AV01@H@Z ; std::_Vector_iterator<std::_Vector_val<std::_Simple_types<_CAPTION_LINE * __ptr64> > >::operator++
PUBLIC	??E?$_Vector_iterator@V?$_Vector_val@U?$_Simple_types@PEAU_CAPTION_LINE@@@std@@@std@@@std@@QEAAAEAV01@XZ ; std::_Vector_iterator<std::_Vector_val<std::_Simple_types<_CAPTION_LINE * __ptr64> > >::operator++
PUBLIC	??D?$_Vector_iterator@V?$_Vector_val@U?$_Simple_types@PEAU_CAPTION_LINE@@@std@@@std@@@std@@QEBAAEAPEAU_CAPTION_LINE@@XZ ; std::_Vector_iterator<std::_Vector_val<std::_Simple_types<_CAPTION_LINE * __ptr64> > >::operator*
PUBLIC	?clear@?$vector@PEAU_CAPTION_LINE@@V?$allocator@PEAU_CAPTION_LINE@@@std@@@std@@QEAAXXZ ; std::vector<_CAPTION_LINE * __ptr64,std::allocator<_CAPTION_LINE * __ptr64> >::clear
PUBLIC	?push_back@?$vector@PEAU_CAPTION_LINE@@V?$allocator@PEAU_CAPTION_LINE@@@std@@@std@@QEAAXAEBQEAU_CAPTION_LINE@@@Z ; std::vector<_CAPTION_LINE * __ptr64,std::allocator<_CAPTION_LINE * __ptr64> >::push_back
PUBLIC	?empty@?$vector@PEAU_CAPTION_LINE@@V?$allocator@PEAU_CAPTION_LINE@@@std@@@std@@QEBA_NXZ ; std::vector<_CAPTION_LINE * __ptr64,std::allocator<_CAPTION_LINE * __ptr64> >::empty
PUBLIC	?size@?$vector@PEAU_CAPTION_LINE@@V?$allocator@PEAU_CAPTION_LINE@@@std@@@std@@QEBA_KXZ ; std::vector<_CAPTION_LINE * __ptr64,std::allocator<_CAPTION_LINE * __ptr64> >::size
PUBLIC	?end@?$vector@PEAU_CAPTION_LINE@@V?$allocator@PEAU_CAPTION_LINE@@@std@@@std@@QEAA?AV?$_Vector_iterator@V?$_Vector_val@U?$_Simple_types@PEAU_CAPTION_LINE@@@std@@@std@@@2@XZ ; std::vector<_CAPTION_LINE * __ptr64,std::allocator<_CAPTION_LINE * __ptr64> >::end
PUBLIC	?begin@?$vector@PEAU_CAPTION_LINE@@V?$allocator@PEAU_CAPTION_LINE@@@std@@@std@@QEAA?AV?$_Vector_iterator@V?$_Vector_val@U?$_Simple_types@PEAU_CAPTION_LINE@@@std@@@std@@@2@XZ ; std::vector<_CAPTION_LINE * __ptr64,std::allocator<_CAPTION_LINE * __ptr64> >::begin
PUBLIC	??1?$vector@PEAU_CAPTION_LINE@@V?$allocator@PEAU_CAPTION_LINE@@@std@@@std@@QEAA@XZ ; std::vector<_CAPTION_LINE * __ptr64,std::allocator<_CAPTION_LINE * __ptr64> >::~vector<_CAPTION_LINE * __ptr64,std::allocator<_CAPTION_LINE * __ptr64> >
PUBLIC	??0?$vector@PEAU_CAPTION_LINE@@V?$allocator@PEAU_CAPTION_LINE@@@std@@@std@@QEAA@XZ ; std::vector<_CAPTION_LINE * __ptr64,std::allocator<_CAPTION_LINE * __ptr64> >::vector<_CAPTION_LINE * __ptr64,std::allocator<_CAPTION_LINE * __ptr64> >
PUBLIC	?push_back@?$vector@PEAU_LINE_STR@@V?$allocator@PEAU_LINE_STR@@@std@@@std@@QEAAXAEBQEAU_LINE_STR@@@Z ; std::vector<_LINE_STR * __ptr64,std::allocator<_LINE_STR * __ptr64> >::push_back
PUBLIC	?empty@?$vector@PEAU_LINE_STR@@V?$allocator@PEAU_LINE_STR@@@std@@@std@@QEBA_NXZ ; std::vector<_LINE_STR * __ptr64,std::allocator<_LINE_STR * __ptr64> >::empty
PUBLIC	?end@?$vector@PEAU_LINE_STR@@V?$allocator@PEAU_LINE_STR@@@std@@@std@@QEAA?AV?$_Vector_iterator@V?$_Vector_val@U?$_Simple_types@PEAU_LINE_STR@@@std@@@std@@@2@XZ ; std::vector<_LINE_STR * __ptr64,std::allocator<_LINE_STR * __ptr64> >::end
PUBLIC	?begin@?$vector@PEAU_LINE_STR@@V?$allocator@PEAU_LINE_STR@@@std@@@std@@QEAA?AV?$_Vector_iterator@V?$_Vector_val@U?$_Simple_types@PEAU_LINE_STR@@@std@@@std@@@2@XZ ; std::vector<_LINE_STR * __ptr64,std::allocator<_LINE_STR * __ptr64> >::begin
PUBLIC	??1?$vector@PEAU_LINE_STR@@V?$allocator@PEAU_LINE_STR@@@std@@@std@@QEAA@XZ ; std::vector<_LINE_STR * __ptr64,std::allocator<_LINE_STR * __ptr64> >::~vector<_LINE_STR * __ptr64,std::allocator<_LINE_STR * __ptr64> >
PUBLIC	??0?$vector@PEAU_LINE_STR@@V?$allocator@PEAU_LINE_STR@@@std@@@std@@QEAA@XZ ; std::vector<_LINE_STR * __ptr64,std::allocator<_LINE_STR * __ptr64> >::vector<_LINE_STR * __ptr64,std::allocator<_LINE_STR * __ptr64> >
PUBLIC	?size@?$vector@U_CAPTION_CHAR_DATA@@V?$allocator@U_CAPTION_CHAR_DATA@@@std@@@std@@QEBA_KXZ ; std::vector<_CAPTION_CHAR_DATA,std::allocator<_CAPTION_CHAR_DATA> >::size
PUBLIC	?end@?$vector@U_CAPTION_CHAR_DATA@@V?$allocator@U_CAPTION_CHAR_DATA@@@std@@@std@@QEAA?AV?$_Vector_iterator@V?$_Vector_val@U?$_Simple_types@U_CAPTION_CHAR_DATA@@@std@@@std@@@2@XZ ; std::vector<_CAPTION_CHAR_DATA,std::allocator<_CAPTION_CHAR_DATA> >::end
PUBLIC	?begin@?$vector@U_CAPTION_CHAR_DATA@@V?$allocator@U_CAPTION_CHAR_DATA@@@std@@@std@@QEAA?AV?$_Vector_iterator@V?$_Vector_val@U?$_Simple_types@U_CAPTION_CHAR_DATA@@@std@@@std@@@2@XZ ; std::vector<_CAPTION_CHAR_DATA,std::allocator<_CAPTION_CHAR_DATA> >::begin
PUBLIC	?size@?$basic_string@DU?$char_traits@D@std@@V?$allocator@D@2@@std@@QEBA_KXZ ; std::basic_string<char,std::char_traits<char>,std::allocator<char> >::size
PUBLIC	?c_str@?$basic_string@DU?$char_traits@D@std@@V?$allocator@D@2@@std@@QEBAPEBDXZ ; std::basic_string<char,std::char_traits<char>,std::allocator<char> >::c_str
PUBLIC	??4?$basic_string@DU?$char_traits@D@std@@V?$allocator@D@2@@std@@QEAAAEAV01@PEBD@Z ; std::basic_string<char,std::char_traits<char>,std::allocator<char> >::operator=
PUBLIC	??1?$basic_string@DU?$char_traits@D@std@@V?$allocator@D@2@@std@@QEAA@XZ ; std::basic_string<char,std::char_traits<char>,std::allocator<char> >::~basic_string<char,std::char_traits<char>,std::allocator<char> >
PUBLIC	??4?$basic_string@DU?$char_traits@D@std@@V?$allocator@D@2@@std@@QEAAAEAV01@$$QEAV01@@Z ; std::basic_string<char,std::char_traits<char>,std::allocator<char> >::operator=
PUBLIC	??0?$basic_string@DU?$char_traits@D@std@@V?$allocator@D@2@@std@@QEAA@PEBD@Z ; std::basic_string<char,std::char_traits<char>,std::allocator<char> >::basic_string<char,std::char_traits<char>,std::allocator<char> >
PUBLIC	??0?$basic_string@DU?$char_traits@D@std@@V?$allocator@D@2@@std@@QEAA@XZ ; std::basic_string<char,std::char_traits<char>,std::allocator<char> >::basic_string<char,std::char_traits<char>,std::allocator<char> >
PUBLIC	??0?$basic_string@DU?$char_traits@D@std@@V?$allocator@D@2@@std@@QEAA@AEBV01@@Z ; std::basic_string<char,std::char_traits<char>,std::allocator<char> >::basic_string<char,std::char_traits<char>,std::allocator<char> >
PUBLIC	wmain
PUBLIC	??0_LINE_STR@@QEAA@XZ				; _LINE_STR::_LINE_STR
PUBLIC	??0_CAPTION_LINE@@QEAA@XZ			; _CAPTION_LINE::_CAPTION_LINE
PUBLIC	??1_CAPTION_LINE@@QEAA@XZ			; _CAPTION_LINE::~_CAPTION_LINE
PUBLIC	??1_LINE_STR@@QEAA@XZ				; _LINE_STR::~_LINE_STR
PUBLIC	??_G_CAPTION_LINE@@QEAAPEAXI@Z			; _CAPTION_LINE::`scalar deleting destructor'
PUBLIC	??_G_LINE_STR@@QEAAPEAXI@Z			; _LINE_STR::`scalar deleting destructor'
PUBLIC	?Dump@CSrtHandler@@UEAAXAEAV?$vector@PEAU_CAPTION_LINE@@V?$allocator@PEAU_CAPTION_LINE@@@std@@@std@@K@Z ; CSrtHandler::Dump
PUBLIC	?Dump@CAssHandler@@UEAAXAEAV?$vector@PEAU_CAPTION_LINE@@V?$allocator@PEAU_CAPTION_LINE@@@std@@@std@@K@Z ; CAssHandler::Dump
PUBLIC	?Setup@CSrtHandler@@UEAAHXZ			; CSrtHandler::Setup
PUBLIC	?Setup@CAssHandler@@UEAAHXZ			; CAssHandler::Setup
PUBLIC	?Close@CSrtHandler@@UEAAXXZ			; CSrtHandler::Close
PUBLIC	?Close@CAssHandler@@UEAAXXZ			; CAssHandler::Close
PUBLIC	?Close@CLogHandler@@UEAAXXZ			; CLogHandler::Close
PUBLIC	?WriteHeader@CSrtHandler@@UEAAXXZ		; CSrtHandler::WriteHeader
PUBLIC	?WriteHeader@CAssHandler@@UEAAXXZ		; CAssHandler::WriteHeader
PUBLIC	?WriteHeader@CLogHandler@@UEAAXXZ		; CLogHandler::WriteHeader
PUBLIC	?Open@CSrtHandler@@UEAAHXZ			; CSrtHandler::Open
PUBLIC	?Open@CAssHandler@@UEAAHXZ			; CAssHandler::Open
PUBLIC	?Open@CLogHandler@@UEAAHXZ			; CLogHandler::Open
PUBLIC	?SetName@CSrtHandler@@UEAAXXZ			; CSrtHandler::SetName
PUBLIC	?SetName@CAssHandler@@UEAAXXZ			; CAssHandler::SetName
PUBLIC	?SetName@CLogHandler@@UEAAXXZ			; CLogHandler::SetName
PUBLIC	?count_UTF8@ICaptionHandler@@IEAAHPEBE@Z	; ICaptionHandler::count_UTF8
PUBLIC	?Free@CAppHandler@@QEAAXXZ			; CAppHandler::Free
PUBLIC	??_GCCaption2AssParameter@@QEAAPEAXI@Z		; CCaption2AssParameter::`scalar deleting destructor'
PUBLIC	??_GCSrtHandler@@QEAAPEAXI@Z			; CSrtHandler::`scalar deleting destructor'
PUBLIC	??_GCAssHandler@@QEAAPEAXI@Z			; CAssHandler::`scalar deleting destructor'
PUBLIC	??_GCLogHandler@@QEAAPEAXI@Z			; CLogHandler::`scalar deleting destructor'
PUBLIC	?Allocate@CAppHandler@@QEAAH_K@Z		; CAppHandler::Allocate
PUBLIC	??0ITimestampHandler@@QEAA@XZ			; ITimestampHandler::ITimestampHandler
PUBLIC	??0IAppHandler@@QEAA@XZ				; IAppHandler::IAppHandler
PUBLIC	??1CAppHandler@@QEAA@XZ				; CAppHandler::~CAppHandler
PUBLIC	??0CAppHandler@@QEAA@XZ				; CAppHandler::CAppHandler
PUBLIC	??1CSrtHandler@@QEAA@XZ				; CSrtHandler::~CSrtHandler
PUBLIC	??0CSrtHandler@@QEAA@PEAVIAppHandler@@@Z	; CSrtHandler::CSrtHandler
PUBLIC	??0ICaptionHandler@@QEAA@XZ			; ICaptionHandler::ICaptionHandler
PUBLIC	??1CAssHandler@@QEAA@XZ				; CAssHandler::~CAssHandler
PUBLIC	??0CAssHandler@@QEAA@PEAVIAppHandler@@@Z	; CAssHandler::CAssHandler
PUBLIC	??0IOutputHandler@@QEAA@XZ			; IOutputHandler::IOutputHandler
PUBLIC	??0ILogHandler@@QEAA@XZ				; ILogHandler::ILogHandler
PUBLIC	??1CLogHandler@@QEAA@XZ				; CLogHandler::~CLogHandler
PUBLIC	??0CLogHandler@@QEAA@PEAVIAppHandler@@@Z	; CLogHandler::CLogHandler
PUBLIC	?print@ILogHandler@@QEAAXPEB_WZZ		; ILogHandler::print
PUBLIC	?Allocate@IOutputHandler@@QEAAH_K@Z		; IOutputHandler::Allocate
PUBLIC	?write_bom@IOutputHandler@@IEAAXXZ		; IOutputHandler::write_bom
PUBLIC	?close@IOutputHandler@@IEAAXH@Z			; IOutputHandler::close
PUBLIC	?open@IOutputHandler@@IEAAHPEA_W@Z		; IOutputHandler::open
PUBLIC	?set_name@IOutputHandler@@IEAAXPEA_W0@Z		; IOutputHandler::set_name
PUBLIC	?release@IOutputHandler@@IEAAXXZ		; IOutputHandler::release
PUBLIC	?initialize@IOutputHandler@@IEAAXW4format_type@@PEAVIAppHandler@@@Z ; IOutputHandler::initialize
PUBLIC	?GetParam@IAppHandler@@QEAAPEAXW4c2a_parameter_type@@@Z ; IAppHandler::GetParam
PUBLIC	?initialize@IAppHandler@@MEAAXXZ		; IAppHandler::initialize
PUBLIC	?initialize@ITimestampHandler@@UEAAXXZ		; ITimestampHandler::initialize
PUBLIC	?init_timestamp@ITimestampHandler@@QEAAXXZ	; ITimestampHandler::init_timestamp
PUBLIC	?get_ass_setting@CCaption2AssParameter@@QEAAPEAUass_setting_t@@XZ ; CCaption2AssParameter::get_ass_setting
PUBLIC	?get_cli_parameter@CCaption2AssParameter@@QEAAPEAUcli_parameter_t@@XZ ; CCaption2AssParameter::get_cli_parameter
PUBLIC	?get_pid_information@CCaption2AssParameter@@QEAAPEAUpid_information_t@@XZ ; CCaption2AssParameter::get_pid_information
PUBLIC	?system_category@std@@YAAEBVerror_category@1@XZ	; std::system_category
PUBLIC	?generic_category@std@@YAAEBVerror_category@1@XZ ; std::generic_category
PUBLIC	??1_System_error_category@std@@UEAA@XZ		; std::_System_error_category::~_System_error_category
PUBLIC	??_G_System_error_category@std@@UEAAPEAXI@Z	; std::_System_error_category::`scalar deleting destructor'
PUBLIC	?default_error_condition@_System_error_category@std@@UEBA?AVerror_condition@2@H@Z ; std::_System_error_category::default_error_condition
PUBLIC	?message@_System_error_category@std@@UEBA?AV?$basic_string@DU?$char_traits@D@std@@V?$allocator@D@2@@2@H@Z ; std::_System_error_category::message
PUBLIC	?name@_System_error_category@std@@UEBAPEBDXZ	; std::_System_error_category::name
PUBLIC	??0_System_error_category@std@@QEAA@XZ		; std::_System_error_category::_System_error_category
PUBLIC	??1_Iostream_error_category@std@@UEAA@XZ	; std::_Iostream_error_category::~_Iostream_error_category
PUBLIC	??_G_Iostream_error_category@std@@UEAAPEAXI@Z	; std::_Iostream_error_category::`scalar deleting destructor'
PUBLIC	?message@_Iostream_error_category@std@@UEBA?AV?$basic_string@DU?$char_traits@D@std@@V?$allocator@D@2@@2@H@Z ; std::_Iostream_error_category::message
PUBLIC	?name@_Iostream_error_category@std@@UEBAPEBDXZ	; std::_Iostream_error_category::name
PUBLIC	??0_Iostream_error_category@std@@QEAA@XZ	; std::_Iostream_error_category::_Iostream_error_category
PUBLIC	??1_Generic_error_category@std@@UEAA@XZ		; std::_Generic_error_category::~_Generic_error_category
PUBLIC	??_G_Generic_error_category@std@@UEAAPEAXI@Z	; std::_Generic_error_category::`scalar deleting destructor'
PUBLIC	?message@_Generic_error_category@std@@UEBA?AV?$basic_string@DU?$char_traits@D@std@@V?$allocator@D@2@@2@H@Z ; std::_Generic_error_category::message
PUBLIC	?name@_Generic_error_category@std@@UEBAPEBDXZ	; std::_Generic_error_category::name
PUBLIC	??0_Generic_error_category@std@@QEAA@XZ		; std::_Generic_error_category::_Generic_error_category
PUBLIC	?equivalent@error_category@std@@UEBA_NAEBVerror_code@2@H@Z ; std::error_category::equivalent
PUBLIC	?equivalent@error_category@std@@UEBA_NHAEBVerror_condition@2@@Z ; std::error_category::equivalent
PUBLIC	?default_error_condition@error_category@std@@UEBA?AVerror_condition@2@H@Z ; std::error_category::default_error_condition
PUBLIC	??8error_condition@std@@QEBA_NAEBV01@@Z		; std::error_condition::operator==
PUBLIC	?category@error_condition@std@@QEBAAEBVerror_category@2@XZ ; std::error_condition::category
PUBLIC	?value@error_condition@std@@QEBAHXZ		; std::error_condition::value
PUBLIC	??0error_condition@std@@QEAA@HAEBVerror_category@1@@Z ; std::error_condition::error_condition
PUBLIC	?category@error_code@std@@QEBAAEBVerror_category@2@XZ ; std::error_code::category
PUBLIC	?value@error_code@std@@QEBAHXZ			; std::error_code::value
PUBLIC	??_Gerror_category@std@@UEAAPEAXI@Z		; std::error_category::`scalar deleting destructor'
PUBLIC	??8error_category@std@@QEBA_NAEBV01@@Z		; std::error_category::operator==
PUBLIC	??1error_category@std@@UEAA@XZ			; std::error_category::~error_category
PUBLIC	??0error_category@std@@QEAA@XZ			; std::error_category::error_category
PUBLIC	?_Adopt@_Iterator_base0@std@@QEAAXPEBX@Z	; std::_Iterator_base0::_Adopt
PUBLIC	?assign@?$char_traits@D@std@@SAXAEADAEBD@Z	; std::char_traits<char>::assign
PUBLIC	?move@?$char_traits@D@std@@SAPEADPEADPEBD_K@Z	; std::char_traits<char>::move
PUBLIC	?copy@?$char_traits@D@std@@SAPEADPEADPEBD_K@Z	; std::char_traits<char>::copy
PUBLIC	?length@?$char_traits@D@std@@SA_KPEBD@Z		; std::char_traits<char>::length
PUBLIC	??3@YAXPEAX0@Z					; operator delete
PUBLIC	??2@YAPEAX_KPEAX@Z				; operator new
PUBLIC	?id@?$num_put@_WV?$back_insert_iterator@V?$basic_string@_WU?$char_traits@_W@std@@V?$allocator@_W@2@@std@@@std@@@std@@2V0locale@2@A ; std::num_put<wchar_t,std::back_insert_iterator<std::basic_string<wchar_t,std::char_traits<wchar_t>,std::allocator<wchar_t> > > >::id
PUBLIC	?_System_object@?$_Error_objects@H@std@@2V_System_error_category@2@A ; std::_Error_objects<int>::_System_object
PUBLIC	?id@?$num_put@DV?$back_insert_iterator@V?$basic_string@DU?$char_traits@D@std@@V?$allocator@D@2@@std@@@std@@@std@@2V0locale@2@A ; std::num_put<char,std::back_insert_iterator<std::basic_string<char,std::char_traits<char>,std::allocator<char> > > >::id
PUBLIC	?_Iostream_object@?$_Error_objects@H@std@@2V_Iostream_error_category@2@A ; std::_Error_objects<int>::_Iostream_object
PUBLIC	?_Generic_object@?$_Error_objects@H@std@@2V_Generic_error_category@2@A ; std::_Error_objects<int>::_Generic_object
EXTRN	??_E_Generic_error_category@std@@UEAAPEAXI@Z:PROC ; std::_Generic_error_category::`vector deleting destructor'
EXTRN	??_E_Iostream_error_category@std@@UEAAPEAXI@Z:PROC ; std::_Iostream_error_category::`vector deleting destructor'
EXTRN	??_E_System_error_category@std@@UEAAPEAXI@Z:PROC ; std::_System_error_category::`vector deleting destructor'
EXTRN	??_Eerror_category@std@@UEAAPEAXI@Z:PROC	; std::error_category::`vector deleting destructor'
;	COMDAT ?id@?$num_put@_WV?$back_insert_iterator@V?$basic_string@_WU?$char_traits@_W@std@@V?$allocator@_W@2@@std@@@std@@@std@@2V0locale@2@A
_BSS	SEGMENT
?id@?$num_put@_WV?$back_insert_iterator@V?$basic_string@_WU?$char_traits@_W@std@@V?$allocator@_W@2@@std@@@std@@@std@@2V0locale@2@A DQ 01H DUP (?) ; std::num_put<wchar_t,std::back_insert_iterator<std::basic_string<wchar_t,std::char_traits<wchar_t>,std::allocator<wchar_t> > > >::id
_BSS	ENDS
;	COMDAT ?id@?$num_put@DV?$back_insert_iterator@V?$basic_string@DU?$char_traits@D@std@@V?$allocator@D@2@@std@@@std@@@std@@2V0locale@2@A
_BSS	SEGMENT
?id@?$num_put@DV?$back_insert_iterator@V?$basic_string@DU?$char_traits@D@std@@V?$allocator@D@2@@std@@@std@@@std@@2V0locale@2@A DQ 01H DUP (?) ; std::num_put<char,std::back_insert_iterator<std::basic_string<char,std::char_traits<char>,std::allocator<char> > > >::id
allocator_arg DB 01H DUP (?)
piecewise_construct DB 01H DUP (?)
_BSS	ENDS
;	COMDAT pdata
pdata	SEGMENT
$pdata$??1_CAPTION_CHAR_DATA@@QEAA@XZ DD imagerel $LN36
	DD	imagerel $LN36+50
	DD	imagerel $unwind$??1_CAPTION_CHAR_DATA@@QEAA@XZ
pdata	ENDS
;	COMDAT pdata
pdata	SEGMENT
$pdata$??_G_CAPTION_DATA@@QEAAPEAXI@Z DD imagerel $LN9
	DD	imagerel $LN9+27
	DD	imagerel $unwind$??_G_CAPTION_DATA@@QEAAPEAXI@Z
pdata	ENDS
;	COMDAT pdata
pdata	SEGMENT
$pdata$??_G_CAPTION_CHAR_DATA@@QEAAPEAXI@Z DD imagerel $LN39
	DD	imagerel $LN39+53
	DD	imagerel $unwind$??_G_CAPTION_CHAR_DATA@@QEAAPEAXI@Z
pdata	ENDS
;	COMDAT pdata
pdata	SEGMENT
$pdata$??$destroy@U_CAPTION_CHAR_DATA@@@?$allocator@U_CAPTION_CHAR_DATA@@@std@@QEAAXPEAU_CAPTION_CHAR_DATA@@@Z DD imagerel $LN41
	DD	imagerel $LN41+50
	DD	imagerel $unwind$??$destroy@U_CAPTION_CHAR_DATA@@@?$allocator@U_CAPTION_CHAR_DATA@@@std@@QEAAXPEAU_CAPTION_CHAR_DATA@@@Z
pdata	ENDS
;	COMDAT pdata
pdata	SEGMENT
$pdata$??$destroy@U_CAPTION_CHAR_DATA@@@?$allocator_traits@V?$allocator@U_CAPTION_CHAR_DATA@@@std@@@std@@SAXAEAV?$allocator@U_CAPTION_CHAR_DATA@@@1@PEAU_CAPTION_CHAR_DATA@@@Z DD imagerel $LN43
	DD	imagerel $LN43+50
	DD	imagerel $unwind$??$destroy@U_CAPTION_CHAR_DATA@@@?$allocator_traits@V?$allocator@U_CAPTION_CHAR_DATA@@@std@@@std@@SAXAEAV?$allocator@U_CAPTION_CHAR_DATA@@@1@PEAU_CAPTION_CHAR_DATA@@@Z
pdata	ENDS
;	COMDAT pdata
pdata	SEGMENT
$pdata$??$_Uninit_move@PEAU_CAPTION_LINE@@PEAU1@PEAU1@@std@@YAPEAPEAU_CAPTION_LINE@@PEAPEAU1@00AEAU?$_Wrap_alloc@V?$allocator@PEAU_CAPTION_LINE@@@std@@@0@0U_Scalar_ptr_iterator_tag@0@@Z DD imagerel $LN4
	DD	imagerel $LN4+48
	DD	imagerel $unwind$??$_Uninit_move@PEAU_CAPTION_LINE@@PEAU1@PEAU1@@std@@YAPEAPEAU_CAPTION_LINE@@PEAPEAU1@00AEAU?$_Wrap_alloc@V?$allocator@PEAU_CAPTION_LINE@@@std@@@0@0U_Scalar_ptr_iterator_tag@0@@Z
pdata	ENDS
;	COMDAT pdata
pdata	SEGMENT
$pdata$??$_Uninit_move@PEAU_LINE_STR@@PEAU1@PEAU1@@std@@YAPEAPEAU_LINE_STR@@PEAPEAU1@00AEAU?$_Wrap_alloc@V?$allocator@PEAU_LINE_STR@@@std@@@0@0U_Scalar_ptr_iterator_tag@0@@Z DD imagerel $LN4
	DD	imagerel $LN4+48
	DD	imagerel $unwind$??$_Uninit_move@PEAU_LINE_STR@@PEAU1@PEAU1@@std@@YAPEAPEAU_LINE_STR@@PEAPEAU1@00AEAU?$_Wrap_alloc@V?$allocator@PEAU_LINE_STR@@@std@@@0@0U_Scalar_ptr_iterator_tag@0@@Z
pdata	ENDS
;	COMDAT pdata
pdata	SEGMENT
$pdata$??$destroy@U_CAPTION_CHAR_DATA@@@?$_Wrap_alloc@V?$allocator@U_CAPTION_CHAR_DATA@@@std@@@std@@QEAAXPEAU_CAPTION_CHAR_DATA@@@Z DD imagerel $LN45
	DD	imagerel $LN45+50
	DD	imagerel $unwind$??$destroy@U_CAPTION_CHAR_DATA@@@?$_Wrap_alloc@V?$allocator@U_CAPTION_CHAR_DATA@@@std@@@std@@QEAAXPEAU_CAPTION_CHAR_DATA@@@Z
pdata	ENDS
;	COMDAT pdata
pdata	SEGMENT
$pdata$??$_Destroy_range@U?$_Wrap_alloc@V?$allocator@U_CAPTION_DATA@@@std@@@std@@@std@@YAXPEAU_CAPTION_DATA@@0AEAU?$_Wrap_alloc@V?$allocator@U_CAPTION_DATA@@@std@@@0@U_Nonscalar_ptr_iterator_tag@0@@Z DD imagerel $LN92
	DD	imagerel $LN92+14
	DD	imagerel $unwind$??$_Destroy_range@U?$_Wrap_alloc@V?$allocator@U_CAPTION_DATA@@@std@@@std@@@std@@YAXPEAU_CAPTION_DATA@@0AEAU?$_Wrap_alloc@V?$allocator@U_CAPTION_DATA@@@std@@@0@U_Nonscalar_ptr_iterator_tag@0@@Z
pdata	ENDS
;	COMDAT pdata
pdata	SEGMENT
$pdata$3$??$_Destroy_range@U?$_Wrap_alloc@V?$allocator@U_CAPTION_DATA@@@std@@@std@@@std@@YAXPEAU_CAPTION_DATA@@0AEAU?$_Wrap_alloc@V?$allocator@U_CAPTION_DATA@@@std@@@0@U_Nonscalar_ptr_iterator_tag@0@@Z DD imagerel $LN92+14
	DD	imagerel $LN92+163
	DD	imagerel $chain$3$??$_Destroy_range@U?$_Wrap_alloc@V?$allocator@U_CAPTION_DATA@@@std@@@std@@@std@@YAXPEAU_CAPTION_DATA@@0AEAU?$_Wrap_alloc@V?$allocator@U_CAPTION_DATA@@@std@@@0@U_Nonscalar_ptr_iterator_tag@0@@Z
pdata	ENDS
;	COMDAT pdata
pdata	SEGMENT
$pdata$4$??$_Destroy_range@U?$_Wrap_alloc@V?$allocator@U_CAPTION_DATA@@@std@@@std@@@std@@YAXPEAU_CAPTION_DATA@@0AEAU?$_Wrap_alloc@V?$allocator@U_CAPTION_DATA@@@std@@@0@U_Nonscalar_ptr_iterator_tag@0@@Z DD imagerel $LN92+163
	DD	imagerel $LN92+165
	DD	imagerel $chain$4$??$_Destroy_range@U?$_Wrap_alloc@V?$allocator@U_CAPTION_DATA@@@std@@@std@@@std@@YAXPEAU_CAPTION_DATA@@0AEAU?$_Wrap_alloc@V?$allocator@U_CAPTION_DATA@@@std@@@0@U_Nonscalar_ptr_iterator_tag@0@@Z
pdata	ENDS
;	COMDAT pdata
pdata	SEGMENT
$pdata$??$_Uninitialized_move@PEAPEAU_CAPTION_LINE@@PEAPEAU1@U?$_Wrap_alloc@V?$allocator@PEAU_CAPTION_LINE@@@std@@@std@@@std@@YAPEAPEAU_CAPTION_LINE@@PEAPEAU1@00AEAU?$_Wrap_alloc@V?$allocator@PEAU_CAPTION_LINE@@@std@@@0@@Z DD imagerel $LN10
	DD	imagerel $LN10+48
	DD	imagerel $unwind$??$_Uninitialized_move@PEAPEAU_CAPTION_LINE@@PEAPEAU1@U?$_Wrap_alloc@V?$allocator@PEAU_CAPTION_LINE@@@std@@@std@@@std@@YAPEAPEAU_CAPTION_LINE@@PEAPEAU1@00AEAU?$_Wrap_alloc@V?$allocator@PEAU_CAPTION_LINE@@@std@@@0@@Z
pdata	ENDS
;	COMDAT pdata
pdata	SEGMENT
$pdata$??$_Uninitialized_move@PEAPEAU_LINE_STR@@PEAPEAU1@U?$_Wrap_alloc@V?$allocator@PEAU_LINE_STR@@@std@@@std@@@std@@YAPEAPEAU_LINE_STR@@PEAPEAU1@00AEAU?$_Wrap_alloc@V?$allocator@PEAU_LINE_STR@@@std@@@0@@Z DD imagerel $LN10
	DD	imagerel $LN10+48
	DD	imagerel $unwind$??$_Uninitialized_move@PEAPEAU_LINE_STR@@PEAPEAU1@U?$_Wrap_alloc@V?$allocator@PEAU_LINE_STR@@@std@@@std@@@std@@YAPEAPEAU_LINE_STR@@PEAPEAU1@00AEAU?$_Wrap_alloc@V?$allocator@PEAU_LINE_STR@@@std@@@0@@Z
pdata	ENDS
;	COMDAT pdata
pdata	SEGMENT
$pdata$??$_Destroy_range@U?$_Wrap_alloc@V?$allocator@U_CAPTION_CHAR_DATA@@@std@@@std@@@std@@YAXPEAU_CAPTION_CHAR_DATA@@0AEAU?$_Wrap_alloc@V?$allocator@U_CAPTION_CHAR_DATA@@@std@@@0@U_Nonscalar_ptr_iterator_tag@0@@Z DD imagerel $LN54
	DD	imagerel $LN54+15
	DD	imagerel $unwind$??$_Destroy_range@U?$_Wrap_alloc@V?$allocator@U_CAPTION_CHAR_DATA@@@std@@@std@@@std@@YAXPEAU_CAPTION_CHAR_DATA@@0AEAU?$_Wrap_alloc@V?$allocator@U_CAPTION_CHAR_DATA@@@std@@@0@U_Nonscalar_ptr_iterator_tag@0@@Z
pdata	ENDS
;	COMDAT pdata
pdata	SEGMENT
$pdata$0$??$_Destroy_range@U?$_Wrap_alloc@V?$allocator@U_CAPTION_CHAR_DATA@@@std@@@std@@@std@@YAXPEAU_CAPTION_CHAR_DATA@@0AEAU?$_Wrap_alloc@V?$allocator@U_CAPTION_CHAR_DATA@@@std@@@0@U_Nonscalar_ptr_iterator_tag@0@@Z DD imagerel $LN54+15
	DD	imagerel $LN54+87
	DD	imagerel $chain$0$??$_Destroy_range@U?$_Wrap_alloc@V?$allocator@U_CAPTION_CHAR_DATA@@@std@@@std@@@std@@YAXPEAU_CAPTION_CHAR_DATA@@0AEAU?$_Wrap_alloc@V?$allocator@U_CAPTION_CHAR_DATA@@@std@@@0@U_Nonscalar_ptr_iterator_tag@0@@Z
pdata	ENDS
;	COMDAT pdata
pdata	SEGMENT
$pdata$1$??$_Destroy_range@U?$_Wrap_alloc@V?$allocator@U_CAPTION_CHAR_DATA@@@std@@@std@@@std@@YAXPEAU_CAPTION_CHAR_DATA@@0AEAU?$_Wrap_alloc@V?$allocator@U_CAPTION_CHAR_DATA@@@std@@@0@U_Nonscalar_ptr_iterator_tag@0@@Z DD imagerel $LN54+87
	DD	imagerel $LN54+89
	DD	imagerel $chain$1$??$_Destroy_range@U?$_Wrap_alloc@V?$allocator@U_CAPTION_CHAR_DATA@@@std@@@std@@@std@@YAXPEAU_CAPTION_CHAR_DATA@@0AEAU?$_Wrap_alloc@V?$allocator@U_CAPTION_CHAR_DATA@@@std@@@0@U_Nonscalar_ptr_iterator_tag@0@@Z
pdata	ENDS
;	COMDAT pdata
pdata	SEGMENT
$pdata$?replace@?$basic_string@DU?$char_traits@D@std@@V?$allocator@D@2@@std@@QEAAAEAV12@_K0AEBV12@00@Z DD imagerel $LN217
	DD	imagerel $LN217+55
	DD	imagerel $unwind$?replace@?$basic_string@DU?$char_traits@D@std@@V?$allocator@D@2@@std@@QEAAAEAV12@_K0AEBV12@00@Z
pdata	ENDS
;	COMDAT pdata
pdata	SEGMENT
$pdata$2$?replace@?$basic_string@DU?$char_traits@D@std@@V?$allocator@D@2@@std@@QEAAAEAV12@_K0AEBV12@00@Z DD imagerel $LN217+55
	DD	imagerel $LN217+872
	DD	imagerel $chain$2$?replace@?$basic_string@DU?$char_traits@D@std@@V?$allocator@D@2@@std@@QEAAAEAV12@_K0AEBV12@00@Z
pdata	ENDS
;	COMDAT pdata
pdata	SEGMENT
$pdata$3$?replace@?$basic_string@DU?$char_traits@D@std@@V?$allocator@D@2@@std@@QEAAAEAV12@_K0AEBV12@00@Z DD imagerel $LN217+872
	DD	imagerel $LN217+886
	DD	imagerel $chain$3$?replace@?$basic_string@DU?$char_traits@D@std@@V?$allocator@D@2@@std@@QEAAAEAV12@_K0AEBV12@00@Z
pdata	ENDS
;	COMDAT pdata
pdata	SEGMENT
$pdata$?replace@?$basic_string@DU?$char_traits@D@std@@V?$allocator@D@2@@std@@QEAAAEAV12@_K0PEBD0@Z DD imagerel $LN97
	DD	imagerel $LN97+294
	DD	imagerel $unwind$?replace@?$basic_string@DU?$char_traits@D@std@@V?$allocator@D@2@@std@@QEAAAEAV12@_K0PEBD0@Z
pdata	ENDS
;	COMDAT pdata
pdata	SEGMENT
$pdata$2$?replace@?$basic_string@DU?$char_traits@D@std@@V?$allocator@D@2@@std@@QEAAAEAV12@_K0PEBD0@Z DD imagerel $LN97+294
	DD	imagerel $LN97+453
	DD	imagerel $chain$2$?replace@?$basic_string@DU?$char_traits@D@std@@V?$allocator@D@2@@std@@QEAAAEAV12@_K0PEBD0@Z
pdata	ENDS
;	COMDAT pdata
pdata	SEGMENT
$pdata$3$?replace@?$basic_string@DU?$char_traits@D@std@@V?$allocator@D@2@@std@@QEAAAEAV12@_K0PEBD0@Z DD imagerel $LN97+453
	DD	imagerel $LN97+481
	DD	imagerel $chain$3$?replace@?$basic_string@DU?$char_traits@D@std@@V?$allocator@D@2@@std@@QEAAAEAV12@_K0PEBD0@Z
pdata	ENDS
;	COMDAT pdata
pdata	SEGMENT
$pdata$?replace@?$basic_string@DU?$char_traits@D@std@@V?$allocator@D@2@@std@@QEAAAEAV12@V?$_String_const_iterator@V?$_String_val@U?$_Simple_types@D@std@@@std@@@2@0V?$_String_iterator@V?$_String_val@U?$_Simple_types@D@std@@@std@@@2@1@Z DD imagerel $LN81
	DD	imagerel $LN81+149
	DD	imagerel $unwind$?replace@?$basic_string@DU?$char_traits@D@std@@V?$allocator@D@2@@std@@QEAAAEAV12@V?$_String_const_iterator@V?$_String_val@U?$_Simple_types@D@std@@@std@@@2@0V?$_String_iterator@V?$_String_val@U?$_Simple_types@D@std@@@std@@@2@1@Z
pdata	ENDS
;	COMDAT pdata
pdata	SEGMENT
$pdata$??$_Allocate@D@std@@YAPEAD_KPEAD@Z DD imagerel $LN13
	DD	imagerel $LN13+33
	DD	imagerel $unwind$??$_Allocate@D@std@@YAPEAD_KPEAD@Z
pdata	ENDS
;	COMDAT pdata
pdata	SEGMENT
$pdata$??$_Allocate@PEAU_CAPTION_LINE@@@std@@YAPEAPEAU_CAPTION_LINE@@_KPEAPEAU1@@Z DD imagerel $LN13
	DD	imagerel $LN13+50
	DD	imagerel $unwind$??$_Allocate@PEAU_CAPTION_LINE@@@std@@YAPEAPEAU_CAPTION_LINE@@_KPEAPEAU1@@Z
pdata	ENDS
;	COMDAT pdata
pdata	SEGMENT
$pdata$??$_Allocate@PEAU_LINE_STR@@@std@@YAPEAPEAU_LINE_STR@@_KPEAPEAU1@@Z DD imagerel $LN13
	DD	imagerel $LN13+50
	DD	imagerel $unwind$??$_Allocate@PEAU_LINE_STR@@@std@@YAPEAPEAU_LINE_STR@@_KPEAPEAU1@@Z
pdata	ENDS
;	COMDAT pdata
pdata	SEGMENT
$pdata$??$_Umove@PEAPEAU_CAPTION_LINE@@@?$vector@PEAU_CAPTION_LINE@@V?$allocator@PEAU_CAPTION_LINE@@@std@@@std@@IEAAPEAPEAU_CAPTION_LINE@@PEAPEAU2@00@Z DD imagerel $LN12
	DD	imagerel $LN12+42
	DD	imagerel $unwind$??$_Umove@PEAPEAU_CAPTION_LINE@@@?$vector@PEAU_CAPTION_LINE@@V?$allocator@PEAU_CAPTION_LINE@@@std@@@std@@IEAAPEAPEAU_CAPTION_LINE@@PEAPEAU2@00@Z
pdata	ENDS
;	COMDAT pdata
pdata	SEGMENT
$pdata$??$_Umove@PEAPEAU_LINE_STR@@@?$vector@PEAU_LINE_STR@@V?$allocator@PEAU_LINE_STR@@@std@@@std@@IEAAPEAPEAU_LINE_STR@@PEAPEAU2@00@Z DD imagerel $LN12
	DD	imagerel $LN12+42
	DD	imagerel $unwind$??$_Umove@PEAPEAU_LINE_STR@@@?$vector@PEAU_LINE_STR@@V?$allocator@PEAU_LINE_STR@@@std@@@std@@IEAAPEAPEAU_LINE_STR@@PEAPEAU2@00@Z
pdata	ENDS
;	COMDAT pdata
pdata	SEGMENT
$pdata$??$_Destroy_range@U?$_Wrap_alloc@V?$allocator@U_CAPTION_CHAR_DATA@@@std@@@std@@@std@@YAXPEAU_CAPTION_CHAR_DATA@@0AEAU?$_Wrap_alloc@V?$allocator@U_CAPTION_CHAR_DATA@@@std@@@0@@Z DD imagerel $LN58
	DD	imagerel $LN58+15
	DD	imagerel $unwind$??$_Destroy_range@U?$_Wrap_alloc@V?$allocator@U_CAPTION_CHAR_DATA@@@std@@@std@@@std@@YAXPEAU_CAPTION_CHAR_DATA@@0AEAU?$_Wrap_alloc@V?$allocator@U_CAPTION_CHAR_DATA@@@std@@@0@@Z
pdata	ENDS
;	COMDAT pdata
pdata	SEGMENT
$pdata$0$??$_Destroy_range@U?$_Wrap_alloc@V?$allocator@U_CAPTION_CHAR_DATA@@@std@@@std@@@std@@YAXPEAU_CAPTION_CHAR_DATA@@0AEAU?$_Wrap_alloc@V?$allocator@U_CAPTION_CHAR_DATA@@@std@@@0@@Z DD imagerel $LN58+15
	DD	imagerel $LN58+87
	DD	imagerel $chain$0$??$_Destroy_range@U?$_Wrap_alloc@V?$allocator@U_CAPTION_CHAR_DATA@@@std@@@std@@@std@@YAXPEAU_CAPTION_CHAR_DATA@@0AEAU?$_Wrap_alloc@V?$allocator@U_CAPTION_CHAR_DATA@@@std@@@0@@Z
pdata	ENDS
;	COMDAT pdata
pdata	SEGMENT
$pdata$1$??$_Destroy_range@U?$_Wrap_alloc@V?$allocator@U_CAPTION_CHAR_DATA@@@std@@@std@@@std@@YAXPEAU_CAPTION_CHAR_DATA@@0AEAU?$_Wrap_alloc@V?$allocator@U_CAPTION_CHAR_DATA@@@std@@@0@@Z DD imagerel $LN58+87
	DD	imagerel $LN58+89
	DD	imagerel $chain$1$??$_Destroy_range@U?$_Wrap_alloc@V?$allocator@U_CAPTION_CHAR_DATA@@@std@@@std@@@std@@YAXPEAU_CAPTION_CHAR_DATA@@0AEAU?$_Wrap_alloc@V?$allocator@U_CAPTION_CHAR_DATA@@@std@@@0@@Z
pdata	ENDS
;	COMDAT pdata
pdata	SEGMENT
$pdata$??$assign@V?$_String_iterator@V?$_String_val@U?$_Simple_types@D@std@@@std@@@std@@@?$basic_string@DU?$char_traits@D@std@@V?$allocator@D@2@@std@@QEAAAEAV01@V?$_String_iterator@V?$_String_val@U?$_Simple_types@D@std@@@std@@@1@0@Z DD imagerel $LN32
	DD	imagerel $LN32+67
	DD	imagerel $unwind$??$assign@V?$_String_iterator@V?$_String_val@U?$_Simple_types@D@std@@@std@@@std@@@?$basic_string@DU?$char_traits@D@std@@V?$allocator@D@2@@std@@QEAAAEAV01@V?$_String_iterator@V?$_String_val@U?$_Simple_types@D@std@@@std@@@1@0@Z
pdata	ENDS
;	COMDAT pdata
pdata	SEGMENT
$pdata$?allocate@?$allocator@D@std@@QEAAPEAD_K@Z DD imagerel $LN12
	DD	imagerel $LN12+43
	DD	imagerel $unwind$?allocate@?$allocator@D@std@@QEAAPEAD_K@Z
pdata	ENDS
;	COMDAT pdata
pdata	SEGMENT
$pdata$?allocate@?$allocator@PEAU_CAPTION_LINE@@@std@@QEAAPEAPEAU_CAPTION_LINE@@_K@Z DD imagerel $LN12
	DD	imagerel $LN12+57
	DD	imagerel $unwind$?allocate@?$allocator@PEAU_CAPTION_LINE@@@std@@QEAAPEAPEAU_CAPTION_LINE@@_K@Z
pdata	ENDS
;	COMDAT pdata
pdata	SEGMENT
$pdata$?allocate@?$allocator@PEAU_LINE_STR@@@std@@QEAAPEAPEAU_LINE_STR@@_K@Z DD imagerel $LN12
	DD	imagerel $LN12+57
	DD	imagerel $unwind$?allocate@?$allocator@PEAU_LINE_STR@@@std@@QEAAPEAPEAU_LINE_STR@@_K@Z
pdata	ENDS
;	COMDAT pdata
pdata	SEGMENT
$pdata$?allocate@?$_Wrap_alloc@V?$allocator@D@std@@@std@@QEAAPEAD_K@Z DD imagerel $LN15
	DD	imagerel $LN15+43
	DD	imagerel $unwind$?allocate@?$_Wrap_alloc@V?$allocator@D@std@@@std@@QEAAPEAD_K@Z
pdata	ENDS
;	COMDAT pdata
pdata	SEGMENT
$pdata$?allocate@?$_Wrap_alloc@V?$allocator@PEAU_CAPTION_LINE@@@std@@@std@@QEAAPEAPEAU_CAPTION_LINE@@_K@Z DD imagerel $LN15
	DD	imagerel $LN15+57
	DD	imagerel $unwind$?allocate@?$_Wrap_alloc@V?$allocator@PEAU_CAPTION_LINE@@@std@@@std@@QEAAPEAPEAU_CAPTION_LINE@@_K@Z
pdata	ENDS
;	COMDAT pdata
pdata	SEGMENT
$pdata$?allocate@?$_Wrap_alloc@V?$allocator@PEAU_LINE_STR@@@std@@@std@@QEAAPEAPEAU_LINE_STR@@_K@Z DD imagerel $LN15
	DD	imagerel $LN15+57
	DD	imagerel $unwind$?allocate@?$_Wrap_alloc@V?$allocator@PEAU_LINE_STR@@@std@@@std@@QEAAPEAPEAU_LINE_STR@@_K@Z
pdata	ENDS
;	COMDAT pdata
pdata	SEGMENT
$pdata$?_Xlen@?$basic_string@DU?$char_traits@D@std@@V?$allocator@D@2@@std@@QEBAXXZ DD imagerel $LN4
	DD	imagerel $LN4+18
	DD	imagerel $unwind$?_Xlen@?$basic_string@DU?$char_traits@D@std@@V?$allocator@D@2@@std@@QEBAXXZ
pdata	ENDS
;	COMDAT pdata
pdata	SEGMENT
$pdata$?_Copy@?$basic_string@DU?$char_traits@D@std@@V?$allocator@D@2@@std@@QEAAX_K0@Z DD imagerel $LN185
	DD	imagerel $LN185+260
	DD	imagerel $unwind$?_Copy@?$basic_string@DU?$char_traits@D@std@@V?$allocator@D@2@@std@@QEAAX_K0@Z
pdata	ENDS
;	COMDAT pdata
pdata	SEGMENT
$pdata$?catch$1@?0??_Copy@?$basic_string@DU?$char_traits@D@std@@V?$allocator@D@2@@std@@QEAAX_K0@Z@4HA DD imagerel ?catch$1@?0??_Copy@?$basic_string@DU?$char_traits@D@std@@V?$allocator@D@2@@std@@QEAAX_K0@Z@4HA
	DD	imagerel ?catch$1@?0??_Copy@?$basic_string@DU?$char_traits@D@std@@V?$allocator@D@2@@std@@QEAAX_K0@Z@4HA+69
	DD	imagerel $unwind$?catch$1@?0??_Copy@?$basic_string@DU?$char_traits@D@std@@V?$allocator@D@2@@std@@QEAAX_K0@Z@4HA
pdata	ENDS
;	COMDAT pdata
pdata	SEGMENT
$pdata$?catch$0@?0??_Copy@?$basic_string@DU?$char_traits@D@std@@V?$allocator@D@2@@std@@QEAAX_K0@Z@4HA DD imagerel ?catch$0@?0??_Copy@?$basic_string@DU?$char_traits@D@std@@V?$allocator@D@2@@std@@QEAAX_K0@Z@4HA
	DD	imagerel ?catch$0@?0??_Copy@?$basic_string@DU?$char_traits@D@std@@V?$allocator@D@2@@std@@QEAAX_K0@Z@4HA+63
	DD	imagerel $unwind$?catch$0@?0??_Copy@?$basic_string@DU?$char_traits@D@std@@V?$allocator@D@2@@std@@QEAAX_K0@Z@4HA
pdata	ENDS
;	COMDAT pdata
pdata	SEGMENT
$pdata$?_Destroy@?$vector@U_CAPTION_DATA@@V?$allocator@U_CAPTION_DATA@@@std@@@std@@IEAAXPEAU_CAPTION_DATA@@0@Z DD imagerel $LN98
	DD	imagerel $LN98+14
	DD	imagerel $unwind$?_Destroy@?$vector@U_CAPTION_DATA@@V?$allocator@U_CAPTION_DATA@@@std@@@std@@IEAAXPEAU_CAPTION_DATA@@0@Z
pdata	ENDS
;	COMDAT pdata
pdata	SEGMENT
$pdata$3$?_Destroy@?$vector@U_CAPTION_DATA@@V?$allocator@U_CAPTION_DATA@@@std@@@std@@IEAAXPEAU_CAPTION_DATA@@0@Z DD imagerel $LN98+14
	DD	imagerel $LN98+163
	DD	imagerel $chain$3$?_Destroy@?$vector@U_CAPTION_DATA@@V?$allocator@U_CAPTION_DATA@@@std@@@std@@IEAAXPEAU_CAPTION_DATA@@0@Z
pdata	ENDS
;	COMDAT pdata
pdata	SEGMENT
$pdata$4$?_Destroy@?$vector@U_CAPTION_DATA@@V?$allocator@U_CAPTION_DATA@@@std@@@std@@IEAAXPEAU_CAPTION_DATA@@0@Z DD imagerel $LN98+163
	DD	imagerel $LN98+165
	DD	imagerel $chain$4$?_Destroy@?$vector@U_CAPTION_DATA@@V?$allocator@U_CAPTION_DATA@@@std@@@std@@IEAAXPEAU_CAPTION_DATA@@0@Z
pdata	ENDS
;	COMDAT pdata
pdata	SEGMENT
$pdata$?_Xlen@?$vector@PEAU_CAPTION_LINE@@V?$allocator@PEAU_CAPTION_LINE@@@std@@@std@@IEBAXXZ DD imagerel $LN4
	DD	imagerel $LN4+18
	DD	imagerel $unwind$?_Xlen@?$vector@PEAU_CAPTION_LINE@@V?$allocator@PEAU_CAPTION_LINE@@@std@@@std@@IEBAXXZ
pdata	ENDS
;	COMDAT pdata
pdata	SEGMENT
$pdata$?_Reallocate@?$vector@PEAU_CAPTION_LINE@@V?$allocator@PEAU_CAPTION_LINE@@@std@@@std@@IEAAX_K@Z DD imagerel $LN52
	DD	imagerel $LN52+165
	DD	imagerel $unwind$?_Reallocate@?$vector@PEAU_CAPTION_LINE@@V?$allocator@PEAU_CAPTION_LINE@@@std@@@std@@IEAAX_K@Z
pdata	ENDS
;	COMDAT pdata
pdata	SEGMENT
$pdata$?_Xlen@?$vector@PEAU_LINE_STR@@V?$allocator@PEAU_LINE_STR@@@std@@@std@@IEBAXXZ DD imagerel $LN4
	DD	imagerel $LN4+18
	DD	imagerel $unwind$?_Xlen@?$vector@PEAU_LINE_STR@@V?$allocator@PEAU_LINE_STR@@@std@@@std@@IEBAXXZ
pdata	ENDS
;	COMDAT pdata
pdata	SEGMENT
$pdata$?_Reallocate@?$vector@PEAU_LINE_STR@@V?$allocator@PEAU_LINE_STR@@@std@@@std@@IEAAX_K@Z DD imagerel $LN52
	DD	imagerel $LN52+165
	DD	imagerel $unwind$?_Reallocate@?$vector@PEAU_LINE_STR@@V?$allocator@PEAU_LINE_STR@@@std@@@std@@IEAAX_K@Z
pdata	ENDS
;	COMDAT pdata
pdata	SEGMENT
$pdata$?_Xran@?$basic_string@DU?$char_traits@D@std@@V?$allocator@D@2@@std@@QEBAXXZ DD imagerel $LN4
	DD	imagerel $LN4+18
	DD	imagerel $unwind$?_Xran@?$basic_string@DU?$char_traits@D@std@@V?$allocator@D@2@@std@@QEBAXXZ
pdata	ENDS
;	COMDAT pdata
pdata	SEGMENT
$pdata$?_Grow@?$basic_string@DU?$char_traits@D@std@@V?$allocator@D@2@@std@@QEAA_N_K_N@Z DD imagerel $LN68
	DD	imagerel $LN68+33
	DD	imagerel $unwind$?_Grow@?$basic_string@DU?$char_traits@D@std@@V?$allocator@D@2@@std@@QEAA_N_K_N@Z
pdata	ENDS
;	COMDAT pdata
pdata	SEGMENT
$pdata$0$?_Grow@?$basic_string@DU?$char_traits@D@std@@V?$allocator@D@2@@std@@QEAA_N_K_N@Z DD imagerel $LN68+33
	DD	imagerel $LN68+71
	DD	imagerel $chain$0$?_Grow@?$basic_string@DU?$char_traits@D@std@@V?$allocator@D@2@@std@@QEAA_N_K_N@Z
pdata	ENDS
;	COMDAT pdata
pdata	SEGMENT
$pdata$2$?_Grow@?$basic_string@DU?$char_traits@D@std@@V?$allocator@D@2@@std@@QEAA_N_K_N@Z DD imagerel $LN68+71
	DD	imagerel $LN68+109
	DD	imagerel $chain$2$?_Grow@?$basic_string@DU?$char_traits@D@std@@V?$allocator@D@2@@std@@QEAA_N_K_N@Z
pdata	ENDS
;	COMDAT pdata
pdata	SEGMENT
$pdata$?erase@?$basic_string@DU?$char_traits@D@std@@V?$allocator@D@2@@std@@QEAAAEAV12@_K0@Z DD imagerel $LN42
	DD	imagerel $LN42+201
	DD	imagerel $unwind$?erase@?$basic_string@DU?$char_traits@D@std@@V?$allocator@D@2@@std@@QEAAAEAV12@_K0@Z
pdata	ENDS
;	COMDAT pdata
pdata	SEGMENT
$pdata$?erase@?$basic_string@DU?$char_traits@D@std@@V?$allocator@D@2@@std@@QEAAAEAV12@_K@Z DD imagerel $LN19
	DD	imagerel $LN19+62
	DD	imagerel $unwind$?erase@?$basic_string@DU?$char_traits@D@std@@V?$allocator@D@2@@std@@QEAAAEAV12@_K@Z
pdata	ENDS
;	COMDAT pdata
pdata	SEGMENT
$pdata$?assign@?$basic_string@DU?$char_traits@D@std@@V?$allocator@D@2@@std@@QEAAAEAV12@PEBD_K@Z DD imagerel $LN117
	DD	imagerel $LN117+303
	DD	imagerel $unwind$?assign@?$basic_string@DU?$char_traits@D@std@@V?$allocator@D@2@@std@@QEAAAEAV12@PEBD_K@Z
pdata	ENDS
;	COMDAT pdata
pdata	SEGMENT
$pdata$?_Tidy@?$vector@U_LANG_TAG_INFO@@V?$allocator@U_LANG_TAG_INFO@@@std@@@std@@IEAAXXZ DD imagerel $LN13
	DD	imagerel $LN13+42
	DD	imagerel $unwind$?_Tidy@?$vector@U_LANG_TAG_INFO@@V?$allocator@U_LANG_TAG_INFO@@@std@@@std@@IEAAXXZ
pdata	ENDS
;	COMDAT pdata
pdata	SEGMENT
$pdata$?_Tidy@?$vector@U_CAPTION_DATA@@V?$allocator@U_CAPTION_DATA@@@std@@@std@@IEAAXXZ DD imagerel $LN13
	DD	imagerel $LN13+54
	DD	imagerel $unwind$?_Tidy@?$vector@U_CAPTION_DATA@@V?$allocator@U_CAPTION_DATA@@@std@@@std@@IEAAXXZ
pdata	ENDS
;	COMDAT pdata
pdata	SEGMENT
$pdata$?_Tidy@?$vector@PEAU_CAPTION_LINE@@V?$allocator@PEAU_CAPTION_LINE@@@std@@@std@@IEAAXXZ DD imagerel $LN13
	DD	imagerel $LN13+42
	DD	imagerel $unwind$?_Tidy@?$vector@PEAU_CAPTION_LINE@@V?$allocator@PEAU_CAPTION_LINE@@@std@@@std@@IEAAXXZ
pdata	ENDS
;	COMDAT pdata
pdata	SEGMENT
$pdata$?_Reserve@?$vector@PEAU_CAPTION_LINE@@V?$allocator@PEAU_CAPTION_LINE@@@std@@@std@@IEAAX_K@Z DD imagerel $LN43
	DD	imagerel $LN43+140
	DD	imagerel $unwind$?_Reserve@?$vector@PEAU_CAPTION_LINE@@V?$allocator@PEAU_CAPTION_LINE@@@std@@@std@@IEAAX_K@Z
pdata	ENDS
;	COMDAT pdata
pdata	SEGMENT
$pdata$?_Tidy@?$vector@PEAU_LINE_STR@@V?$allocator@PEAU_LINE_STR@@@std@@@std@@IEAAXXZ DD imagerel $LN13
	DD	imagerel $LN13+42
	DD	imagerel $unwind$?_Tidy@?$vector@PEAU_LINE_STR@@V?$allocator@PEAU_LINE_STR@@@std@@@std@@IEAAXXZ
pdata	ENDS
;	COMDAT pdata
pdata	SEGMENT
$pdata$?_Reserve@?$vector@PEAU_LINE_STR@@V?$allocator@PEAU_LINE_STR@@@std@@@std@@IEAAX_K@Z DD imagerel $LN43
	DD	imagerel $LN43+140
	DD	imagerel $unwind$?_Reserve@?$vector@PEAU_LINE_STR@@V?$allocator@PEAU_LINE_STR@@@std@@@std@@IEAAX_K@Z
pdata	ENDS
;	COMDAT pdata
pdata	SEGMENT
$pdata$?_Tidy@?$vector@U_CAPTION_CHAR_DATA@@V?$allocator@U_CAPTION_CHAR_DATA@@@std@@@std@@IEAAXXZ DD imagerel $LN70
	DD	imagerel $LN70+21
	DD	imagerel $unwind$?_Tidy@?$vector@U_CAPTION_CHAR_DATA@@V?$allocator@U_CAPTION_CHAR_DATA@@@std@@@std@@IEAAXXZ
pdata	ENDS
;	COMDAT pdata
pdata	SEGMENT
$pdata$1$?_Tidy@?$vector@U_CAPTION_CHAR_DATA@@V?$allocator@U_CAPTION_CHAR_DATA@@@std@@@std@@IEAAXXZ DD imagerel $LN70+21
	DD	imagerel $LN70+118
	DD	imagerel $chain$1$?_Tidy@?$vector@U_CAPTION_CHAR_DATA@@V?$allocator@U_CAPTION_CHAR_DATA@@@std@@@std@@IEAAXXZ
pdata	ENDS
;	COMDAT pdata
pdata	SEGMENT
$pdata$2$?_Tidy@?$vector@U_CAPTION_CHAR_DATA@@V?$allocator@U_CAPTION_CHAR_DATA@@@std@@@std@@IEAAXXZ DD imagerel $LN70+118
	DD	imagerel $LN70+129
	DD	imagerel $chain$2$?_Tidy@?$vector@U_CAPTION_CHAR_DATA@@V?$allocator@U_CAPTION_CHAR_DATA@@@std@@@std@@IEAAXXZ
pdata	ENDS
;	COMDAT pdata
pdata	SEGMENT
$pdata$?_Destroy@?$vector@U_CAPTION_CHAR_DATA@@V?$allocator@U_CAPTION_CHAR_DATA@@@std@@@std@@IEAAXPEAU_CAPTION_CHAR_DATA@@0@Z DD imagerel $LN60
	DD	imagerel $LN60+15
	DD	imagerel $unwind$?_Destroy@?$vector@U_CAPTION_CHAR_DATA@@V?$allocator@U_CAPTION_CHAR_DATA@@@std@@@std@@IEAAXPEAU_CAPTION_CHAR_DATA@@0@Z
pdata	ENDS
;	COMDAT pdata
pdata	SEGMENT
$pdata$0$?_Destroy@?$vector@U_CAPTION_CHAR_DATA@@V?$allocator@U_CAPTION_CHAR_DATA@@@std@@@std@@IEAAXPEAU_CAPTION_CHAR_DATA@@0@Z DD imagerel $LN60+15
	DD	imagerel $LN60+87
	DD	imagerel $chain$0$?_Destroy@?$vector@U_CAPTION_CHAR_DATA@@V?$allocator@U_CAPTION_CHAR_DATA@@@std@@@std@@IEAAXPEAU_CAPTION_CHAR_DATA@@0@Z
pdata	ENDS
;	COMDAT pdata
pdata	SEGMENT
$pdata$1$?_Destroy@?$vector@U_CAPTION_CHAR_DATA@@V?$allocator@U_CAPTION_CHAR_DATA@@@std@@@std@@IEAAXPEAU_CAPTION_CHAR_DATA@@0@Z DD imagerel $LN60+87
	DD	imagerel $LN60+89
	DD	imagerel $chain$1$?_Destroy@?$vector@U_CAPTION_CHAR_DATA@@V?$allocator@U_CAPTION_CHAR_DATA@@@std@@@std@@IEAAXPEAU_CAPTION_CHAR_DATA@@0@Z
pdata	ENDS
;	COMDAT pdata
pdata	SEGMENT
$pdata$?_Tidy@?$basic_string@DU?$char_traits@D@std@@V?$allocator@D@2@@std@@QEAAX_N_K@Z DD imagerel $LN33
	DD	imagerel $LN33+27
	DD	imagerel $unwind$?_Tidy@?$basic_string@DU?$char_traits@D@std@@V?$allocator@D@2@@std@@QEAAX_N_K@Z
pdata	ENDS
;	COMDAT pdata
pdata	SEGMENT
$pdata$0$?_Tidy@?$basic_string@DU?$char_traits@D@std@@V?$allocator@D@2@@std@@QEAAX_N_K@Z DD imagerel $LN33+27
	DD	imagerel $LN33+63
	DD	imagerel $chain$0$?_Tidy@?$basic_string@DU?$char_traits@D@std@@V?$allocator@D@2@@std@@QEAAX_N_K@Z
pdata	ENDS
;	COMDAT pdata
pdata	SEGMENT
$pdata$1$?_Tidy@?$basic_string@DU?$char_traits@D@std@@V?$allocator@D@2@@std@@QEAAX_N_K@Z DD imagerel $LN33+63
	DD	imagerel $LN33+90
	DD	imagerel $chain$1$?_Tidy@?$basic_string@DU?$char_traits@D@std@@V?$allocator@D@2@@std@@QEAAX_N_K@Z
pdata	ENDS
;	COMDAT pdata
pdata	SEGMENT
$pdata$?assign@?$basic_string@DU?$char_traits@D@std@@V?$allocator@D@2@@std@@QEAAAEAV12@AEBV12@_K1@Z DD imagerel $LN59
	DD	imagerel $LN59+222
	DD	imagerel $unwind$?assign@?$basic_string@DU?$char_traits@D@std@@V?$allocator@D@2@@std@@QEAAAEAV12@AEBV12@_K1@Z
pdata	ENDS
;	COMDAT pdata
pdata	SEGMENT
$pdata$?_Assign_rv@?$basic_string@DU?$char_traits@D@std@@V?$allocator@D@2@@std@@QEAAX$$QEAV12@@Z DD imagerel $LN58
	DD	imagerel $LN58+104
	DD	imagerel $unwind$?_Assign_rv@?$basic_string@DU?$char_traits@D@std@@V?$allocator@D@2@@std@@QEAAX$$QEAV12@@Z
pdata	ENDS
;	COMDAT pdata
pdata	SEGMENT
$pdata$??1?$vector@U_LANG_TAG_INFO@@V?$allocator@U_LANG_TAG_INFO@@@std@@@std@@QEAA@XZ DD imagerel $LN15
	DD	imagerel $LN15+42
	DD	imagerel $unwind$??1?$vector@U_LANG_TAG_INFO@@V?$allocator@U_LANG_TAG_INFO@@@std@@@std@@QEAA@XZ
pdata	ENDS
;	COMDAT pdata
pdata	SEGMENT
$pdata$??1?$vector@U_CAPTION_DATA@@V?$allocator@U_CAPTION_DATA@@@std@@@std@@QEAA@XZ DD imagerel $LN15
	DD	imagerel $LN15+54
	DD	imagerel $unwind$??1?$vector@U_CAPTION_DATA@@V?$allocator@U_CAPTION_DATA@@@std@@@std@@QEAA@XZ
pdata	ENDS
;	COMDAT pdata
pdata	SEGMENT
$pdata$?push_back@?$vector@PEAU_CAPTION_LINE@@V?$allocator@PEAU_CAPTION_LINE@@@std@@@std@@QEAAXAEBQEAU_CAPTION_LINE@@@Z DD imagerel $LN55
	DD	imagerel $LN55+134
	DD	imagerel $unwind$?push_back@?$vector@PEAU_CAPTION_LINE@@V?$allocator@PEAU_CAPTION_LINE@@@std@@@std@@QEAAXAEBQEAU_CAPTION_LINE@@@Z
pdata	ENDS
;	COMDAT pdata
pdata	SEGMENT
$pdata$??1?$vector@PEAU_CAPTION_LINE@@V?$allocator@PEAU_CAPTION_LINE@@@std@@@std@@QEAA@XZ DD imagerel $LN15
	DD	imagerel $LN15+42
	DD	imagerel $unwind$??1?$vector@PEAU_CAPTION_LINE@@V?$allocator@PEAU_CAPTION_LINE@@@std@@@std@@QEAA@XZ
pdata	ENDS
;	COMDAT pdata
pdata	SEGMENT
$pdata$?push_back@?$vector@PEAU_LINE_STR@@V?$allocator@PEAU_LINE_STR@@@std@@@std@@QEAAXAEBQEAU_LINE_STR@@@Z DD imagerel $LN55
	DD	imagerel $LN55+134
	DD	imagerel $unwind$?push_back@?$vector@PEAU_LINE_STR@@V?$allocator@PEAU_LINE_STR@@@std@@@std@@QEAAXAEBQEAU_LINE_STR@@@Z
pdata	ENDS
;	COMDAT pdata
pdata	SEGMENT
$pdata$??1?$vector@PEAU_LINE_STR@@V?$allocator@PEAU_LINE_STR@@@std@@@std@@QEAA@XZ DD imagerel $LN15
	DD	imagerel $LN15+42
	DD	imagerel $unwind$??1?$vector@PEAU_LINE_STR@@V?$allocator@PEAU_LINE_STR@@@std@@@std@@QEAA@XZ
pdata	ENDS
;	COMDAT pdata
pdata	SEGMENT
$pdata$??1?$basic_string@DU?$char_traits@D@std@@V?$allocator@D@2@@std@@QEAA@XZ DD imagerel $LN34
	DD	imagerel $LN34+50
	DD	imagerel $unwind$??1?$basic_string@DU?$char_traits@D@std@@V?$allocator@D@2@@std@@QEAA@XZ
pdata	ENDS
;	COMDAT pdata
pdata	SEGMENT
$pdata$??4?$basic_string@DU?$char_traits@D@std@@V?$allocator@D@2@@std@@QEAAAEAV01@$$QEAV01@@Z DD imagerel $LN187
	DD	imagerel $LN187+148
	DD	imagerel $unwind$??4?$basic_string@DU?$char_traits@D@std@@V?$allocator@D@2@@std@@QEAAAEAV01@$$QEAV01@@Z
pdata	ENDS
;	COMDAT pdata
pdata	SEGMENT
$pdata$??0?$basic_string@DU?$char_traits@D@std@@V?$allocator@D@2@@std@@QEAA@PEBD@Z DD imagerel $LN47
	DD	imagerel $LN47+60
	DD	imagerel $unwind$??0?$basic_string@DU?$char_traits@D@std@@V?$allocator@D@2@@std@@QEAA@PEBD@Z
pdata	ENDS
;	COMDAT pdata
pdata	SEGMENT
$pdata$??0?$basic_string@DU?$char_traits@D@std@@V?$allocator@D@2@@std@@QEAA@AEBV01@@Z DD imagerel $LN44
	DD	imagerel $LN44+49
	DD	imagerel $unwind$??0?$basic_string@DU?$char_traits@D@std@@V?$allocator@D@2@@std@@QEAA@AEBV01@@Z
pdata	ENDS
;	COMDAT pdata
pdata	SEGMENT
$pdata$wmain DD	imagerel $LN272
	DD	imagerel $LN272+1224
	DD	imagerel $unwind$wmain
pdata	ENDS
;	COMDAT pdata
pdata	SEGMENT
$pdata$?main_loop@@YAHAEAVCAppHandler@@AEAVCCaptionDllUtil@@AEAV?$vector@PEAU_CAPTION_LINE@@V?$allocator@PEAU_CAPTION_LINE@@@std@@@std@@@Z DD imagerel ?main_loop@@YAHAEAVCAppHandler@@AEAVCCaptionDllUtil@@AEAV?$vector@PEAU_CAPTION_LINE@@V?$allocator@PEAU_CAPTION_LINE@@@std@@@std@@@Z
	DD	imagerel ?main_loop@@YAHAEAVCAppHandler@@AEAVCCaptionDllUtil@@AEAV?$vector@PEAU_CAPTION_LINE@@V?$allocator@PEAU_CAPTION_LINE@@@std@@@std@@@Z+2194
	DD	imagerel $unwind$?main_loop@@YAHAEAVCAppHandler@@AEAVCCaptionDllUtil@@AEAV?$vector@PEAU_CAPTION_LINE@@V?$allocator@PEAU_CAPTION_LINE@@@std@@@std@@@Z
pdata	ENDS
;	COMDAT pdata
pdata	SEGMENT
$pdata$?output_caption@@YAHAEAVCAppHandler@@AEAVCCaptionDllUtil@@AEAV?$vector@PEAU_CAPTION_LINE@@V?$allocator@PEAU_CAPTION_LINE@@@std@@@std@@_J@Z DD imagerel ?output_caption@@YAHAEAVCAppHandler@@AEAVCCaptionDllUtil@@AEAV?$vector@PEAU_CAPTION_LINE@@V?$allocator@PEAU_CAPTION_LINE@@@std@@@std@@_J@Z
	DD	imagerel ?output_caption@@YAHAEAVCAppHandler@@AEAVCCaptionDllUtil@@AEAV?$vector@PEAU_CAPTION_LINE@@V?$allocator@PEAU_CAPTION_LINE@@@std@@@std@@_J@Z+2785
	DD	imagerel $unwind$?output_caption@@YAHAEAVCAppHandler@@AEAVCCaptionDllUtil@@AEAV?$vector@PEAU_CAPTION_LINE@@V?$allocator@PEAU_CAPTION_LINE@@@std@@@std@@_J@Z
pdata	ENDS
;	COMDAT pdata
pdata	SEGMENT
$pdata$??1_CAPTION_LINE@@QEAA@XZ DD imagerel $LN17
	DD	imagerel $LN17+44
	DD	imagerel $unwind$??1_CAPTION_LINE@@QEAA@XZ
pdata	ENDS
;	COMDAT pdata
pdata	SEGMENT
$pdata$??1_LINE_STR@@QEAA@XZ DD imagerel $LN36
	DD	imagerel $LN36+52
	DD	imagerel $unwind$??1_LINE_STR@@QEAA@XZ
pdata	ENDS
;	COMDAT pdata
pdata	SEGMENT
$pdata$??_G_CAPTION_LINE@@QEAAPEAXI@Z DD imagerel $LN20
	DD	imagerel $LN20+56
	DD	imagerel $unwind$??_G_CAPTION_LINE@@QEAAPEAXI@Z
pdata	ENDS
;	COMDAT pdata
pdata	SEGMENT
$pdata$??_G_LINE_STR@@QEAAPEAXI@Z DD imagerel $LN39
	DD	imagerel $LN39+64
	DD	imagerel $unwind$??_G_LINE_STR@@QEAAPEAXI@Z
pdata	ENDS
;	COMDAT pdata
pdata	SEGMENT
$pdata$?clear_caption_list@@YAXAEAV?$vector@PEAU_CAPTION_LINE@@V?$allocator@PEAU_CAPTION_LINE@@@std@@@std@@@Z DD imagerel ?clear_caption_list@@YAXAEAV?$vector@PEAU_CAPTION_LINE@@V?$allocator@PEAU_CAPTION_LINE@@@std@@@std@@@Z
	DD	imagerel ?clear_caption_list@@YAXAEAV?$vector@PEAU_CAPTION_LINE@@V?$allocator@PEAU_CAPTION_LINE@@@std@@@std@@@Z+27
	DD	imagerel $unwind$?clear_caption_list@@YAXAEAV?$vector@PEAU_CAPTION_LINE@@V?$allocator@PEAU_CAPTION_LINE@@@std@@@std@@@Z
pdata	ENDS
;	COMDAT pdata
pdata	SEGMENT
$pdata$2$?clear_caption_list@@YAXAEAV?$vector@PEAU_CAPTION_LINE@@V?$allocator@PEAU_CAPTION_LINE@@@std@@@std@@@Z DD imagerel ?clear_caption_list@@YAXAEAV?$vector@PEAU_CAPTION_LINE@@V?$allocator@PEAU_CAPTION_LINE@@@std@@@std@@@Z+27
	DD	imagerel ?clear_caption_list@@YAXAEAV?$vector@PEAU_CAPTION_LINE@@V?$allocator@PEAU_CAPTION_LINE@@@std@@@std@@@Z+213
	DD	imagerel $chain$2$?clear_caption_list@@YAXAEAV?$vector@PEAU_CAPTION_LINE@@V?$allocator@PEAU_CAPTION_LINE@@@std@@@std@@@Z
pdata	ENDS
;	COMDAT pdata
pdata	SEGMENT
$pdata$3$?clear_caption_list@@YAXAEAV?$vector@PEAU_CAPTION_LINE@@V?$allocator@PEAU_CAPTION_LINE@@@std@@@std@@@Z DD imagerel ?clear_caption_list@@YAXAEAV?$vector@PEAU_CAPTION_LINE@@V?$allocator@PEAU_CAPTION_LINE@@@std@@@std@@@Z+213
	DD	imagerel ?clear_caption_list@@YAXAEAV?$vector@PEAU_CAPTION_LINE@@V?$allocator@PEAU_CAPTION_LINE@@@std@@@std@@@Z+225
	DD	imagerel $chain$3$?clear_caption_list@@YAXAEAV?$vector@PEAU_CAPTION_LINE@@V?$allocator@PEAU_CAPTION_LINE@@@std@@@std@@@Z
pdata	ENDS
;	COMDAT pdata
pdata	SEGMENT
$pdata$?prepare_app_handler@@YAHAEAVCAppHandler@@HPEAPEA_W@Z DD imagerel ?prepare_app_handler@@YAHAEAVCAppHandler@@HPEAPEA_W@Z
	DD	imagerel ?prepare_app_handler@@YAHAEAVCAppHandler@@HPEAPEA_W@Z+788
	DD	imagerel $unwind$?prepare_app_handler@@YAHAEAVCAppHandler@@HPEAPEA_W@Z
pdata	ENDS
;	COMDAT pdata
pdata	SEGMENT
$pdata$?initialize_caption_dll@@YAHAEAVCAppHandler@@AEAVCCaptionDllUtil@@@Z DD imagerel ?initialize_caption_dll@@YAHAEAVCAppHandler@@AEAVCCaptionDllUtil@@@Z
	DD	imagerel ?initialize_caption_dll@@YAHAEAVCAppHandler@@AEAVCCaptionDllUtil@@@Z+170
	DD	imagerel $unwind$?initialize_caption_dll@@YAHAEAVCAppHandler@@AEAVCCaptionDllUtil@@@Z
pdata	ENDS
;	COMDAT pdata
pdata	SEGMENT
$pdata$?close_files@@YAXAEAVCAppHandler@@@Z DD imagerel ?close_files@@YAXAEAVCAppHandler@@@Z
	DD	imagerel ?close_files@@YAXAEAVCAppHandler@@@Z+91
	DD	imagerel $unwind$?close_files@@YAXAEAVCAppHandler@@@Z
pdata	ENDS
;	COMDAT pdata
pdata	SEGMENT
$pdata$?setup_output_filename@@YAXAEAVCAppHandler@@@Z DD imagerel ?setup_output_filename@@YAXAEAVCAppHandler@@@Z
	DD	imagerel ?setup_output_filename@@YAXAEAVCAppHandler@@@Z+171
	DD	imagerel $unwind$?setup_output_filename@@YAXAEAVCAppHandler@@@Z
pdata	ENDS
;	COMDAT pdata
pdata	SEGMENT
$pdata$?setup_output_settings@@YAHAEAVCAppHandler@@@Z DD imagerel ?setup_output_settings@@YAHAEAVCAppHandler@@@Z
	DD	imagerel ?setup_output_settings@@YAHAEAVCAppHandler@@@Z+86
	DD	imagerel $unwind$?setup_output_settings@@YAHAEAVCAppHandler@@@Z
pdata	ENDS
;	COMDAT pdata
pdata	SEGMENT
$pdata$?open_output_files@@YAHAEAVCAppHandler@@@Z DD imagerel ?open_output_files@@YAHAEAVCAppHandler@@@Z
	DD	imagerel ?open_output_files@@YAHAEAVCAppHandler@@@Z+86
	DD	imagerel $unwind$?open_output_files@@YAHAEAVCAppHandler@@@Z
pdata	ENDS
;	COMDAT pdata
pdata	SEGMENT
$pdata$?output_header@@YAXAEAVCAppHandler@@@Z DD imagerel ?output_header@@YAXAEAVCAppHandler@@@Z
	DD	imagerel ?output_header@@YAXAEAVCAppHandler@@@Z+67
	DD	imagerel $unwind$?output_header@@YAXAEAVCAppHandler@@@Z
pdata	ENDS
;	COMDAT pdata
pdata	SEGMENT
$pdata$?Dump@CSrtHandler@@UEAAXAEAV?$vector@PEAU_CAPTION_LINE@@V?$allocator@PEAU_CAPTION_LINE@@@std@@@std@@K@Z DD imagerel $LN268
	DD	imagerel $LN268+25
	DD	imagerel $unwind$?Dump@CSrtHandler@@UEAAXAEAV?$vector@PEAU_CAPTION_LINE@@V?$allocator@PEAU_CAPTION_LINE@@@std@@@std@@K@Z
pdata	ENDS
;	COMDAT pdata
pdata	SEGMENT
$pdata$1$?Dump@CSrtHandler@@UEAAXAEAV?$vector@PEAU_CAPTION_LINE@@V?$allocator@PEAU_CAPTION_LINE@@@std@@@std@@K@Z DD imagerel $LN268+25
	DD	imagerel $LN268+73
	DD	imagerel $chain$1$?Dump@CSrtHandler@@UEAAXAEAV?$vector@PEAU_CAPTION_LINE@@V?$allocator@PEAU_CAPTION_LINE@@@std@@@std@@K@Z
pdata	ENDS
;	COMDAT pdata
pdata	SEGMENT
$pdata$5$?Dump@CSrtHandler@@UEAAXAEAV?$vector@PEAU_CAPTION_LINE@@V?$allocator@PEAU_CAPTION_LINE@@@std@@@std@@K@Z DD imagerel $LN268+73
	DD	imagerel $LN268+1159
	DD	imagerel $chain$5$?Dump@CSrtHandler@@UEAAXAEAV?$vector@PEAU_CAPTION_LINE@@V?$allocator@PEAU_CAPTION_LINE@@@std@@@std@@K@Z
pdata	ENDS
;	COMDAT pdata
pdata	SEGMENT
$pdata$6$?Dump@CSrtHandler@@UEAAXAEAV?$vector@PEAU_CAPTION_LINE@@V?$allocator@PEAU_CAPTION_LINE@@@std@@@std@@K@Z DD imagerel $LN268+1159
	DD	imagerel $LN268+1188
	DD	imagerel $chain$6$?Dump@CSrtHandler@@UEAAXAEAV?$vector@PEAU_CAPTION_LINE@@V?$allocator@PEAU_CAPTION_LINE@@@std@@@std@@K@Z
pdata	ENDS
;	COMDAT pdata
pdata	SEGMENT
$pdata$7$?Dump@CSrtHandler@@UEAAXAEAV?$vector@PEAU_CAPTION_LINE@@V?$allocator@PEAU_CAPTION_LINE@@@std@@@std@@K@Z DD imagerel $LN268+1188
	DD	imagerel $LN268+1239
	DD	imagerel $chain$7$?Dump@CSrtHandler@@UEAAXAEAV?$vector@PEAU_CAPTION_LINE@@V?$allocator@PEAU_CAPTION_LINE@@@std@@@std@@K@Z
pdata	ENDS
;	COMDAT pdata
pdata	SEGMENT
$pdata$?Dump@CAssHandler@@UEAAXAEAV?$vector@PEAU_CAPTION_LINE@@V?$allocator@PEAU_CAPTION_LINE@@@std@@@std@@K@Z DD imagerel $LN789
	DD	imagerel $LN789+3444
	DD	imagerel $unwind$?Dump@CAssHandler@@UEAAXAEAV?$vector@PEAU_CAPTION_LINE@@V?$allocator@PEAU_CAPTION_LINE@@@std@@@std@@K@Z
pdata	ENDS
;	COMDAT pdata
pdata	SEGMENT
$pdata$?Setup@CAssHandler@@UEAAHXZ DD imagerel $LN38
	DD	imagerel $LN38+30
	DD	imagerel $unwind$?Setup@CAssHandler@@UEAAHXZ
pdata	ENDS
;	COMDAT pdata
pdata	SEGMENT
$pdata$0$?Setup@CAssHandler@@UEAAHXZ DD imagerel $LN38+30
	DD	imagerel $LN38+73
	DD	imagerel $chain$0$?Setup@CAssHandler@@UEAAHXZ
pdata	ENDS
;	COMDAT pdata
pdata	SEGMENT
$pdata$2$?Setup@CAssHandler@@UEAAHXZ DD imagerel $LN38+73
	DD	imagerel $LN38+109
	DD	imagerel $chain$2$?Setup@CAssHandler@@UEAAHXZ
pdata	ENDS
;	COMDAT pdata
pdata	SEGMENT
$pdata$?Close@CSrtHandler@@UEAAXXZ DD imagerel $LN8
	DD	imagerel $LN8+82
	DD	imagerel $unwind$?Close@CSrtHandler@@UEAAXXZ
pdata	ENDS
;	COMDAT pdata
pdata	SEGMENT
$pdata$?Close@CAssHandler@@UEAAXXZ DD imagerel $LN8
	DD	imagerel $LN8+82
	DD	imagerel $unwind$?Close@CAssHandler@@UEAAXXZ
pdata	ENDS
;	COMDAT pdata
pdata	SEGMENT
$pdata$?Close@CLogHandler@@UEAAXXZ DD imagerel $LN8
	DD	imagerel $LN8+81
	DD	imagerel $unwind$?Close@CLogHandler@@UEAAXXZ
pdata	ENDS
;	COMDAT pdata
pdata	SEGMENT
$pdata$?WriteHeader@CAssHandler@@UEAAXXZ DD imagerel $LN7
	DD	imagerel $LN7+64
	DD	imagerel $unwind$?WriteHeader@CAssHandler@@UEAAXXZ
pdata	ENDS
;	COMDAT pdata
pdata	SEGMENT
$pdata$?Open@CSrtHandler@@UEAAHXZ DD imagerel $LN26
	DD	imagerel $LN26+75
	DD	imagerel $unwind$?Open@CSrtHandler@@UEAAHXZ
pdata	ENDS
;	COMDAT pdata
pdata	SEGMENT
$pdata$?Open@CAssHandler@@UEAAHXZ DD imagerel $LN24
	DD	imagerel $LN24+64
	DD	imagerel $unwind$?Open@CAssHandler@@UEAAHXZ
pdata	ENDS
;	COMDAT pdata
pdata	SEGMENT
$pdata$?Open@CLogHandler@@UEAAHXZ DD imagerel $LN5
	DD	imagerel $LN5+31
	DD	imagerel $unwind$?Open@CLogHandler@@UEAAHXZ
pdata	ENDS
;	COMDAT pdata
pdata	SEGMENT
$pdata$?SetName@CSrtHandler@@UEAAXXZ DD imagerel $LN23
	DD	imagerel $LN23+87
	DD	imagerel $unwind$?SetName@CSrtHandler@@UEAAXXZ
pdata	ENDS
;	COMDAT pdata
pdata	SEGMENT
$pdata$?SetName@CAssHandler@@UEAAXXZ DD imagerel $LN23
	DD	imagerel $LN23+82
	DD	imagerel $unwind$?SetName@CAssHandler@@UEAAXXZ
pdata	ENDS
;	COMDAT pdata
pdata	SEGMENT
$pdata$?SetName@CLogHandler@@UEAAXXZ DD imagerel $LN23
	DD	imagerel $LN23+27
	DD	imagerel $unwind$?SetName@CLogHandler@@UEAAXXZ
pdata	ENDS
;	COMDAT pdata
pdata	SEGMENT
$pdata$1$?SetName@CLogHandler@@UEAAXXZ DD imagerel $LN23+27
	DD	imagerel $LN23+118
	DD	imagerel $chain$1$?SetName@CLogHandler@@UEAAXXZ
pdata	ENDS
;	COMDAT pdata
pdata	SEGMENT
$pdata$2$?SetName@CLogHandler@@UEAAXXZ DD imagerel $LN23+118
	DD	imagerel $LN23+129
	DD	imagerel $chain$2$?SetName@CLogHandler@@UEAAXXZ
pdata	ENDS
;	COMDAT pdata
pdata	SEGMENT
$pdata$?Free@CAppHandler@@QEAAXXZ DD imagerel $LN26
	DD	imagerel $LN26+152
	DD	imagerel $unwind$?Free@CAppHandler@@QEAAXXZ
pdata	ENDS
;	COMDAT pdata
pdata	SEGMENT
$pdata$??_GCCaption2AssParameter@@QEAAPEAXI@Z DD imagerel $LN7
	DD	imagerel $LN7+32
	DD	imagerel $unwind$??_GCCaption2AssParameter@@QEAAPEAXI@Z
pdata	ENDS
;	COMDAT pdata
pdata	SEGMENT
$pdata$??_GCSrtHandler@@QEAAPEAXI@Z DD imagerel $LN10
	DD	imagerel $LN10+60
	DD	imagerel $unwind$??_GCSrtHandler@@QEAAPEAXI@Z
pdata	ENDS
;	COMDAT pdata
pdata	SEGMENT
$pdata$??_GCAssHandler@@QEAAPEAXI@Z DD imagerel $LN10
	DD	imagerel $LN10+60
	DD	imagerel $unwind$??_GCAssHandler@@QEAAPEAXI@Z
pdata	ENDS
;	COMDAT pdata
pdata	SEGMENT
$pdata$??_GCLogHandler@@QEAAPEAXI@Z DD imagerel $LN10
	DD	imagerel $LN10+60
	DD	imagerel $unwind$??_GCLogHandler@@QEAAPEAXI@Z
pdata	ENDS
;	COMDAT pdata
pdata	SEGMENT
$pdata$?Allocate@CAppHandler@@QEAAH_K@Z DD imagerel $LN100
	DD	imagerel $LN100+719
	DD	imagerel $unwind$?Allocate@CAppHandler@@QEAAH_K@Z
pdata	ENDS
;	COMDAT pdata
pdata	SEGMENT
$pdata$??1CSrtHandler@@QEAA@XZ DD imagerel $LN7
	DD	imagerel $LN7+48
	DD	imagerel $unwind$??1CSrtHandler@@QEAA@XZ
pdata	ENDS
;	COMDAT pdata
pdata	SEGMENT
$pdata$??1CAssHandler@@QEAA@XZ DD imagerel $LN7
	DD	imagerel $LN7+48
	DD	imagerel $unwind$??1CAssHandler@@QEAA@XZ
pdata	ENDS
;	COMDAT pdata
pdata	SEGMENT
$pdata$??1CLogHandler@@QEAA@XZ DD imagerel $LN7
	DD	imagerel $LN7+48
	DD	imagerel $unwind$??1CLogHandler@@QEAA@XZ
pdata	ENDS
;	COMDAT pdata
pdata	SEGMENT
$pdata$?print@ILogHandler@@QEAAXPEB_WZZ DD imagerel $LN4
	DD	imagerel $LN4+39
	DD	imagerel $unwind$?print@ILogHandler@@QEAAXPEB_WZZ
pdata	ENDS
;	COMDAT pdata
pdata	SEGMENT
$pdata$?Allocate@IOutputHandler@@QEAAH_K@Z DD imagerel $LN6
	DD	imagerel $LN6+104
	DD	imagerel $unwind$?Allocate@IOutputHandler@@QEAAH_K@Z
pdata	ENDS
;	COMDAT pdata
pdata	SEGMENT
$pdata$?close@IOutputHandler@@IEAAXH@Z DD imagerel $LN6
	DD	imagerel $LN6+74
	DD	imagerel $unwind$?close@IOutputHandler@@IEAAXH@Z
pdata	ENDS
;	COMDAT pdata
pdata	SEGMENT
$pdata$?open@IOutputHandler@@IEAAHPEA_W@Z DD imagerel $LN8
	DD	imagerel $LN8+191
	DD	imagerel $unwind$?open@IOutputHandler@@IEAAHPEA_W@Z
pdata	ENDS
;	COMDAT pdata
pdata	SEGMENT
$pdata$?set_name@IOutputHandler@@IEAAXPEA_W0@Z DD imagerel $LN4
	DD	imagerel $LN4+61
	DD	imagerel $unwind$?set_name@IOutputHandler@@IEAAXPEA_W0@Z
pdata	ENDS
;	COMDAT pdata
pdata	SEGMENT
$pdata$?release@IOutputHandler@@IEAAXXZ DD imagerel $LN5
	DD	imagerel $LN5+38
	DD	imagerel $unwind$?release@IOutputHandler@@IEAAXXZ
pdata	ENDS
;	COMDAT pdata
pdata	SEGMENT
$pdata$??_G_System_error_category@std@@UEAAPEAXI@Z DD imagerel $LN12
	DD	imagerel $LN12+39
	DD	imagerel $unwind$??_G_System_error_category@std@@UEAAPEAXI@Z
pdata	ENDS
;	COMDAT pdata
pdata	SEGMENT
$pdata$?default_error_condition@_System_error_category@std@@UEBA?AVerror_condition@2@H@Z DD imagerel $LN15
	DD	imagerel $LN15+64
	DD	imagerel $unwind$?default_error_condition@_System_error_category@std@@UEBA?AVerror_condition@2@H@Z
pdata	ENDS
;	COMDAT pdata
pdata	SEGMENT
$pdata$?message@_System_error_category@std@@UEBA?AV?$basic_string@DU?$char_traits@D@std@@V?$allocator@D@2@@2@H@Z DD imagerel $LN51
	DD	imagerel $LN51+98
	DD	imagerel $unwind$?message@_System_error_category@std@@UEBA?AV?$basic_string@DU?$char_traits@D@std@@V?$allocator@D@2@@2@H@Z
pdata	ENDS
;	COMDAT pdata
pdata	SEGMENT
$pdata$??_G_Iostream_error_category@std@@UEAAPEAXI@Z DD imagerel $LN12
	DD	imagerel $LN12+39
	DD	imagerel $unwind$??_G_Iostream_error_category@std@@UEAAPEAXI@Z
pdata	ENDS
;	COMDAT pdata
pdata	SEGMENT
$pdata$?message@_Iostream_error_category@std@@UEBA?AV?$basic_string@DU?$char_traits@D@std@@V?$allocator@D@2@@2@H@Z DD imagerel $LN53
	DD	imagerel $LN53+77
	DD	imagerel $unwind$?message@_Iostream_error_category@std@@UEBA?AV?$basic_string@DU?$char_traits@D@std@@V?$allocator@D@2@@2@H@Z
pdata	ENDS
;	COMDAT pdata
pdata	SEGMENT
$pdata$??_G_Generic_error_category@std@@UEAAPEAXI@Z DD imagerel $LN10
	DD	imagerel $LN10+39
	DD	imagerel $unwind$??_G_Generic_error_category@std@@UEAAPEAXI@Z
pdata	ENDS
;	COMDAT pdata
pdata	SEGMENT
$pdata$?message@_Generic_error_category@std@@UEBA?AV?$basic_string@DU?$char_traits@D@std@@V?$allocator@D@2@@2@H@Z DD imagerel $LN51
	DD	imagerel $LN51+98
	DD	imagerel $unwind$?message@_Generic_error_category@std@@UEBA?AV?$basic_string@DU?$char_traits@D@std@@V?$allocator@D@2@@2@H@Z
pdata	ENDS
;	COMDAT pdata
pdata	SEGMENT
$pdata$?equivalent@error_category@std@@UEBA_NHAEBVerror_condition@2@@Z DD imagerel $LN18
	DD	imagerel $LN18+55
	DD	imagerel $unwind$?equivalent@error_category@std@@UEBA_NHAEBVerror_condition@2@@Z
pdata	ENDS
;	COMDAT pdata
pdata	SEGMENT
$pdata$??_Gerror_category@std@@UEAAPEAXI@Z DD imagerel $LN8
	DD	imagerel $LN8+39
	DD	imagerel $unwind$??_Gerror_category@std@@UEAAPEAXI@Z
pdata	ENDS
;	COMDAT pdata
pdata	SEGMENT
$pdata$?copy@?$char_traits@D@std@@SAPEADPEADPEBD_K@Z DD imagerel $LN7
	DD	imagerel $LN7+28
	DD	imagerel $unwind$?copy@?$char_traits@D@std@@SAPEADPEADPEBD_K@Z
pdata	ENDS
;	COMDAT CRT$XCU
CRT$XCU	SEGMENT
?_Generic_object$initializer$@?$_Error_objects@H@std@@2P6AXXZEA DQ FLAT:??__E?_Generic_object@?$_Error_objects@H@std@@2V_Generic_error_category@2@A@@YAXXZ ; std::_Error_objects<int>::_Generic_object$initializer$
;	COMDAT ?_Generic_object@?$_Error_objects@H@std@@2V_Generic_error_category@2@A
_DATA	SEGMENT
?_Generic_object@?$_Error_objects@H@std@@2V_Generic_error_category@2@A DQ FLAT:??_7_Generic_error_category@std@@6B@ ; std::_Error_objects<int>::_Generic_object
_DATA	ENDS
;	COMDAT ?_Iostream_object@?$_Error_objects@H@std@@2V_Iostream_error_category@2@A
_DATA	SEGMENT
?_Iostream_object@?$_Error_objects@H@std@@2V_Iostream_error_category@2@A DQ FLAT:??_7_Iostream_error_category@std@@6B@ ; std::_Error_objects<int>::_Iostream_object
_DATA	ENDS
;	COMDAT ?_System_object@?$_Error_objects@H@std@@2V_System_error_category@2@A
_DATA	SEGMENT
?_System_object@?$_Error_objects@H@std@@2V_System_error_category@2@A DQ FLAT:??_7_System_error_category@std@@6B@ ; std::_Error_objects<int>::_System_object
_DATA	ENDS
;	COMDAT xdata
xdata	SEGMENT
$unwind$?copy@?$char_traits@D@std@@SAPEADPEADPEBD_K@Z DD 020601H
	DD	030023206H
xdata	ENDS
;	COMDAT xdata
xdata	SEGMENT
$unwind$??_Gerror_category@std@@UEAAPEAXI@Z DD 020601H
	DD	030023206H
xdata	ENDS
;	COMDAT xdata
xdata	SEGMENT
$unwind$?equivalent@error_category@std@@UEBA_NHAEBVerror_condition@2@@Z DD 020601H
	DD	030025206H
xdata	ENDS
;	COMDAT xdata
xdata	SEGMENT
$unwind$?message@_Generic_error_category@std@@UEBA?AV?$basic_string@DU?$char_traits@D@std@@V?$allocator@D@2@@2@H@Z DD 040a01H
	DD	08340aH
	DD	07006520aH
xdata	ENDS
;	COMDAT xdata
xdata	SEGMENT
$unwind$??_G_Generic_error_category@std@@UEAAPEAXI@Z DD 020601H
	DD	030023206H
xdata	ENDS
;	COMDAT xdata
xdata	SEGMENT
$unwind$?message@_Iostream_error_category@std@@UEBA?AV?$basic_string@DU?$char_traits@D@std@@V?$allocator@D@2@@2@H@Z DD 020601H
	DD	030025206H
xdata	ENDS
;	COMDAT xdata
xdata	SEGMENT
$unwind$??_G_Iostream_error_category@std@@UEAAPEAXI@Z DD 020601H
	DD	030023206H
xdata	ENDS
;	COMDAT xdata
xdata	SEGMENT
$unwind$?message@_System_error_category@std@@UEBA?AV?$basic_string@DU?$char_traits@D@std@@V?$allocator@D@2@@2@H@Z DD 040a01H
	DD	08340aH
	DD	07006520aH
xdata	ENDS
;	COMDAT xdata
xdata	SEGMENT
$unwind$?default_error_condition@_System_error_category@std@@UEBA?AVerror_condition@2@H@Z DD 040a01H
	DD	06340aH
	DD	07006320aH
xdata	ENDS
;	COMDAT xdata
xdata	SEGMENT
$unwind$??_G_System_error_category@std@@UEAAPEAXI@Z DD 020601H
	DD	030023206H
xdata	ENDS
;	COMDAT xdata
xdata	SEGMENT
$unwind$?release@IOutputHandler@@IEAAXXZ DD 020601H
	DD	030023206H
xdata	ENDS
;	COMDAT xdata
xdata	SEGMENT
$unwind$?set_name@IOutputHandler@@IEAAXPEA_W0@Z DD 040a01H
	DD	06340aH
	DD	07006320aH
xdata	ENDS
;	COMDAT xdata
xdata	SEGMENT
$unwind$?open@IOutputHandler@@IEAAHPEA_W@Z DD 060f01H
	DD	07640fH
	DD	06340fH
	DD	0700b320fH
xdata	ENDS
;	COMDAT xdata
xdata	SEGMENT
$unwind$?close@IOutputHandler@@IEAAXH@Z DD 040a01H
	DD	06340aH
	DD	07006320aH
xdata	ENDS
;	COMDAT xdata
xdata	SEGMENT
$unwind$?Allocate@IOutputHandler@@QEAAH_K@Z DD 040a01H
	DD	06340aH
	DD	07006320aH
xdata	ENDS
;	COMDAT xdata
xdata	SEGMENT
$unwind$?print@ILogHandler@@QEAAXPEB_WZZ DD 011301H
	DD	04213H
xdata	ENDS
;	COMDAT xdata
xdata	SEGMENT
$unwind$??1CLogHandler@@QEAA@XZ DD 020601H
	DD	030023206H
xdata	ENDS
;	COMDAT xdata
xdata	SEGMENT
$unwind$??1CAssHandler@@QEAA@XZ DD 020601H
	DD	030023206H
xdata	ENDS
;	COMDAT xdata
xdata	SEGMENT
$unwind$??1CSrtHandler@@QEAA@XZ DD 020601H
	DD	030023206H
xdata	ENDS
;	COMDAT xdata
xdata	SEGMENT
$unwind$?Allocate@CAppHandler@@QEAAH_K@Z DD 0c1c01H
	DD	0c641cH
	DD	0b541cH
	DD	0a341cH
	DD	0f018321cH
	DD	0d014e016H
	DD	07010c012H
xdata	ENDS
;	COMDAT xdata
xdata	SEGMENT
$unwind$??_GCLogHandler@@QEAAPEAXI@Z DD 020601H
	DD	030023206H
xdata	ENDS
;	COMDAT xdata
xdata	SEGMENT
$unwind$??_GCAssHandler@@QEAAPEAXI@Z DD 020601H
	DD	030023206H
xdata	ENDS
;	COMDAT xdata
xdata	SEGMENT
$unwind$??_GCSrtHandler@@QEAAPEAXI@Z DD 020601H
	DD	030023206H
xdata	ENDS
;	COMDAT xdata
xdata	SEGMENT
$unwind$??_GCCaption2AssParameter@@QEAAPEAXI@Z DD 020601H
	DD	030023206H
xdata	ENDS
;	COMDAT xdata
xdata	SEGMENT
$unwind$?Free@CAppHandler@@QEAAXXZ DD 081401H
	DD	086414H
	DD	075414H
	DD	063414H
	DD	070103214H
xdata	ENDS
;	COMDAT xdata
xdata	SEGMENT
$chain$2$?SetName@CLogHandler@@UEAAXXZ DD 021H
	DD	imagerel $LN23
	DD	imagerel $LN23+27
	DD	imagerel $unwind$?SetName@CLogHandler@@UEAAXXZ
xdata	ENDS
;	COMDAT xdata
xdata	SEGMENT
$chain$1$?SetName@CLogHandler@@UEAAXXZ DD 040a21H
	DD	07640aH
	DD	065405H
	DD	imagerel $LN23
	DD	imagerel $LN23+27
	DD	imagerel $unwind$?SetName@CLogHandler@@UEAAXXZ
xdata	ENDS
;	COMDAT xdata
xdata	SEGMENT
$unwind$?SetName@CLogHandler@@UEAAXXZ DD 040a01H
	DD	08340aH
	DD	07006320aH
xdata	ENDS
;	COMDAT xdata
xdata	SEGMENT
$unwind$?SetName@CAssHandler@@UEAAXXZ DD 020601H
	DD	030023206H
xdata	ENDS
;	COMDAT xdata
xdata	SEGMENT
$unwind$?SetName@CSrtHandler@@UEAAXXZ DD 020601H
	DD	030023206H
xdata	ENDS
;	COMDAT xdata
xdata	SEGMENT
$unwind$?Open@CLogHandler@@UEAAHXZ DD 010401H
	DD	04204H
xdata	ENDS
;	COMDAT xdata
xdata	SEGMENT
$unwind$?Open@CAssHandler@@UEAAHXZ DD 020601H
	DD	030023206H
xdata	ENDS
;	COMDAT xdata
xdata	SEGMENT
$unwind$?Open@CSrtHandler@@UEAAHXZ DD 020601H
	DD	030023206H
xdata	ENDS
;	COMDAT xdata
xdata	SEGMENT
$unwind$?WriteHeader@CAssHandler@@UEAAXXZ DD 020601H
	DD	030023206H
xdata	ENDS
;	COMDAT xdata
xdata	SEGMENT
$unwind$?Close@CLogHandler@@UEAAXXZ DD 040a01H
	DD	06340aH
	DD	07006320aH
xdata	ENDS
;	COMDAT xdata
xdata	SEGMENT
$unwind$?Close@CAssHandler@@UEAAXXZ DD 040a01H
	DD	06340aH
	DD	07006320aH
xdata	ENDS
;	COMDAT xdata
xdata	SEGMENT
$unwind$?Close@CSrtHandler@@UEAAXXZ DD 040a01H
	DD	06340aH
	DD	07006320aH
xdata	ENDS
;	COMDAT xdata
xdata	SEGMENT
$chain$2$?Setup@CAssHandler@@UEAAHXZ DD 020021H
	DD	067400H
	DD	imagerel $LN38
	DD	imagerel $LN38+30
	DD	imagerel $unwind$?Setup@CAssHandler@@UEAAHXZ
xdata	ENDS
;	COMDAT xdata
xdata	SEGMENT
$chain$0$?Setup@CAssHandler@@UEAAHXZ DD 020521H
	DD	067405H
	DD	imagerel $LN38
	DD	imagerel $LN38+30
	DD	imagerel $unwind$?Setup@CAssHandler@@UEAAHXZ
xdata	ENDS
;	COMDAT xdata
xdata	SEGMENT
$unwind$?Setup@CAssHandler@@UEAAHXZ DD 020601H
	DD	030023206H
xdata	ENDS
;	COMDAT xdata
xdata	SEGMENT
$unwind$?Dump@CAssHandler@@UEAAXAEAV?$vector@PEAU_CAPTION_LINE@@V?$allocator@PEAU_CAPTION_LINE@@@std@@@std@@K@Z DD 0d3119H
	DD	0a7641fH
	DD	0a6541fH
	DD	0a5341fH
	DD	09e011fH
	DD	0e016f018H
	DD	0c012d014H
	DD	07010H
	DD	imagerel __GSHandlerCheck
	DD	04e0H
xdata	ENDS
;	COMDAT xdata
xdata	SEGMENT
$chain$7$?Dump@CSrtHandler@@UEAAXAEAV?$vector@PEAU_CAPTION_LINE@@V?$allocator@PEAU_CAPTION_LINE@@@std@@@std@@K@Z DD 021H
	DD	imagerel $LN268
	DD	imagerel $LN268+25
	DD	imagerel $unwind$?Dump@CSrtHandler@@UEAAXAEAV?$vector@PEAU_CAPTION_LINE@@V?$allocator@PEAU_CAPTION_LINE@@@std@@@std@@K@Z
xdata	ENDS
;	COMDAT xdata
xdata	SEGMENT
$chain$6$?Dump@CSrtHandler@@UEAAXAEAV?$vector@PEAU_CAPTION_LINE@@V?$allocator@PEAU_CAPTION_LINE@@@std@@@std@@K@Z DD 021H
	DD	imagerel $LN268+25
	DD	imagerel $LN268+73
	DD	imagerel $chain$1$?Dump@CSrtHandler@@UEAAXAEAV?$vector@PEAU_CAPTION_LINE@@V?$allocator@PEAU_CAPTION_LINE@@@std@@@std@@K@Z
xdata	ENDS
;	COMDAT xdata
xdata	SEGMENT
$chain$5$?Dump@CSrtHandler@@UEAAXAEAV?$vector@PEAU_CAPTION_LINE@@V?$allocator@PEAU_CAPTION_LINE@@@std@@@std@@K@Z DD 081021H
	DD	0ee410H
	DD	0fc40cH
	DD	0115408H
	DD	0123404H
	DD	imagerel $LN268+25
	DD	imagerel $LN268+73
	DD	imagerel $chain$1$?Dump@CSrtHandler@@UEAAXAEAV?$vector@PEAU_CAPTION_LINE@@V?$allocator@PEAU_CAPTION_LINE@@@std@@@std@@K@Z
xdata	ENDS
;	COMDAT xdata
xdata	SEGMENT
$chain$1$?Dump@CSrtHandler@@UEAAXAEAV?$vector@PEAU_CAPTION_LINE@@V?$allocator@PEAU_CAPTION_LINE@@@std@@@std@@K@Z DD 041521H
	DD	0df415H
	DD	0107404H
	DD	imagerel $LN268
	DD	imagerel $LN268+25
	DD	imagerel $unwind$?Dump@CSrtHandler@@UEAAXAEAV?$vector@PEAU_CAPTION_LINE@@V?$allocator@PEAU_CAPTION_LINE@@@std@@@std@@K@Z
xdata	ENDS
;	COMDAT xdata
xdata	SEGMENT
$unwind$?Dump@CSrtHandler@@UEAAXAEAV?$vector@PEAU_CAPTION_LINE@@V?$allocator@PEAU_CAPTION_LINE@@@std@@@std@@K@Z DD 041501H
	DD	0130115H
	DD	0600cd00eH
xdata	ENDS
;	COMDAT xdata
xdata	SEGMENT
$unwind$?output_header@@YAXAEAVCAppHandler@@@Z DD 040a01H
	DD	06340aH
	DD	07006320aH
xdata	ENDS
;	COMDAT xdata
xdata	SEGMENT
$unwind$?open_output_files@@YAHAEAVCAppHandler@@@Z DD 040a01H
	DD	06340aH
	DD	07006320aH
xdata	ENDS
;	COMDAT xdata
xdata	SEGMENT
$unwind$?setup_output_settings@@YAHAEAVCAppHandler@@@Z DD 040a01H
	DD	06340aH
	DD	07006320aH
xdata	ENDS
;	COMDAT xdata
xdata	SEGMENT
$unwind$?setup_output_filename@@YAXAEAVCAppHandler@@@Z DD 060f01H
	DD	07640fH
	DD	06340fH
	DD	0700b320fH
xdata	ENDS
;	COMDAT xdata
xdata	SEGMENT
$unwind$?close_files@@YAXAEAVCAppHandler@@@Z DD 060f01H
	DD	07640fH
	DD	06340fH
	DD	0700b320fH
xdata	ENDS
;	COMDAT xdata
xdata	SEGMENT
$unwind$?initialize_caption_dll@@YAHAEAVCAppHandler@@AEAVCCaptionDllUtil@@@Z DD 060f01H
	DD	07640fH
	DD	06340fH
	DD	0700b320fH
xdata	ENDS
;	COMDAT xdata
xdata	SEGMENT
$unwind$?prepare_app_handler@@YAHAEAVCAppHandler@@HPEAPEA_W@Z DD 0d6601H
	DD	04e466H
	DD	0cd461H
	DD	0b6457H
	DD	0a3452H
	DD	0f007420bH
	DD	07003c005H
	DD	05002H
xdata	ENDS
;	COMDAT xdata
xdata	SEGMENT
$chain$3$?clear_caption_list@@YAXAEAV?$vector@PEAU_CAPTION_LINE@@V?$allocator@PEAU_CAPTION_LINE@@@std@@@std@@@Z DD 021H
	DD	imagerel ?clear_caption_list@@YAXAEAV?$vector@PEAU_CAPTION_LINE@@V?$allocator@PEAU_CAPTION_LINE@@@std@@@std@@@Z
	DD	imagerel ?clear_caption_list@@YAXAEAV?$vector@PEAU_CAPTION_LINE@@V?$allocator@PEAU_CAPTION_LINE@@@std@@@std@@@Z+27
	DD	imagerel $unwind$?clear_caption_list@@YAXAEAV?$vector@PEAU_CAPTION_LINE@@V?$allocator@PEAU_CAPTION_LINE@@@std@@@std@@@Z
xdata	ENDS
;	COMDAT xdata
xdata	SEGMENT
$chain$2$?clear_caption_list@@YAXAEAV?$vector@PEAU_CAPTION_LINE@@V?$allocator@PEAU_CAPTION_LINE@@@std@@@std@@@Z DD 060f21H
	DD	08640fH
	DD	07540aH
	DD	063405H
	DD	imagerel ?clear_caption_list@@YAXAEAV?$vector@PEAU_CAPTION_LINE@@V?$allocator@PEAU_CAPTION_LINE@@@std@@@std@@@Z
	DD	imagerel ?clear_caption_list@@YAXAEAV?$vector@PEAU_CAPTION_LINE@@V?$allocator@PEAU_CAPTION_LINE@@@std@@@std@@@Z+27
	DD	imagerel $unwind$?clear_caption_list@@YAXAEAV?$vector@PEAU_CAPTION_LINE@@V?$allocator@PEAU_CAPTION_LINE@@@std@@@std@@@Z
xdata	ENDS
;	COMDAT xdata
xdata	SEGMENT
$unwind$?clear_caption_list@@YAXAEAV?$vector@PEAU_CAPTION_LINE@@V?$allocator@PEAU_CAPTION_LINE@@@std@@@std@@@Z DD 040b01H
	DD	09740bH
	DD	0e007320bH
xdata	ENDS
;	COMDAT xdata
xdata	SEGMENT
$unwind$??_G_LINE_STR@@QEAAPEAXI@Z DD 020601H
	DD	030023206H
xdata	ENDS
;	COMDAT xdata
xdata	SEGMENT
$unwind$??_G_CAPTION_LINE@@QEAAPEAXI@Z DD 020601H
	DD	030023206H
xdata	ENDS
;	COMDAT xdata
xdata	SEGMENT
$unwind$??1_LINE_STR@@QEAA@XZ DD 020601H
	DD	030023206H
xdata	ENDS
;	COMDAT xdata
xdata	SEGMENT
$unwind$??1_CAPTION_LINE@@QEAA@XZ DD 020601H
	DD	030023206H
xdata	ENDS
;	COMDAT xdata
xdata	SEGMENT
$ip2state$?output_caption@@YAHAEAVCAppHandler@@AEAVCCaptionDllUtil@@AEAV?$vector@PEAU_CAPTION_LINE@@V?$allocator@PEAU_CAPTION_LINE@@@std@@@std@@_J@Z DD imagerel ?output_caption@@YAHAEAVCAppHandler@@AEAVCCaptionDllUtil@@AEAV?$vector@PEAU_CAPTION_LINE@@V?$allocator@PEAU_CAPTION_LINE@@@std@@@std@@_J@Z
	DD	0ffffffffH
	DD	imagerel ?output_caption@@YAHAEAVCAppHandler@@AEAVCCaptionDllUtil@@AEAV?$vector@PEAU_CAPTION_LINE@@V?$allocator@PEAU_CAPTION_LINE@@@std@@@std@@_J@Z+212
	DD	00H
	DD	imagerel ?output_caption@@YAHAEAVCAppHandler@@AEAVCCaptionDllUtil@@AEAV?$vector@PEAU_CAPTION_LINE@@V?$allocator@PEAU_CAPTION_LINE@@@std@@@std@@_J@Z+2595
	DD	0ffffffffH
xdata	ENDS
;	COMDAT xdata
xdata	SEGMENT
$stateUnwindMap$?output_caption@@YAHAEAVCAppHandler@@AEAVCCaptionDllUtil@@AEAV?$vector@PEAU_CAPTION_LINE@@V?$allocator@PEAU_CAPTION_LINE@@@std@@@std@@_J@Z DD 0ffffffffH
	DD	imagerel ?dtor$0@?0??output_caption@@YAHAEAVCAppHandler@@AEAVCCaptionDllUtil@@AEAV?$vector@PEAU_CAPTION_LINE@@V?$allocator@PEAU_CAPTION_LINE@@@std@@@std@@_J@Z@4HA
xdata	ENDS
;	COMDAT CONST
CONST	SEGMENT
$cppxdata$?output_caption@@YAHAEAVCAppHandler@@AEAVCCaptionDllUtil@@AEAV?$vector@PEAU_CAPTION_LINE@@V?$allocator@PEAU_CAPTION_LINE@@@std@@@std@@_J@Z DD 019930522H
	DD	01H
	DD	imagerel $stateUnwindMap$?output_caption@@YAHAEAVCAppHandler@@AEAVCCaptionDllUtil@@AEAV?$vector@PEAU_CAPTION_LINE@@V?$allocator@PEAU_CAPTION_LINE@@@std@@@std@@_J@Z
	DD	00H
	DD	00H
	DD	03H
	DD	imagerel $ip2state$?output_caption@@YAHAEAVCAppHandler@@AEAVCCaptionDllUtil@@AEAV?$vector@PEAU_CAPTION_LINE@@V?$allocator@PEAU_CAPTION_LINE@@@std@@@std@@_J@Z
	DD	0100H
	DD	00H
	DD	01H
CONST	ENDS
;	COMDAT xdata
xdata	SEGMENT
$unwind$?output_caption@@YAHAEAVCAppHandler@@AEAVCCaptionDllUtil@@AEAV?$vector@PEAU_CAPTION_LINE@@V?$allocator@PEAU_CAPTION_LINE@@@std@@@std@@_J@Z DD 0124b19H
	DD	0d4983aH
	DD	0d58832H
	DD	0d6782dH
	DD	0d76829H
	DD	01b1011dH
	DD	0e00df00fH
	DD	0c009d00bH
	DD	060067007H
	DD	050043005H
	DD	imagerel __GSHandlerCheck_EH
	DD	imagerel $cppxdata$?output_caption@@YAHAEAVCAppHandler@@AEAVCCaptionDllUtil@@AEAV?$vector@PEAU_CAPTION_LINE@@V?$allocator@PEAU_CAPTION_LINE@@@std@@@std@@_J@Z
	DD	0d32H
xdata	ENDS
;	COMDAT xdata
xdata	SEGMENT
$ip2state$?main_loop@@YAHAEAVCAppHandler@@AEAVCCaptionDllUtil@@AEAV?$vector@PEAU_CAPTION_LINE@@V?$allocator@PEAU_CAPTION_LINE@@@std@@@std@@@Z DD imagerel ?main_loop@@YAHAEAVCAppHandler@@AEAVCCaptionDllUtil@@AEAV?$vector@PEAU_CAPTION_LINE@@V?$allocator@PEAU_CAPTION_LINE@@@std@@@std@@@Z
	DD	0ffffffffH
	DD	imagerel ?main_loop@@YAHAEAVCAppHandler@@AEAVCCaptionDllUtil@@AEAV?$vector@PEAU_CAPTION_LINE@@V?$allocator@PEAU_CAPTION_LINE@@@std@@@std@@@Z+1885
	DD	00H
	DD	imagerel ?main_loop@@YAHAEAVCAppHandler@@AEAVCCaptionDllUtil@@AEAV?$vector@PEAU_CAPTION_LINE@@V?$allocator@PEAU_CAPTION_LINE@@@std@@@std@@@Z+1908
	DD	0ffffffffH
xdata	ENDS
;	COMDAT xdata
xdata	SEGMENT
$stateUnwindMap$?main_loop@@YAHAEAVCAppHandler@@AEAVCCaptionDllUtil@@AEAV?$vector@PEAU_CAPTION_LINE@@V?$allocator@PEAU_CAPTION_LINE@@@std@@@std@@@Z DD 0ffffffffH
	DD	imagerel ?dtor$0@?0??main_loop@@YAHAEAVCAppHandler@@AEAVCCaptionDllUtil@@AEAV?$vector@PEAU_CAPTION_LINE@@V?$allocator@PEAU_CAPTION_LINE@@@std@@@std@@@Z@4HA
xdata	ENDS
;	COMDAT CONST
CONST	SEGMENT
$cppxdata$?main_loop@@YAHAEAVCAppHandler@@AEAVCCaptionDllUtil@@AEAV?$vector@PEAU_CAPTION_LINE@@V?$allocator@PEAU_CAPTION_LINE@@@std@@@std@@@Z DD 019930522H
	DD	01H
	DD	imagerel $stateUnwindMap$?main_loop@@YAHAEAVCAppHandler@@AEAVCCaptionDllUtil@@AEAV?$vector@PEAU_CAPTION_LINE@@V?$allocator@PEAU_CAPTION_LINE@@@std@@@std@@@Z
	DD	00H
	DD	00H
	DD	03H
	DD	imagerel $ip2state$?main_loop@@YAHAEAVCAppHandler@@AEAVCCaptionDllUtil@@AEAV?$vector@PEAU_CAPTION_LINE@@V?$allocator@PEAU_CAPTION_LINE@@@std@@@std@@@Z
	DD	088H
	DD	00H
	DD	01H
CONST	ENDS
;	COMDAT xdata
xdata	SEGMENT
$unwind$?main_loop@@YAHAEAVCAppHandler@@AEAVCCaptionDllUtil@@AEAV?$vector@PEAU_CAPTION_LINE@@V?$allocator@PEAU_CAPTION_LINE@@@std@@@std@@@Z DD 0b3c19H
	DD	04f342bH
	DD	044011bH
	DD	0e00af00cH
	DD	0c006d008H
	DD	060037004H
	DD	05002H
	DD	imagerel __GSHandlerCheck_EH
	DD	imagerel $cppxdata$?main_loop@@YAHAEAVCAppHandler@@AEAVCCaptionDllUtil@@AEAV?$vector@PEAU_CAPTION_LINE@@V?$allocator@PEAU_CAPTION_LINE@@@std@@@std@@@Z
	DD	0212H
xdata	ENDS
;	COMDAT xdata
xdata	SEGMENT
$ip2state$wmain DD imagerel wmain
	DD	0ffffffffH
	DD	imagerel wmain+58
	DD	00H
	DD	imagerel wmain+70
	DD	01H
	DD	imagerel wmain+178
	DD	02H
	DD	imagerel wmain+1022
	DD	01H
	DD	imagerel wmain+1145
	DD	00H
	DD	imagerel wmain+1172
	DD	0ffffffffH
xdata	ENDS
;	COMDAT xdata
xdata	SEGMENT
$stateUnwindMap$wmain DD 0ffffffffH
	DD	imagerel wmain$dtor$0
	DD	00H
	DD	imagerel wmain$dtor$1
	DD	01H
	DD	imagerel wmain$dtor$2
xdata	ENDS
;	COMDAT CONST
CONST	SEGMENT
$cppxdata$wmain DD 019930522H
	DD	03H
	DD	imagerel $stateUnwindMap$wmain
	DD	00H
	DD	00H
	DD	07H
	DD	imagerel $ip2state$wmain
	DD	0120H
	DD	00H
	DD	01H
CONST	ENDS
;	COMDAT xdata
xdata	SEGMENT
$unwind$wmain DD 0d2b11H
	DD	02dc42bH
	DD	02c7427H
	DD	02b6423H
	DD	02a341fH
	DD	0260113H
	DD	0e006f008H
	DD	05004H
	DD	imagerel __CxxFrameHandler3
	DD	imagerel $cppxdata$wmain
xdata	ENDS
;	COMDAT xdata
xdata	SEGMENT
$unwind$??0?$basic_string@DU?$char_traits@D@std@@V?$allocator@D@2@@std@@QEAA@AEBV01@@Z DD 020601H
	DD	030023206H
xdata	ENDS
;	COMDAT xdata
xdata	SEGMENT
$unwind$??0?$basic_string@DU?$char_traits@D@std@@V?$allocator@D@2@@std@@QEAA@PEBD@Z DD 020601H
	DD	030023206H
xdata	ENDS
;	COMDAT xdata
xdata	SEGMENT
$unwind$??4?$basic_string@DU?$char_traits@D@std@@V?$allocator@D@2@@std@@QEAAAEAV01@$$QEAV01@@Z DD 040a01H
	DD	06340aH
	DD	07006320aH
xdata	ENDS
;	COMDAT xdata
xdata	SEGMENT
$unwind$??1?$basic_string@DU?$char_traits@D@std@@V?$allocator@D@2@@std@@QEAA@XZ DD 020601H
	DD	030023206H
xdata	ENDS
;	COMDAT xdata
xdata	SEGMENT
$unwind$??1?$vector@PEAU_LINE_STR@@V?$allocator@PEAU_LINE_STR@@@std@@@std@@QEAA@XZ DD 020601H
	DD	030023206H
xdata	ENDS
;	COMDAT xdata
xdata	SEGMENT
$unwind$?push_back@?$vector@PEAU_LINE_STR@@V?$allocator@PEAU_LINE_STR@@@std@@@std@@QEAAXAEBQEAU_LINE_STR@@@Z DD 040a01H
	DD	06340aH
	DD	07006320aH
xdata	ENDS
;	COMDAT xdata
xdata	SEGMENT
$unwind$??1?$vector@PEAU_CAPTION_LINE@@V?$allocator@PEAU_CAPTION_LINE@@@std@@@std@@QEAA@XZ DD 020601H
	DD	030023206H
xdata	ENDS
;	COMDAT xdata
xdata	SEGMENT
$unwind$?push_back@?$vector@PEAU_CAPTION_LINE@@V?$allocator@PEAU_CAPTION_LINE@@@std@@@std@@QEAAXAEBQEAU_CAPTION_LINE@@@Z DD 040a01H
	DD	06340aH
	DD	07006320aH
xdata	ENDS
;	COMDAT xdata
xdata	SEGMENT
$unwind$??1?$vector@U_CAPTION_DATA@@V?$allocator@U_CAPTION_DATA@@@std@@@std@@QEAA@XZ DD 020601H
	DD	030023206H
xdata	ENDS
;	COMDAT xdata
xdata	SEGMENT
$unwind$??1?$vector@U_LANG_TAG_INFO@@V?$allocator@U_LANG_TAG_INFO@@@std@@@std@@QEAA@XZ DD 020601H
	DD	030023206H
xdata	ENDS
;	COMDAT xdata
xdata	SEGMENT
$unwind$?_Assign_rv@?$basic_string@DU?$char_traits@D@std@@V?$allocator@D@2@@std@@QEAAX$$QEAV12@@Z DD 040a01H
	DD	06340aH
	DD	07006320aH
xdata	ENDS
;	COMDAT xdata
xdata	SEGMENT
$unwind$?assign@?$basic_string@DU?$char_traits@D@std@@V?$allocator@D@2@@std@@QEAAAEAV12@AEBV12@_K1@Z DD 081401H
	DD	086414H
	DD	075414H
	DD	063414H
	DD	070103214H
xdata	ENDS
;	COMDAT xdata
xdata	SEGMENT
$chain$1$?_Tidy@?$basic_string@DU?$char_traits@D@std@@V?$allocator@D@2@@std@@QEAAX_N_K@Z DD 021H
	DD	imagerel $LN33
	DD	imagerel $LN33+27
	DD	imagerel $unwind$?_Tidy@?$basic_string@DU?$char_traits@D@std@@V?$allocator@D@2@@std@@QEAAX_N_K@Z
xdata	ENDS
;	COMDAT xdata
xdata	SEGMENT
$chain$0$?_Tidy@?$basic_string@DU?$char_traits@D@std@@V?$allocator@D@2@@std@@QEAAX_N_K@Z DD 020521H
	DD	066405H
	DD	imagerel $LN33
	DD	imagerel $LN33+27
	DD	imagerel $unwind$?_Tidy@?$basic_string@DU?$char_traits@D@std@@V?$allocator@D@2@@std@@QEAAX_N_K@Z
xdata	ENDS
;	COMDAT xdata
xdata	SEGMENT
$unwind$?_Tidy@?$basic_string@DU?$char_traits@D@std@@V?$allocator@D@2@@std@@QEAAX_N_K@Z DD 040a01H
	DD	07340aH
	DD	07006320aH
xdata	ENDS
;	COMDAT xdata
xdata	SEGMENT
$chain$1$?_Destroy@?$vector@U_CAPTION_CHAR_DATA@@V?$allocator@U_CAPTION_CHAR_DATA@@@std@@@std@@IEAAXPEAU_CAPTION_CHAR_DATA@@0@Z DD 021H
	DD	imagerel $LN60
	DD	imagerel $LN60+15
	DD	imagerel $unwind$?_Destroy@?$vector@U_CAPTION_CHAR_DATA@@V?$allocator@U_CAPTION_CHAR_DATA@@@std@@@std@@IEAAXPEAU_CAPTION_CHAR_DATA@@0@Z
xdata	ENDS
;	COMDAT xdata
xdata	SEGMENT
$chain$0$?_Destroy@?$vector@U_CAPTION_CHAR_DATA@@V?$allocator@U_CAPTION_CHAR_DATA@@@std@@@std@@IEAAXPEAU_CAPTION_CHAR_DATA@@0@Z DD 020521H
	DD	066405H
	DD	imagerel $LN60
	DD	imagerel $LN60+15
	DD	imagerel $unwind$?_Destroy@?$vector@U_CAPTION_CHAR_DATA@@V?$allocator@U_CAPTION_CHAR_DATA@@@std@@@std@@IEAAXPEAU_CAPTION_CHAR_DATA@@0@Z
xdata	ENDS
;	COMDAT xdata
xdata	SEGMENT
$unwind$?_Destroy@?$vector@U_CAPTION_CHAR_DATA@@V?$allocator@U_CAPTION_CHAR_DATA@@@std@@@std@@IEAAXPEAU_CAPTION_CHAR_DATA@@0@Z DD 040f01H
	DD	07340fH
	DD	0700b320fH
xdata	ENDS
;	COMDAT xdata
xdata	SEGMENT
$chain$2$?_Tidy@?$vector@U_CAPTION_CHAR_DATA@@V?$allocator@U_CAPTION_CHAR_DATA@@@std@@@std@@IEAAXXZ DD 021H
	DD	imagerel $LN70
	DD	imagerel $LN70+21
	DD	imagerel $unwind$?_Tidy@?$vector@U_CAPTION_CHAR_DATA@@V?$allocator@U_CAPTION_CHAR_DATA@@@std@@@std@@IEAAXXZ
xdata	ENDS
;	COMDAT xdata
xdata	SEGMENT
$chain$1$?_Tidy@?$vector@U_CAPTION_CHAR_DATA@@V?$allocator@U_CAPTION_CHAR_DATA@@@std@@@std@@IEAAXXZ DD 040a21H
	DD	07640aH
	DD	065405H
	DD	imagerel $LN70
	DD	imagerel $LN70+21
	DD	imagerel $unwind$?_Tidy@?$vector@U_CAPTION_CHAR_DATA@@V?$allocator@U_CAPTION_CHAR_DATA@@@std@@@std@@IEAAXXZ
xdata	ENDS
;	COMDAT xdata
xdata	SEGMENT
$unwind$?_Tidy@?$vector@U_CAPTION_CHAR_DATA@@V?$allocator@U_CAPTION_CHAR_DATA@@@std@@@std@@IEAAXXZ DD 040a01H
	DD	08340aH
	DD	07006320aH
xdata	ENDS
;	COMDAT xdata
xdata	SEGMENT
$unwind$?_Reserve@?$vector@PEAU_LINE_STR@@V?$allocator@PEAU_LINE_STR@@@std@@@std@@IEAAX_K@Z DD 010401H
	DD	04204H
xdata	ENDS
;	COMDAT xdata
xdata	SEGMENT
$unwind$?_Tidy@?$vector@PEAU_LINE_STR@@V?$allocator@PEAU_LINE_STR@@@std@@@std@@IEAAXXZ DD 020601H
	DD	030023206H
xdata	ENDS
;	COMDAT xdata
xdata	SEGMENT
$unwind$?_Reserve@?$vector@PEAU_CAPTION_LINE@@V?$allocator@PEAU_CAPTION_LINE@@@std@@@std@@IEAAX_K@Z DD 010401H
	DD	04204H
xdata	ENDS
;	COMDAT xdata
xdata	SEGMENT
$unwind$?_Tidy@?$vector@PEAU_CAPTION_LINE@@V?$allocator@PEAU_CAPTION_LINE@@@std@@@std@@IEAAXXZ DD 020601H
	DD	030023206H
xdata	ENDS
;	COMDAT xdata
xdata	SEGMENT
$unwind$?_Tidy@?$vector@U_CAPTION_DATA@@V?$allocator@U_CAPTION_DATA@@@std@@@std@@IEAAXXZ DD 020601H
	DD	030023206H
xdata	ENDS
;	COMDAT xdata
xdata	SEGMENT
$unwind$?_Tidy@?$vector@U_LANG_TAG_INFO@@V?$allocator@U_LANG_TAG_INFO@@@std@@@std@@IEAAXXZ DD 020601H
	DD	030023206H
xdata	ENDS
;	COMDAT xdata
xdata	SEGMENT
$unwind$?assign@?$basic_string@DU?$char_traits@D@std@@V?$allocator@D@2@@std@@QEAAAEAV12@PEBD_K@Z DD 060f01H
	DD	07640fH
	DD	06340fH
	DD	0700b320fH
xdata	ENDS
;	COMDAT xdata
xdata	SEGMENT
$unwind$?erase@?$basic_string@DU?$char_traits@D@std@@V?$allocator@D@2@@std@@QEAAAEAV12@_K@Z DD 010401H
	DD	04204H
xdata	ENDS
;	COMDAT xdata
xdata	SEGMENT
$unwind$?erase@?$basic_string@DU?$char_traits@D@std@@V?$allocator@D@2@@std@@QEAAAEAV12@_K0@Z DD 040a01H
	DD	06340aH
	DD	07006320aH
xdata	ENDS
;	COMDAT xdata
xdata	SEGMENT
$chain$2$?_Grow@?$basic_string@DU?$char_traits@D@std@@V?$allocator@D@2@@std@@QEAA_N_K_N@Z DD 020021H
	DD	067400H
	DD	imagerel $LN68
	DD	imagerel $LN68+33
	DD	imagerel $unwind$?_Grow@?$basic_string@DU?$char_traits@D@std@@V?$allocator@D@2@@std@@QEAA_N_K_N@Z
xdata	ENDS
;	COMDAT xdata
xdata	SEGMENT
$chain$0$?_Grow@?$basic_string@DU?$char_traits@D@std@@V?$allocator@D@2@@std@@QEAA_N_K_N@Z DD 020521H
	DD	067405H
	DD	imagerel $LN68
	DD	imagerel $LN68+33
	DD	imagerel $unwind$?_Grow@?$basic_string@DU?$char_traits@D@std@@V?$allocator@D@2@@std@@QEAA_N_K_N@Z
xdata	ENDS
;	COMDAT xdata
xdata	SEGMENT
$unwind$?_Grow@?$basic_string@DU?$char_traits@D@std@@V?$allocator@D@2@@std@@QEAA_N_K_N@Z DD 020601H
	DD	030023206H
xdata	ENDS
;	COMDAT xdata
xdata	SEGMENT
$unwind$?_Xran@?$basic_string@DU?$char_traits@D@std@@V?$allocator@D@2@@std@@QEBAXXZ DD 010401H
	DD	04204H
xdata	ENDS
;	COMDAT xdata
xdata	SEGMENT
$unwind$?_Reallocate@?$vector@PEAU_LINE_STR@@V?$allocator@PEAU_LINE_STR@@@std@@@std@@IEAAX_K@Z DD 085a01H
	DD	06545aH
	DD	08640fH
	DD	07340fH
	DD	0700b320fH
xdata	ENDS
;	COMDAT xdata
xdata	SEGMENT
$unwind$?_Xlen@?$vector@PEAU_LINE_STR@@V?$allocator@PEAU_LINE_STR@@@std@@@std@@IEBAXXZ DD 010401H
	DD	04204H
xdata	ENDS
;	COMDAT xdata
xdata	SEGMENT
$unwind$?_Reallocate@?$vector@PEAU_CAPTION_LINE@@V?$allocator@PEAU_CAPTION_LINE@@@std@@@std@@IEAAX_K@Z DD 085a01H
	DD	06545aH
	DD	08640fH
	DD	07340fH
	DD	0700b320fH
xdata	ENDS
;	COMDAT xdata
xdata	SEGMENT
$unwind$?_Xlen@?$vector@PEAU_CAPTION_LINE@@V?$allocator@PEAU_CAPTION_LINE@@@std@@@std@@IEBAXXZ DD 010401H
	DD	04204H
xdata	ENDS
;	COMDAT xdata
xdata	SEGMENT
$chain$4$?_Destroy@?$vector@U_CAPTION_DATA@@V?$allocator@U_CAPTION_DATA@@@std@@@std@@IEAAXPEAU_CAPTION_DATA@@0@Z DD 021H
	DD	imagerel $LN98
	DD	imagerel $LN98+14
	DD	imagerel $unwind$?_Destroy@?$vector@U_CAPTION_DATA@@V?$allocator@U_CAPTION_DATA@@@std@@@std@@IEAAXPEAU_CAPTION_DATA@@0@Z
xdata	ENDS
;	COMDAT xdata
xdata	SEGMENT
$chain$3$?_Destroy@?$vector@U_CAPTION_DATA@@V?$allocator@U_CAPTION_DATA@@@std@@@std@@IEAAXPEAU_CAPTION_DATA@@0@Z DD 081421H
	DD	09e414H
	DD	08740fH
	DD	07640aH
	DD	063405H
	DD	imagerel $LN98
	DD	imagerel $LN98+14
	DD	imagerel $unwind$?_Destroy@?$vector@U_CAPTION_DATA@@V?$allocator@U_CAPTION_DATA@@@std@@@std@@IEAAXPEAU_CAPTION_DATA@@0@Z
xdata	ENDS
;	COMDAT xdata
xdata	SEGMENT
$unwind$?_Destroy@?$vector@U_CAPTION_DATA@@V?$allocator@U_CAPTION_DATA@@@std@@@std@@IEAAXPEAU_CAPTION_DATA@@0@Z DD 020e01H
	DD	0500a320eH
xdata	ENDS
;	COMDAT xdata
xdata	SEGMENT
$unwind$?catch$0@?0??_Copy@?$basic_string@DU?$char_traits@D@std@@V?$allocator@D@2@@std@@QEAAX_K0@Z@4HA DD 030b19H
	DD	05007420bH
	DD	03006H
	DD	imagerel __CxxFrameHandler3
	DD	imagerel $cppxdata$?_Copy@?$basic_string@DU?$char_traits@D@std@@V?$allocator@D@2@@std@@QEAAX_K0@Z
xdata	ENDS
;	COMDAT xdata
xdata	SEGMENT
$unwind$?catch$1@?0??_Copy@?$basic_string@DU?$char_traits@D@std@@V?$allocator@D@2@@std@@QEAAX_K0@Z@4HA DD 020a19H
	DD	05006320aH
	DD	imagerel __CxxFrameHandler3
	DD	imagerel $cppxdata$?_Copy@?$basic_string@DU?$char_traits@D@std@@V?$allocator@D@2@@std@@QEAAX_K0@Z
xdata	ENDS
;	COMDAT xdata
xdata	SEGMENT
$ip2state$?_Copy@?$basic_string@DU?$char_traits@D@std@@V?$allocator@D@2@@std@@QEAAX_K0@Z DD imagerel ?_Copy@?$basic_string@DU?$char_traits@D@std@@V?$allocator@D@2@@std@@QEAAX_K0@Z
	DD	0ffffffffH
	DD	imagerel ?_Copy@?$basic_string@DU?$char_traits@D@std@@V?$allocator@D@2@@std@@QEAAX_K0@Z+110
	DD	00H
	DD	imagerel ?_Copy@?$basic_string@DU?$char_traits@D@std@@V?$allocator@D@2@@std@@QEAAX_K0@Z+149
	DD	0ffffffffH
	DD	imagerel ?catch$1@?0??_Copy@?$basic_string@DU?$char_traits@D@std@@V?$allocator@D@2@@std@@QEAAX_K0@Z@4HA
	DD	00H
	DD	imagerel ?catch$1@?0??_Copy@?$basic_string@DU?$char_traits@D@std@@V?$allocator@D@2@@std@@QEAAX_K0@Z@4HA+13
	DD	01H
	DD	imagerel ?catch$1@?0??_Copy@?$basic_string@DU?$char_traits@D@std@@V?$allocator@D@2@@std@@QEAAX_K0@Z@4HA+21
	DD	02H
	DD	imagerel ?catch$1@?0??_Copy@?$basic_string@DU?$char_traits@D@std@@V?$allocator@D@2@@std@@QEAAX_K0@Z@4HA+55
	DD	00H
	DD	imagerel ?catch$0@?0??_Copy@?$basic_string@DU?$char_traits@D@std@@V?$allocator@D@2@@std@@QEAAX_K0@Z@4HA+14
	DD	03H
xdata	ENDS
;	COMDAT xdata
xdata	SEGMENT
$handlerMap$1$?_Copy@?$basic_string@DU?$char_traits@D@std@@V?$allocator@D@2@@std@@QEAAX_K0@Z DD 040H
	DD	00H
	DD	00H
	DD	imagerel ?catch$0@?0??_Copy@?$basic_string@DU?$char_traits@D@std@@V?$allocator@D@2@@std@@QEAAX_K0@Z@4HA
	DD	048H
xdata	ENDS
;	COMDAT xdata
xdata	SEGMENT
$handlerMap$0$?_Copy@?$basic_string@DU?$char_traits@D@std@@V?$allocator@D@2@@std@@QEAAX_K0@Z DD 040H
	DD	00H
	DD	00H
	DD	imagerel ?catch$1@?0??_Copy@?$basic_string@DU?$char_traits@D@std@@V?$allocator@D@2@@std@@QEAAX_K0@Z@4HA
	DD	038H
xdata	ENDS
;	COMDAT xdata
xdata	SEGMENT
$tryMap$?_Copy@?$basic_string@DU?$char_traits@D@std@@V?$allocator@D@2@@std@@QEAAX_K0@Z DD 00H
	DD	00H
	DD	03H
	DD	01H
	DD	imagerel $handlerMap$0$?_Copy@?$basic_string@DU?$char_traits@D@std@@V?$allocator@D@2@@std@@QEAAX_K0@Z
	DD	02H
	DD	02H
	DD	03H
	DD	01H
	DD	imagerel $handlerMap$1$?_Copy@?$basic_string@DU?$char_traits@D@std@@V?$allocator@D@2@@std@@QEAAX_K0@Z
xdata	ENDS
;	COMDAT xdata
xdata	SEGMENT
$stateUnwindMap$?_Copy@?$basic_string@DU?$char_traits@D@std@@V?$allocator@D@2@@std@@QEAAX_K0@Z DD 0ffffffffH
	DD	00H
	DD	0ffffffffH
	DD	00H
	DD	01H
	DD	00H
	DD	01H
	DD	00H
xdata	ENDS
;	COMDAT CONST
CONST	SEGMENT
$cppxdata$?_Copy@?$basic_string@DU?$char_traits@D@std@@V?$allocator@D@2@@std@@QEAAX_K0@Z DD 019930522H
	DD	04H
	DD	imagerel $stateUnwindMap$?_Copy@?$basic_string@DU?$char_traits@D@std@@V?$allocator@D@2@@std@@QEAAX_K0@Z
	DD	02H
	DD	imagerel $tryMap$?_Copy@?$basic_string@DU?$char_traits@D@std@@V?$allocator@D@2@@std@@QEAAX_K0@Z
	DD	08H
	DD	imagerel $ip2state$?_Copy@?$basic_string@DU?$char_traits@D@std@@V?$allocator@D@2@@std@@QEAAX_K0@Z
	DD	020H
	DD	00H
	DD	01H
CONST	ENDS
;	COMDAT xdata
xdata	SEGMENT
$unwind$?_Copy@?$basic_string@DU?$char_traits@D@std@@V?$allocator@D@2@@std@@QEAAX_K0@Z DD 052119H
	DD	0e0146218H
	DD	060117012H
	DD	03010H
	DD	imagerel __CxxFrameHandler3
	DD	imagerel $cppxdata$?_Copy@?$basic_string@DU?$char_traits@D@std@@V?$allocator@D@2@@std@@QEAAX_K0@Z
xdata	ENDS
;	COMDAT xdata
xdata	SEGMENT
$unwind$?_Xlen@?$basic_string@DU?$char_traits@D@std@@V?$allocator@D@2@@std@@QEBAXXZ DD 010401H
	DD	04204H
xdata	ENDS
;	COMDAT xdata
xdata	SEGMENT
$unwind$?allocate@?$_Wrap_alloc@V?$allocator@PEAU_LINE_STR@@@std@@@std@@QEAAPEAPEAU_LINE_STR@@_K@Z DD 010401H
	DD	04204H
xdata	ENDS
;	COMDAT xdata
xdata	SEGMENT
$unwind$?allocate@?$_Wrap_alloc@V?$allocator@PEAU_CAPTION_LINE@@@std@@@std@@QEAAPEAPEAU_CAPTION_LINE@@_K@Z DD 010401H
	DD	04204H
xdata	ENDS
;	COMDAT xdata
xdata	SEGMENT
$unwind$?allocate@?$_Wrap_alloc@V?$allocator@D@std@@@std@@QEAAPEAD_K@Z DD 010401H
	DD	04204H
xdata	ENDS
;	COMDAT xdata
xdata	SEGMENT
$unwind$?allocate@?$allocator@PEAU_LINE_STR@@@std@@QEAAPEAPEAU_LINE_STR@@_K@Z DD 010401H
	DD	04204H
xdata	ENDS
;	COMDAT xdata
xdata	SEGMENT
$unwind$?allocate@?$allocator@PEAU_CAPTION_LINE@@@std@@QEAAPEAPEAU_CAPTION_LINE@@_K@Z DD 010401H
	DD	04204H
xdata	ENDS
;	COMDAT xdata
xdata	SEGMENT
$unwind$?allocate@?$allocator@D@std@@QEAAPEAD_K@Z DD 010401H
	DD	04204H
xdata	ENDS
;	COMDAT xdata
xdata	SEGMENT
$unwind$??$assign@V?$_String_iterator@V?$_String_val@U?$_Simple_types@D@std@@@std@@@std@@@?$basic_string@DU?$char_traits@D@std@@V?$allocator@D@2@@std@@QEAAAEAV01@V?$_String_iterator@V?$_String_val@U?$_Simple_types@D@std@@@std@@@1@0@Z DD 010401H
	DD	06204H
xdata	ENDS
;	COMDAT xdata
xdata	SEGMENT
$chain$1$??$_Destroy_range@U?$_Wrap_alloc@V?$allocator@U_CAPTION_CHAR_DATA@@@std@@@std@@@std@@YAXPEAU_CAPTION_CHAR_DATA@@0AEAU?$_Wrap_alloc@V?$allocator@U_CAPTION_CHAR_DATA@@@std@@@0@@Z DD 021H
	DD	imagerel $LN58
	DD	imagerel $LN58+15
	DD	imagerel $unwind$??$_Destroy_range@U?$_Wrap_alloc@V?$allocator@U_CAPTION_CHAR_DATA@@@std@@@std@@@std@@YAXPEAU_CAPTION_CHAR_DATA@@0AEAU?$_Wrap_alloc@V?$allocator@U_CAPTION_CHAR_DATA@@@std@@@0@@Z
xdata	ENDS
;	COMDAT xdata
xdata	SEGMENT
$chain$0$??$_Destroy_range@U?$_Wrap_alloc@V?$allocator@U_CAPTION_CHAR_DATA@@@std@@@std@@@std@@YAXPEAU_CAPTION_CHAR_DATA@@0AEAU?$_Wrap_alloc@V?$allocator@U_CAPTION_CHAR_DATA@@@std@@@0@@Z DD 020521H
	DD	066405H
	DD	imagerel $LN58
	DD	imagerel $LN58+15
	DD	imagerel $unwind$??$_Destroy_range@U?$_Wrap_alloc@V?$allocator@U_CAPTION_CHAR_DATA@@@std@@@std@@@std@@YAXPEAU_CAPTION_CHAR_DATA@@0AEAU?$_Wrap_alloc@V?$allocator@U_CAPTION_CHAR_DATA@@@std@@@0@@Z
xdata	ENDS
;	COMDAT xdata
xdata	SEGMENT
$unwind$??$_Destroy_range@U?$_Wrap_alloc@V?$allocator@U_CAPTION_CHAR_DATA@@@std@@@std@@@std@@YAXPEAU_CAPTION_CHAR_DATA@@0AEAU?$_Wrap_alloc@V?$allocator@U_CAPTION_CHAR_DATA@@@std@@@0@@Z DD 040f01H
	DD	07340fH
	DD	0700b320fH
xdata	ENDS
;	COMDAT xdata
xdata	SEGMENT
$unwind$??$_Umove@PEAPEAU_LINE_STR@@@?$vector@PEAU_LINE_STR@@V?$allocator@PEAU_LINE_STR@@@std@@@std@@IEAAPEAPEAU_LINE_STR@@PEAPEAU2@00@Z DD 020601H
	DD	030023206H
xdata	ENDS
;	COMDAT xdata
xdata	SEGMENT
$unwind$??$_Umove@PEAPEAU_CAPTION_LINE@@@?$vector@PEAU_CAPTION_LINE@@V?$allocator@PEAU_CAPTION_LINE@@@std@@@std@@IEAAPEAPEAU_CAPTION_LINE@@PEAPEAU2@00@Z DD 020601H
	DD	030023206H
xdata	ENDS
;	COMDAT xdata
xdata	SEGMENT
$unwind$??$_Allocate@PEAU_LINE_STR@@@std@@YAPEAPEAU_LINE_STR@@_KPEAPEAU1@@Z DD 010401H
	DD	04204H
xdata	ENDS
;	COMDAT xdata
xdata	SEGMENT
$unwind$??$_Allocate@PEAU_CAPTION_LINE@@@std@@YAPEAPEAU_CAPTION_LINE@@_KPEAPEAU1@@Z DD 010401H
	DD	04204H
xdata	ENDS
;	COMDAT xdata
xdata	SEGMENT
$unwind$??$_Allocate@D@std@@YAPEAD_KPEAD@Z DD 010401H
	DD	04204H
xdata	ENDS
;	COMDAT xdata
xdata	SEGMENT
$unwind$?replace@?$basic_string@DU?$char_traits@D@std@@V?$allocator@D@2@@std@@QEAAAEAV12@V?$_String_const_iterator@V?$_String_val@U?$_Simple_types@D@std@@@std@@@2@0V?$_String_iterator@V?$_String_val@U?$_Simple_types@D@std@@@std@@@2@1@Z DD 020601H
	DD	030025206H
xdata	ENDS
;	COMDAT xdata
xdata	SEGMENT
$chain$3$?replace@?$basic_string@DU?$char_traits@D@std@@V?$allocator@D@2@@std@@QEAAAEAV12@_K0PEBD0@Z DD 021H
	DD	imagerel $LN97
	DD	imagerel $LN97+294
	DD	imagerel $unwind$?replace@?$basic_string@DU?$char_traits@D@std@@V?$allocator@D@2@@std@@QEAAAEAV12@_K0PEBD0@Z
xdata	ENDS
;	COMDAT xdata
xdata	SEGMENT
$chain$2$?replace@?$basic_string@DU?$char_traits@D@std@@V?$allocator@D@2@@std@@QEAAAEAV12@_K0PEBD0@Z DD 020521H
	DD	0ce405H
	DD	imagerel $LN97
	DD	imagerel $LN97+294
	DD	imagerel $unwind$?replace@?$basic_string@DU?$char_traits@D@std@@V?$allocator@D@2@@std@@QEAAAEAV12@_K0PEBD0@Z
xdata	ENDS
;	COMDAT xdata
xdata	SEGMENT
$unwind$?replace@?$basic_string@DU?$char_traits@D@std@@V?$allocator@D@2@@std@@QEAAAEAV12@_K0PEBD0@Z DD 0aa901H
	DD	0b64a9H
	DD	0a54a1H
	DD	0d340eH
	DD	0f00a520eH
	DD	07006c008H
xdata	ENDS
;	COMDAT xdata
xdata	SEGMENT
$chain$3$?replace@?$basic_string@DU?$char_traits@D@std@@V?$allocator@D@2@@std@@QEAAAEAV12@_K0AEBV12@00@Z DD 021H
	DD	imagerel $LN217
	DD	imagerel $LN217+55
	DD	imagerel $unwind$?replace@?$basic_string@DU?$char_traits@D@std@@V?$allocator@D@2@@std@@QEAAAEAV12@_K0AEBV12@00@Z
xdata	ENDS
;	COMDAT xdata
xdata	SEGMENT
$chain$2$?replace@?$basic_string@DU?$char_traits@D@std@@V?$allocator@D@2@@std@@QEAAAEAV12@_K0AEBV12@00@Z DD 064b21H
	DD	0bd44bH
	DD	0ce40fH
	DD	0a7405H
	DD	imagerel $LN217
	DD	imagerel $LN217+55
	DD	imagerel $unwind$?replace@?$basic_string@DU?$char_traits@D@std@@V?$allocator@D@2@@std@@QEAAAEAV12@_K0AEBV12@00@Z
xdata	ENDS
;	COMDAT xdata
xdata	SEGMENT
$unwind$?replace@?$basic_string@DU?$char_traits@D@std@@V?$allocator@D@2@@std@@QEAAAEAV12@_K0AEBV12@00@Z DD 060c01H
	DD	0f008320cH
	DD	06004c006H
	DD	030025003H
xdata	ENDS
;	COMDAT xdata
xdata	SEGMENT
$chain$1$??$_Destroy_range@U?$_Wrap_alloc@V?$allocator@U_CAPTION_CHAR_DATA@@@std@@@std@@@std@@YAXPEAU_CAPTION_CHAR_DATA@@0AEAU?$_Wrap_alloc@V?$allocator@U_CAPTION_CHAR_DATA@@@std@@@0@U_Nonscalar_ptr_iterator_tag@0@@Z DD 021H
	DD	imagerel $LN54
	DD	imagerel $LN54+15
	DD	imagerel $unwind$??$_Destroy_range@U?$_Wrap_alloc@V?$allocator@U_CAPTION_CHAR_DATA@@@std@@@std@@@std@@YAXPEAU_CAPTION_CHAR_DATA@@0AEAU?$_Wrap_alloc@V?$allocator@U_CAPTION_CHAR_DATA@@@std@@@0@U_Nonscalar_ptr_iterator_tag@0@@Z
xdata	ENDS
;	COMDAT xdata
xdata	SEGMENT
$chain$0$??$_Destroy_range@U?$_Wrap_alloc@V?$allocator@U_CAPTION_CHAR_DATA@@@std@@@std@@@std@@YAXPEAU_CAPTION_CHAR_DATA@@0AEAU?$_Wrap_alloc@V?$allocator@U_CAPTION_CHAR_DATA@@@std@@@0@U_Nonscalar_ptr_iterator_tag@0@@Z DD 020521H
	DD	066405H
	DD	imagerel $LN54
	DD	imagerel $LN54+15
	DD	imagerel $unwind$??$_Destroy_range@U?$_Wrap_alloc@V?$allocator@U_CAPTION_CHAR_DATA@@@std@@@std@@@std@@YAXPEAU_CAPTION_CHAR_DATA@@0AEAU?$_Wrap_alloc@V?$allocator@U_CAPTION_CHAR_DATA@@@std@@@0@U_Nonscalar_ptr_iterator_tag@0@@Z
xdata	ENDS
;	COMDAT xdata
xdata	SEGMENT
$unwind$??$_Destroy_range@U?$_Wrap_alloc@V?$allocator@U_CAPTION_CHAR_DATA@@@std@@@std@@@std@@YAXPEAU_CAPTION_CHAR_DATA@@0AEAU?$_Wrap_alloc@V?$allocator@U_CAPTION_CHAR_DATA@@@std@@@0@U_Nonscalar_ptr_iterator_tag@0@@Z DD 040f01H
	DD	07340fH
	DD	0700b320fH
xdata	ENDS
;	COMDAT xdata
xdata	SEGMENT
$unwind$??$_Uninitialized_move@PEAPEAU_LINE_STR@@PEAPEAU1@U?$_Wrap_alloc@V?$allocator@PEAU_LINE_STR@@@std@@@std@@@std@@YAPEAPEAU_LINE_STR@@PEAPEAU1@00AEAU?$_Wrap_alloc@V?$allocator@PEAU_LINE_STR@@@std@@@0@@Z DD 020601H
	DD	030023206H
xdata	ENDS
;	COMDAT xdata
xdata	SEGMENT
$unwind$??$_Uninitialized_move@PEAPEAU_CAPTION_LINE@@PEAPEAU1@U?$_Wrap_alloc@V?$allocator@PEAU_CAPTION_LINE@@@std@@@std@@@std@@YAPEAPEAU_CAPTION_LINE@@PEAPEAU1@00AEAU?$_Wrap_alloc@V?$allocator@PEAU_CAPTION_LINE@@@std@@@0@@Z DD 020601H
	DD	030023206H
xdata	ENDS
;	COMDAT xdata
xdata	SEGMENT
$chain$4$??$_Destroy_range@U?$_Wrap_alloc@V?$allocator@U_CAPTION_DATA@@@std@@@std@@@std@@YAXPEAU_CAPTION_DATA@@0AEAU?$_Wrap_alloc@V?$allocator@U_CAPTION_DATA@@@std@@@0@U_Nonscalar_ptr_iterator_tag@0@@Z DD 021H
	DD	imagerel $LN92
	DD	imagerel $LN92+14
	DD	imagerel $unwind$??$_Destroy_range@U?$_Wrap_alloc@V?$allocator@U_CAPTION_DATA@@@std@@@std@@@std@@YAXPEAU_CAPTION_DATA@@0AEAU?$_Wrap_alloc@V?$allocator@U_CAPTION_DATA@@@std@@@0@U_Nonscalar_ptr_iterator_tag@0@@Z
xdata	ENDS
;	COMDAT xdata
xdata	SEGMENT
$chain$3$??$_Destroy_range@U?$_Wrap_alloc@V?$allocator@U_CAPTION_DATA@@@std@@@std@@@std@@YAXPEAU_CAPTION_DATA@@0AEAU?$_Wrap_alloc@V?$allocator@U_CAPTION_DATA@@@std@@@0@U_Nonscalar_ptr_iterator_tag@0@@Z DD 081421H
	DD	09e414H
	DD	08740fH
	DD	07640aH
	DD	063405H
	DD	imagerel $LN92
	DD	imagerel $LN92+14
	DD	imagerel $unwind$??$_Destroy_range@U?$_Wrap_alloc@V?$allocator@U_CAPTION_DATA@@@std@@@std@@@std@@YAXPEAU_CAPTION_DATA@@0AEAU?$_Wrap_alloc@V?$allocator@U_CAPTION_DATA@@@std@@@0@U_Nonscalar_ptr_iterator_tag@0@@Z
xdata	ENDS
;	COMDAT xdata
xdata	SEGMENT
$unwind$??$_Destroy_range@U?$_Wrap_alloc@V?$allocator@U_CAPTION_DATA@@@std@@@std@@@std@@YAXPEAU_CAPTION_DATA@@0AEAU?$_Wrap_alloc@V?$allocator@U_CAPTION_DATA@@@std@@@0@U_Nonscalar_ptr_iterator_tag@0@@Z DD 020e01H
	DD	0500a320eH
xdata	ENDS
;	COMDAT xdata
xdata	SEGMENT
$unwind$??$destroy@U_CAPTION_CHAR_DATA@@@?$_Wrap_alloc@V?$allocator@U_CAPTION_CHAR_DATA@@@std@@@std@@QEAAXPEAU_CAPTION_CHAR_DATA@@@Z DD 020601H
	DD	030023206H
xdata	ENDS
;	COMDAT xdata
xdata	SEGMENT
$unwind$??$_Uninit_move@PEAU_LINE_STR@@PEAU1@PEAU1@@std@@YAPEAPEAU_LINE_STR@@PEAPEAU1@00AEAU?$_Wrap_alloc@V?$allocator@PEAU_LINE_STR@@@std@@@0@0U_Scalar_ptr_iterator_tag@0@@Z DD 020601H
	DD	030023206H
xdata	ENDS
;	COMDAT xdata
xdata	SEGMENT
$unwind$??$_Uninit_move@PEAU_CAPTION_LINE@@PEAU1@PEAU1@@std@@YAPEAPEAU_CAPTION_LINE@@PEAPEAU1@00AEAU?$_Wrap_alloc@V?$allocator@PEAU_CAPTION_LINE@@@std@@@0@0U_Scalar_ptr_iterator_tag@0@@Z DD 020601H
	DD	030023206H
xdata	ENDS
;	COMDAT xdata
xdata	SEGMENT
$unwind$??$destroy@U_CAPTION_CHAR_DATA@@@?$allocator_traits@V?$allocator@U_CAPTION_CHAR_DATA@@@std@@@std@@SAXAEAV?$allocator@U_CAPTION_CHAR_DATA@@@1@PEAU_CAPTION_CHAR_DATA@@@Z DD 020601H
	DD	030023206H
xdata	ENDS
;	COMDAT xdata
xdata	SEGMENT
$unwind$??$destroy@U_CAPTION_CHAR_DATA@@@?$allocator@U_CAPTION_CHAR_DATA@@@std@@QEAAXPEAU_CAPTION_CHAR_DATA@@@Z DD 020601H
	DD	030023206H
xdata	ENDS
;	COMDAT xdata
xdata	SEGMENT
$unwind$??_G_CAPTION_CHAR_DATA@@QEAAPEAXI@Z DD 020601H
	DD	030023206H
xdata	ENDS
;	COMDAT xdata
xdata	SEGMENT
$unwind$??_G_CAPTION_DATA@@QEAAPEAXI@Z DD 020601H
	DD	030023206H
xdata	ENDS
;	COMDAT xdata
xdata	SEGMENT
$unwind$??1_CAPTION_CHAR_DATA@@QEAA@XZ DD 020601H
	DD	030023206H
;	COMDAT CRT$XCU
CRT$XCU	SEGMENT
?_Iostream_object$initializer$@?$_Error_objects@H@std@@2P6AXXZEA DQ FLAT:??__E?_Iostream_object@?$_Error_objects@H@std@@2V_Iostream_error_category@2@A@@YAXXZ ; std::_Error_objects<int>::_Iostream_object$initializer$
CRT$XCU	ENDS
;	COMDAT CRT$XCU
CRT$XCU	SEGMENT
?_System_object$initializer$@?$_Error_objects@H@std@@2P6AXXZEA DQ FLAT:??__E?_System_object@?$_Error_objects@H@std@@2V_System_error_category@2@A@@YAXXZ ; std::_Error_objects<int>::_System_object$initializer$
CRT$XCU	ENDS
;	COMDAT CRT$XCU
CRT$XCU	SEGMENT
?id$initializer$@?$num_put@DV?$back_insert_iterator@V?$basic_string@DU?$char_traits@D@std@@V?$allocator@D@2@@std@@@std@@@std@@2P6AXXZEA DQ FLAT:??__E?id@?$num_put@DV?$back_insert_iterator@V?$basic_string@DU?$char_traits@D@std@@V?$allocator@D@2@@std@@@std@@@std@@2V0locale@2@A@@YAXXZ ; std::num_put<char,std::back_insert_iterator<std::basic_string<char,std::char_traits<char>,std::allocator<char> > > >::id$initializer$
CRT$XCU	ENDS
;	COMDAT CRT$XCU
CRT$XCU	SEGMENT
?id$initializer$@?$num_put@_WV?$back_insert_iterator@V?$basic_string@_WU?$char_traits@_W@std@@V?$allocator@_W@2@@std@@@std@@@std@@2P6AXXZEA DQ FLAT:??__E?id@?$num_put@_WV?$back_insert_iterator@V?$basic_string@_WU?$char_traits@_W@std@@V?$allocator@_W@2@@std@@@std@@@std@@2V0locale@2@A@@YAXXZ ; std::num_put<wchar_t,std::back_insert_iterator<std::basic_string<wchar_t,std::char_traits<wchar_t>,std::allocator<wchar_t> > > >::id$initializer$
CRT$XCU	ENDS
; Function compile flags: /Ogtpy
;	COMDAT ??2@YAPEAX_KPEAX@Z
_TEXT	SEGMENT
__formal$dead$ = 8
_Where$ = 16
??2@YAPEAX_KPEAX@Z PROC					; operator new, COMDAT
; File e:\software\develop\vs2012\vc\include\new
; Line 60
	mov	rax, rdx
; Line 61
	ret	0
??2@YAPEAX_KPEAX@Z ENDP					; operator new
_TEXT	ENDS
; Function compile flags: /Ogtpy
;	COMDAT ??3@YAXPEAX0@Z
_TEXT	SEGMENT
__formal$dead$ = 8
__formal$dead$ = 16
??3@YAXPEAX0@Z PROC					; operator delete, COMDAT
; File e:\software\develop\vs2012\vc\include\new
; Line 65
	ret	0
??3@YAXPEAX0@Z ENDP					; operator delete
_TEXT	ENDS
; Function compile flags: /Ogtpy
;	COMDAT ?length@?$char_traits@D@std@@SA_KPEBD@Z
_TEXT	SEGMENT
_First$ = 8
?length@?$char_traits@D@std@@SA_KPEBD@Z PROC		; std::char_traits<char>::length, COMDAT
; File e:\software\develop\vs2012\vc\include\iosfwd
; Line 523
	cmp	BYTE PTR [rcx], 0
	jne	SHORT $LN3@length
	xor	eax, eax
; Line 524
	ret	0
$LN3@length:
; Line 523
	or	rax, -1
	npad	4
$LL5@length:
	inc	rax
	cmp	BYTE PTR [rcx+rax], 0
	jne	SHORT $LL5@length
; Line 524
	fatret	0
?length@?$char_traits@D@std@@SA_KPEBD@Z ENDP		; std::char_traits<char>::length
_TEXT	ENDS
; Function compile flags: /Ogtpy
;	COMDAT ?copy@?$char_traits@D@std@@SAPEADPEADPEBD_K@Z
_TEXT	SEGMENT
_First1$ = 48
_First2$ = 56
_Count$ = 64
?copy@?$char_traits@D@std@@SAPEADPEADPEBD_K@Z PROC	; std::char_traits<char>::copy, COMDAT
; File e:\software\develop\vs2012\vc\include\iosfwd
; Line 528
$LN7:
	push	rbx
	sub	rsp, 32					; 00000020H
	mov	rbx, rcx
; Line 530
	test	r8, r8
	je	SHORT $LN5@copy
	call	memcpy
$LN5@copy:
	mov	rax, rbx
; Line 531
	add	rsp, 32					; 00000020H
	pop	rbx
	ret	0
?copy@?$char_traits@D@std@@SAPEADPEADPEBD_K@Z ENDP	; std::char_traits<char>::copy
_TEXT	ENDS
; Function compile flags: /Ogtpy
;	COMDAT ?move@?$char_traits@D@std@@SAPEADPEADPEBD_K@Z
_TEXT	SEGMENT
_First1$ = 8
_First2$ = 16
_Count$ = 24
?move@?$char_traits@D@std@@SAPEADPEADPEBD_K@Z PROC	; std::char_traits<char>::move, COMDAT
; File e:\software\develop\vs2012\vc\include\iosfwd
; Line 553
	test	r8, r8
	jne	SHORT $LN3@move
	mov	rax, rcx
; Line 554
	ret	0
$LN3@move:
; Line 553
	rex_jmp	QWORD PTR __imp_memmove
?move@?$char_traits@D@std@@SAPEADPEADPEBD_K@Z ENDP	; std::char_traits<char>::move
_TEXT	ENDS
; Function compile flags: /Ogtpy
;	COMDAT ?assign@?$char_traits@D@std@@SAXAEADAEBD@Z
_TEXT	SEGMENT
_Left$ = 8
_Right$ = 16
?assign@?$char_traits@D@std@@SAXAEADAEBD@Z PROC		; std::char_traits<char>::assign, COMDAT
; File e:\software\develop\vs2012\vc\include\iosfwd
; Line 564
	movzx	eax, BYTE PTR [rdx]
	mov	BYTE PTR [rcx], al
; Line 565
	ret	0
?assign@?$char_traits@D@std@@SAXAEADAEBD@Z ENDP		; std::char_traits<char>::assign
_TEXT	ENDS
; Function compile flags: /Ogtpy
;	COMDAT ?_Adopt@_Iterator_base0@std@@QEAAXPEBX@Z
_TEXT	SEGMENT
this$dead$ = 8
__formal$dead$ = 16
?_Adopt@_Iterator_base0@std@@QEAAXPEBX@Z PROC		; std::_Iterator_base0::_Adopt, COMDAT
; File e:\software\develop\vs2012\vc\include\xutility
; Line 51
	ret	0
?_Adopt@_Iterator_base0@std@@QEAAXPEBX@Z ENDP		; std::_Iterator_base0::_Adopt
_TEXT	ENDS
; Function compile flags: /Ogtpy
;	COMDAT ??0error_category@std@@QEAA@XZ
_TEXT	SEGMENT
this$ = 8
??0error_category@std@@QEAA@XZ PROC			; std::error_category::error_category, COMDAT
; File e:\software\develop\vs2012\vc\include\system_error
; Line 162
	lea	rax, OFFSET FLAT:??_7error_category@std@@6B@
	mov	QWORD PTR [rcx], rax
; Line 164
	mov	rax, rcx
	ret	0
??0error_category@std@@QEAA@XZ ENDP			; std::error_category::error_category
_TEXT	ENDS
; Function compile flags: /Ogtpy
;	COMDAT ??1error_category@std@@UEAA@XZ
_TEXT	SEGMENT
this$ = 8
??1error_category@std@@UEAA@XZ PROC			; std::error_category::~error_category, COMDAT
; File e:\software\develop\vs2012\vc\include\system_error
; Line 167
	lea	rax, OFFSET FLAT:??_7error_category@std@@6B@
	mov	QWORD PTR [rcx], rax
; Line 168
	ret	0
??1error_category@std@@UEAA@XZ ENDP			; std::error_category::~error_category
_TEXT	ENDS
; Function compile flags: /Ogtpy
;	COMDAT ??8error_category@std@@QEBA_NAEBV01@@Z
_TEXT	SEGMENT
this$ = 8
_Right$ = 16
??8error_category@std@@QEBA_NAEBV01@@Z PROC		; std::error_category::operator==, COMDAT
; File e:\software\develop\vs2012\vc\include\system_error
; Line 185
	cmp	rcx, rdx
	sete	al
; Line 186
	ret	0
??8error_category@std@@QEBA_NAEBV01@@Z ENDP		; std::error_category::operator==
_TEXT	ENDS
; Function compile flags: /Ogtpy
;	COMDAT ??_Gerror_category@std@@UEAAPEAXI@Z
_TEXT	SEGMENT
this$ = 48
__flags$ = 56
??_Gerror_category@std@@UEAAPEAXI@Z PROC		; std::error_category::`scalar deleting destructor', COMDAT
$LN8:
	push	rbx
	sub	rsp, 32					; 00000020H
; File e:\software\develop\vs2012\vc\include\system_error
; Line 167
	lea	rax, OFFSET FLAT:??_7error_category@std@@6B@
	mov	rbx, rcx
	mov	QWORD PTR [rcx], rax
	test	dl, 1
	je	SHORT $LN6@scalar
	call	QWORD PTR __imp_??3@YAXPEAX@Z
$LN6@scalar:
	mov	rax, rbx
	add	rsp, 32					; 00000020H
	pop	rbx
	ret	0
??_Gerror_category@std@@UEAAPEAXI@Z ENDP		; std::error_category::`scalar deleting destructor'
_TEXT	ENDS
; Function compile flags: /Ogtpy
;	COMDAT ?value@error_code@std@@QEBAHXZ
_TEXT	SEGMENT
this$ = 8
?value@error_code@std@@QEBAHXZ PROC			; std::error_code::value, COMDAT
; File e:\software\develop\vs2012\vc\include\system_error
; Line 252
	mov	eax, DWORD PTR [rcx]
; Line 253
	ret	0
?value@error_code@std@@QEBAHXZ ENDP			; std::error_code::value
_TEXT	ENDS
; Function compile flags: /Ogtpy
;	COMDAT ?category@error_code@std@@QEBAAEBVerror_category@2@XZ
_TEXT	SEGMENT
this$ = 8
?category@error_code@std@@QEBAAEBVerror_category@2@XZ PROC ; std::error_code::category, COMDAT
; File e:\software\develop\vs2012\vc\include\system_error
; Line 257
	mov	rax, QWORD PTR [rcx+8]
; Line 258
	ret	0
?category@error_code@std@@QEBAAEBVerror_category@2@XZ ENDP ; std::error_code::category
_TEXT	ENDS
; Function compile flags: /Ogtpy
;	COMDAT ??0error_condition@std@@QEAA@HAEBVerror_category@1@@Z
_TEXT	SEGMENT
this$ = 8
_Val$ = 16
_Cat$ = 24
??0error_condition@std@@QEAA@HAEBVerror_category@1@@Z PROC ; std::error_condition::error_condition, COMDAT
; File e:\software\develop\vs2012\vc\include\system_error
; Line 316
	mov	DWORD PTR [rcx], edx
	mov	QWORD PTR [rcx+8], r8
; Line 317
	mov	rax, rcx
	ret	0
??0error_condition@std@@QEAA@HAEBVerror_category@1@@Z ENDP ; std::error_condition::error_condition
_TEXT	ENDS
; Function compile flags: /Ogtpy
;	COMDAT ?value@error_condition@std@@QEBAHXZ
_TEXT	SEGMENT
this$ = 8
?value@error_condition@std@@QEBAHXZ PROC		; std::error_condition::value, COMDAT
; File e:\software\develop\vs2012\vc\include\system_error
; Line 350
	mov	eax, DWORD PTR [rcx]
; Line 351
	ret	0
?value@error_condition@std@@QEBAHXZ ENDP		; std::error_condition::value
_TEXT	ENDS
; Function compile flags: /Ogtpy
;	COMDAT ?category@error_condition@std@@QEBAAEBVerror_category@2@XZ
_TEXT	SEGMENT
this$ = 8
?category@error_condition@std@@QEBAAEBVerror_category@2@XZ PROC ; std::error_condition::category, COMDAT
; File e:\software\develop\vs2012\vc\include\system_error
; Line 355
	mov	rax, QWORD PTR [rcx+8]
; Line 356
	ret	0
?category@error_condition@std@@QEBAAEBVerror_category@2@XZ ENDP ; std::error_condition::category
_TEXT	ENDS
; Function compile flags: /Ogtpy
;	COMDAT ??8error_condition@std@@QEBA_NAEBV01@@Z
_TEXT	SEGMENT
this$ = 8
_Right$ = 16
??8error_condition@std@@QEBA_NAEBV01@@Z PROC		; std::error_condition::operator==, COMDAT
; File e:\software\develop\vs2012\vc\include\system_error
; Line 185
	mov	rax, QWORD PTR [rdx+8]
	cmp	QWORD PTR [rcx+8], rax
; Line 378
	jne	SHORT $LN3@operator
	mov	eax, DWORD PTR [rdx]
	cmp	DWORD PTR [rcx], eax
	jne	SHORT $LN3@operator
	mov	al, 1
; Line 379
	ret	0
$LN3@operator:
; Line 378
	xor	al, al
; Line 379
	ret	0
??8error_condition@std@@QEBA_NAEBV01@@Z ENDP		; std::error_condition::operator==
_TEXT	ENDS
; Function compile flags: /Ogtpy
;	COMDAT ?default_error_condition@error_category@std@@UEBA?AVerror_condition@2@H@Z
_TEXT	SEGMENT
this$ = 8
__$ReturnUdt$ = 16
_Errval$ = 24
?default_error_condition@error_category@std@@UEBA?AVerror_condition@2@H@Z PROC ; std::error_category::default_error_condition, COMDAT
; File e:\software\develop\vs2012\vc\include\system_error
; Line 316
	mov	DWORD PTR [rdx], r8d
	mov	QWORD PTR [rdx+8], rcx
; Line 402
	mov	rax, rdx
; Line 403
	ret	0
?default_error_condition@error_category@std@@UEBA?AVerror_condition@2@H@Z ENDP ; std::error_category::default_error_condition
_TEXT	ENDS
; Function compile flags: /Ogtpy
;	COMDAT ?equivalent@error_category@std@@UEBA_NHAEBVerror_condition@2@@Z
_TEXT	SEGMENT
$T1 = 32
this$ = 64
_Errval$ = 72
_Cond$ = 80
?equivalent@error_category@std@@UEBA_NHAEBVerror_condition@2@@Z PROC ; std::error_category::equivalent, COMDAT
; File e:\software\develop\vs2012\vc\include\system_error
; Line 408
$LN18:
	push	rbx
	sub	rsp, 48					; 00000030H
; Line 409
	mov	rax, QWORD PTR [rcx]
	mov	rbx, r8
	mov	r8d, edx
	lea	rdx, QWORD PTR $T1[rsp]
	call	QWORD PTR [rax+24]
; Line 185
	mov	rcx, QWORD PTR [rbx+8]
	cmp	QWORD PTR [rax+8], rcx
; Line 378
	jne	SHORT $LN5@equivalent
	mov	ecx, DWORD PTR [rbx]
	cmp	DWORD PTR [rax], ecx
	jne	SHORT $LN5@equivalent
; Line 409
	mov	al, 1
; Line 410
	add	rsp, 48					; 00000030H
	pop	rbx
	ret	0
$LN5@equivalent:
; Line 409
	xor	al, al
; Line 410
	add	rsp, 48					; 00000030H
	pop	rbx
	ret	0
?equivalent@error_category@std@@UEBA_NHAEBVerror_condition@2@@Z ENDP ; std::error_category::equivalent
_TEXT	ENDS
; Function compile flags: /Ogtpy
;	COMDAT ?equivalent@error_category@std@@UEBA_NAEBVerror_code@2@H@Z
_TEXT	SEGMENT
this$ = 8
_Code$ = 16
_Errval$ = 24
?equivalent@error_category@std@@UEBA_NAEBVerror_code@2@H@Z PROC ; std::error_category::equivalent, COMDAT
; File e:\software\develop\vs2012\vc\include\system_error
; Line 185
	cmp	rcx, QWORD PTR [rdx+8]
; Line 416
	jne	SHORT $LN3@equivalent
	cmp	DWORD PTR [rdx], r8d
	jne	SHORT $LN3@equivalent
	mov	al, 1
; Line 417
	ret	0
$LN3@equivalent:
; Line 416
	xor	al, al
; Line 417
	ret	0
?equivalent@error_category@std@@UEBA_NAEBVerror_code@2@H@Z ENDP ; std::error_category::equivalent
_TEXT	ENDS
; Function compile flags: /Ogtpy
;	COMDAT ??0_Generic_error_category@std@@QEAA@XZ
_TEXT	SEGMENT
this$ = 8
??0_Generic_error_category@std@@QEAA@XZ PROC		; std::_Generic_error_category::_Generic_error_category, COMDAT
; File e:\software\develop\vs2012\vc\include\system_error
; Line 580
	lea	rax, OFFSET FLAT:??_7_Generic_error_category@std@@6B@
	mov	QWORD PTR [rcx], rax
; Line 582
	mov	rax, rcx
	ret	0
??0_Generic_error_category@std@@QEAA@XZ ENDP		; std::_Generic_error_category::_Generic_error_category
_TEXT	ENDS
; Function compile flags: /Ogtpy
;	COMDAT ?name@_Generic_error_category@std@@UEBAPEBDXZ
_TEXT	SEGMENT
this$ = 8
?name@_Generic_error_category@std@@UEBAPEBDXZ PROC	; std::_Generic_error_category::name, COMDAT
; File e:\software\develop\vs2012\vc\include\system_error
; Line 586
	lea	rax, OFFSET FLAT:??_C@_07DCLBNMLN@generic?$AA@
; Line 587
	ret	0
?name@_Generic_error_category@std@@UEBAPEBDXZ ENDP	; std::_Generic_error_category::name
_TEXT	ENDS
; Function compile flags: /Ogtpy
;	COMDAT ?message@_Generic_error_category@std@@UEBA?AV?$basic_string@DU?$char_traits@D@std@@V?$allocator@D@2@@2@H@Z
_TEXT	SEGMENT
$T1 = 32
this$ = 64
__$ReturnUdt$ = 72
_Errcode$ = 80
?message@_Generic_error_category@std@@UEBA?AV?$basic_string@DU?$char_traits@D@std@@V?$allocator@D@2@@2@H@Z PROC ; std::_Generic_error_category::message, COMDAT
; File e:\software\develop\vs2012\vc\include\system_error
; Line 590
$LN51:
	mov	QWORD PTR [rsp+8], rbx
	push	rdi
	sub	rsp, 48					; 00000030H
	xor	ebx, ebx
; Line 591
	mov	ecx, r8d
	mov	rdi, rdx
	mov	DWORD PTR $T1[rsp], ebx
	call	QWORD PTR __imp_?_Syserror_map@std@@YAPEBDH@Z
; File e:\software\develop\vs2012\vc\include\xstring
; Line 2265
	mov	QWORD PTR [rdi+24], 15
; File e:\software\develop\vs2012\vc\include\system_error
; Line 592
	test	rax, rax
; File e:\software\develop\vs2012\vc\include\xstring
; Line 2218
	mov	QWORD PTR [rdi+16], rbx
; File e:\software\develop\vs2012\vc\include\system_error
; Line 592
	lea	rdx, OFFSET FLAT:??_C@_0O@BFJCFAAK@unknown?5error?$AA@
	cmovne	rdx, rax
; File e:\software\develop\vs2012\vc\include\iosfwd
; Line 564
	mov	BYTE PTR [rdi], bl
; Line 523
	cmp	BYTE PTR [rdx], bl
	je	SHORT $LN48@message
	or	rbx, -1
$LL49@message:
	inc	rbx
	cmp	BYTE PTR [rdx+rbx], 0
	jne	SHORT $LL49@message
$LN48@message:
; File e:\software\develop\vs2012\vc\include\xstring
; Line 1144
	mov	r8, rbx
	mov	rcx, rdi
	call	?assign@?$basic_string@DU?$char_traits@D@std@@V?$allocator@D@2@@std@@QEAAAEAV12@PEBD_K@Z ; std::basic_string<char,std::char_traits<char>,std::allocator<char> >::assign
; File e:\software\develop\vs2012\vc\include\system_error
; Line 593
	mov	rbx, QWORD PTR [rsp+64]
	mov	rax, rdi
	add	rsp, 48					; 00000030H
	pop	rdi
	ret	0
?message@_Generic_error_category@std@@UEBA?AV?$basic_string@DU?$char_traits@D@std@@V?$allocator@D@2@@2@H@Z ENDP ; std::_Generic_error_category::message
_TEXT	ENDS
; Function compile flags: /Ogtpy
;	COMDAT ??_G_Generic_error_category@std@@UEAAPEAXI@Z
_TEXT	SEGMENT
this$ = 48
__flags$ = 56
??_G_Generic_error_category@std@@UEAAPEAXI@Z PROC	; std::_Generic_error_category::`scalar deleting destructor', COMDAT
$LN10:
	push	rbx
	sub	rsp, 32					; 00000020H
; File e:\software\develop\vs2012\vc\include\system_error
; Line 167
	lea	rax, OFFSET FLAT:??_7error_category@std@@6B@
	mov	rbx, rcx
	mov	QWORD PTR [rcx], rax
	test	dl, 1
	je	SHORT $LN8@scalar
	call	QWORD PTR __imp_??3@YAXPEAX@Z
$LN8@scalar:
	mov	rax, rbx
	add	rsp, 32					; 00000020H
	pop	rbx
	ret	0
??_G_Generic_error_category@std@@UEAAPEAXI@Z ENDP	; std::_Generic_error_category::`scalar deleting destructor'
_TEXT	ENDS
; Function compile flags: /Ogtpy
;	COMDAT ??1_Generic_error_category@std@@UEAA@XZ
_TEXT	SEGMENT
this$ = 8
??1_Generic_error_category@std@@UEAA@XZ PROC		; std::_Generic_error_category::~_Generic_error_category, COMDAT
; File e:\software\develop\vs2012\vc\include\system_error
; Line 167
	lea	rax, OFFSET FLAT:??_7error_category@std@@6B@
	mov	QWORD PTR [rcx], rax
	ret	0
??1_Generic_error_category@std@@UEAA@XZ ENDP		; std::_Generic_error_category::~_Generic_error_category
_TEXT	ENDS
; Function compile flags: /Ogtpy
;	COMDAT ??0_Iostream_error_category@std@@QEAA@XZ
_TEXT	SEGMENT
this$dead$ = 8
??0_Iostream_error_category@std@@QEAA@XZ PROC		; std::_Iostream_error_category::_Iostream_error_category, COMDAT
; File e:\software\develop\vs2012\vc\include\system_error
; Line 601
	lea	rax, OFFSET FLAT:??_7_Iostream_error_category@std@@6B@
	mov	QWORD PTR ?_Iostream_object@?$_Error_objects@H@std@@2V_Iostream_error_category@2@A, rax ; std::_Error_objects<int>::_Iostream_object
; Line 603
	lea	rax, OFFSET FLAT:?_Iostream_object@?$_Error_objects@H@std@@2V_Iostream_error_category@2@A ; std::_Error_objects<int>::_Iostream_object
	ret	0
??0_Iostream_error_category@std@@QEAA@XZ ENDP		; std::_Iostream_error_category::_Iostream_error_category
_TEXT	ENDS
; Function compile flags: /Ogtpy
;	COMDAT ?name@_Iostream_error_category@std@@UEBAPEBDXZ
_TEXT	SEGMENT
this$ = 8
?name@_Iostream_error_category@std@@UEBAPEBDXZ PROC	; std::_Iostream_error_category::name, COMDAT
; File e:\software\develop\vs2012\vc\include\system_error
; Line 607
	lea	rax, OFFSET FLAT:??_C@_08LLGCOLLL@iostream?$AA@
; Line 608
	ret	0
?name@_Iostream_error_category@std@@UEBAPEBDXZ ENDP	; std::_Iostream_error_category::name
_TEXT	ENDS
; Function compile flags: /Ogtpy
;	COMDAT ?message@_Iostream_error_category@std@@UEBA?AV?$basic_string@DU?$char_traits@D@std@@V?$allocator@D@2@@2@H@Z
_TEXT	SEGMENT
$T1 = 32
this$ = 64
__$ReturnUdt$ = 72
_Errcode$ = 80
?message@_Iostream_error_category@std@@UEBA?AV?$basic_string@DU?$char_traits@D@std@@V?$allocator@D@2@@2@H@Z PROC ; std::_Iostream_error_category::message, COMDAT
; File e:\software\develop\vs2012\vc\include\system_error
; Line 611
$LN53:
	push	rbx
	sub	rsp, 48					; 00000030H
	xor	eax, eax
	mov	rbx, rdx
	mov	DWORD PTR $T1[rsp], eax
; Line 612
	cmp	r8d, 1
	jne	SHORT $LN2@message
; File e:\software\develop\vs2012\vc\include\xstring
; Line 2265
	mov	QWORD PTR [rdx+24], 15
; Line 2218
	mov	QWORD PTR [rdx+16], rax
; File e:\software\develop\vs2012\vc\include\iosfwd
; Line 564
	mov	BYTE PTR [rdx], al
; File e:\software\develop\vs2012\vc\include\xstring
; Line 1144
	lea	rdx, OFFSET FLAT:??_C@_0BG@PADBLCHM@iostream?5stream?5error?$AA@
	lea	r8d, QWORD PTR [rax+21]
	mov	rcx, rbx
	call	?assign@?$basic_string@DU?$char_traits@D@std@@V?$allocator@D@2@@std@@QEAAAEAV12@PEBD_K@Z ; std::basic_string<char,std::char_traits<char>,std::allocator<char> >::assign
; File e:\software\develop\vs2012\vc\include\system_error
; Line 615
	mov	rax, rbx
; Line 616
	add	rsp, 48					; 00000030H
	pop	rbx
	ret	0
$LN2@message:
; Line 615
	call	?message@_Generic_error_category@std@@UEBA?AV?$basic_string@DU?$char_traits@D@std@@V?$allocator@D@2@@2@H@Z ; std::_Generic_error_category::message
	mov	rax, rbx
; Line 616
	add	rsp, 48					; 00000030H
	pop	rbx
	ret	0
?message@_Iostream_error_category@std@@UEBA?AV?$basic_string@DU?$char_traits@D@std@@V?$allocator@D@2@@2@H@Z ENDP ; std::_Iostream_error_category::message
_TEXT	ENDS
; Function compile flags: /Ogtpy
;	COMDAT ??_G_Iostream_error_category@std@@UEAAPEAXI@Z
_TEXT	SEGMENT
this$ = 48
__flags$ = 56
??_G_Iostream_error_category@std@@UEAAPEAXI@Z PROC	; std::_Iostream_error_category::`scalar deleting destructor', COMDAT
$LN12:
	push	rbx
	sub	rsp, 32					; 00000020H
; File e:\software\develop\vs2012\vc\include\system_error
; Line 167
	lea	rax, OFFSET FLAT:??_7error_category@std@@6B@
	mov	rbx, rcx
	mov	QWORD PTR [rcx], rax
	test	dl, 1
	je	SHORT $LN10@scalar
	call	QWORD PTR __imp_??3@YAXPEAX@Z
$LN10@scalar:
	mov	rax, rbx
	add	rsp, 32					; 00000020H
	pop	rbx
	ret	0
??_G_Iostream_error_category@std@@UEAAPEAXI@Z ENDP	; std::_Iostream_error_category::`scalar deleting destructor'
_TEXT	ENDS
; Function compile flags: /Ogtpy
;	COMDAT ??1_Iostream_error_category@std@@UEAA@XZ
_TEXT	SEGMENT
this$ = 8
??1_Iostream_error_category@std@@UEAA@XZ PROC		; std::_Iostream_error_category::~_Iostream_error_category, COMDAT
; File e:\software\develop\vs2012\vc\include\system_error
; Line 167
	lea	rax, OFFSET FLAT:??_7error_category@std@@6B@
	mov	QWORD PTR [rcx], rax
	ret	0
??1_Iostream_error_category@std@@UEAA@XZ ENDP		; std::_Iostream_error_category::~_Iostream_error_category
_TEXT	ENDS
; Function compile flags: /Ogtpy
;	COMDAT ??0_System_error_category@std@@QEAA@XZ
_TEXT	SEGMENT
this$dead$ = 8
??0_System_error_category@std@@QEAA@XZ PROC		; std::_System_error_category::_System_error_category, COMDAT
; File e:\software\develop\vs2012\vc\include\system_error
; Line 624
	lea	rax, OFFSET FLAT:??_7_System_error_category@std@@6B@
	mov	QWORD PTR ?_System_object@?$_Error_objects@H@std@@2V_System_error_category@2@A, rax ; std::_Error_objects<int>::_System_object
; Line 626
	lea	rax, OFFSET FLAT:?_System_object@?$_Error_objects@H@std@@2V_System_error_category@2@A ; std::_Error_objects<int>::_System_object
	ret	0
??0_System_error_category@std@@QEAA@XZ ENDP		; std::_System_error_category::_System_error_category
_TEXT	ENDS
; Function compile flags: /Ogtpy
;	COMDAT ?name@_System_error_category@std@@UEBAPEBDXZ
_TEXT	SEGMENT
this$ = 8
?name@_System_error_category@std@@UEBAPEBDXZ PROC	; std::_System_error_category::name, COMDAT
; File e:\software\develop\vs2012\vc\include\system_error
; Line 630
	lea	rax, OFFSET FLAT:??_C@_06FHFOAHML@system?$AA@
; Line 631
	ret	0
?name@_System_error_category@std@@UEBAPEBDXZ ENDP	; std::_System_error_category::name
_TEXT	ENDS
; Function compile flags: /Ogtpy
;	COMDAT ?message@_System_error_category@std@@UEBA?AV?$basic_string@DU?$char_traits@D@std@@V?$allocator@D@2@@2@H@Z
_TEXT	SEGMENT
$T1 = 32
this$ = 64
__$ReturnUdt$ = 72
_Errcode$ = 80
?message@_System_error_category@std@@UEBA?AV?$basic_string@DU?$char_traits@D@std@@V?$allocator@D@2@@2@H@Z PROC ; std::_System_error_category::message, COMDAT
; File e:\software\develop\vs2012\vc\include\system_error
; Line 634
$LN51:
	mov	QWORD PTR [rsp+8], rbx
	push	rdi
	sub	rsp, 48					; 00000030H
	xor	ebx, ebx
; Line 635
	mov	ecx, r8d
	mov	rdi, rdx
	mov	DWORD PTR $T1[rsp], ebx
	call	QWORD PTR __imp_?_Winerror_map@std@@YAPEBDH@Z
; File e:\software\develop\vs2012\vc\include\xstring
; Line 2265
	mov	QWORD PTR [rdi+24], 15
; File e:\software\develop\vs2012\vc\include\system_error
; Line 636
	test	rax, rax
; File e:\software\develop\vs2012\vc\include\xstring
; Line 2218
	mov	QWORD PTR [rdi+16], rbx
; File e:\software\develop\vs2012\vc\include\system_error
; Line 636
	lea	rdx, OFFSET FLAT:??_C@_0O@BFJCFAAK@unknown?5error?$AA@
	cmovne	rdx, rax
; File e:\software\develop\vs2012\vc\include\iosfwd
; Line 564
	mov	BYTE PTR [rdi], bl
; Line 523
	cmp	BYTE PTR [rdx], bl
	je	SHORT $LN48@message
	or	rbx, -1
$LL49@message:
	inc	rbx
	cmp	BYTE PTR [rdx+rbx], 0
	jne	SHORT $LL49@message
$LN48@message:
; File e:\software\develop\vs2012\vc\include\xstring
; Line 1144
	mov	r8, rbx
	mov	rcx, rdi
	call	?assign@?$basic_string@DU?$char_traits@D@std@@V?$allocator@D@2@@std@@QEAAAEAV12@PEBD_K@Z ; std::basic_string<char,std::char_traits<char>,std::allocator<char> >::assign
; File e:\software\develop\vs2012\vc\include\system_error
; Line 637
	mov	rbx, QWORD PTR [rsp+64]
	mov	rax, rdi
	add	rsp, 48					; 00000030H
	pop	rdi
	ret	0
?message@_System_error_category@std@@UEBA?AV?$basic_string@DU?$char_traits@D@std@@V?$allocator@D@2@@2@H@Z ENDP ; std::_System_error_category::message
_TEXT	ENDS
; Function compile flags: /Ogtpy
;	COMDAT ?default_error_condition@_System_error_category@std@@UEBA?AVerror_condition@2@H@Z
_TEXT	SEGMENT
this$ = 48
__$ReturnUdt$ = 56
_Errval$ = 64
?default_error_condition@_System_error_category@std@@UEBA?AVerror_condition@2@H@Z PROC ; std::_System_error_category::default_error_condition, COMDAT
; File e:\software\develop\vs2012\vc\include\system_error
; Line 641
$LN15:
	mov	QWORD PTR [rsp+8], rbx
	push	rdi
	sub	rsp, 32					; 00000020H
; Line 642
	mov	ecx, r8d
	mov	edi, r8d
	mov	rbx, rdx
	call	QWORD PTR __imp_?_Syserror_map@std@@YAPEBDH@Z
; Line 316
	mov	DWORD PTR [rbx], edi
; Line 642
	test	rax, rax
; Line 316
	lea	rax, OFFSET FLAT:?_Generic_object@?$_Error_objects@H@std@@2V_Generic_error_category@2@A ; std::_Error_objects<int>::_Generic_object
; Line 642
	jne	SHORT $LN13@default_er
; Line 316
	lea	rax, OFFSET FLAT:?_System_object@?$_Error_objects@H@std@@2V_System_error_category@2@A ; std::_Error_objects<int>::_System_object
$LN13@default_er:
	mov	QWORD PTR [rbx+8], rax
; Line 645
	mov	rax, rbx
; Line 646
	mov	rbx, QWORD PTR [rsp+48]
	add	rsp, 32					; 00000020H
	pop	rdi
	ret	0
?default_error_condition@_System_error_category@std@@UEBA?AVerror_condition@2@H@Z ENDP ; std::_System_error_category::default_error_condition
_TEXT	ENDS
; Function compile flags: /Ogtpy
;	COMDAT ??_G_System_error_category@std@@UEAAPEAXI@Z
_TEXT	SEGMENT
this$ = 48
__flags$ = 56
??_G_System_error_category@std@@UEAAPEAXI@Z PROC	; std::_System_error_category::`scalar deleting destructor', COMDAT
$LN12:
	push	rbx
	sub	rsp, 32					; 00000020H
; File e:\software\develop\vs2012\vc\include\system_error
; Line 167
	lea	rax, OFFSET FLAT:??_7error_category@std@@6B@
	mov	rbx, rcx
	mov	QWORD PTR [rcx], rax
	test	dl, 1
	je	SHORT $LN10@scalar
	call	QWORD PTR __imp_??3@YAXPEAX@Z
$LN10@scalar:
	mov	rax, rbx
	add	rsp, 32					; 00000020H
	pop	rbx
	ret	0
??_G_System_error_category@std@@UEAAPEAXI@Z ENDP	; std::_System_error_category::`scalar deleting destructor'
_TEXT	ENDS
; Function compile flags: /Ogtpy
;	COMDAT ??1_System_error_category@std@@UEAA@XZ
_TEXT	SEGMENT
this$ = 8
??1_System_error_category@std@@UEAA@XZ PROC		; std::_System_error_category::~_System_error_category, COMDAT
; File e:\software\develop\vs2012\vc\include\system_error
; Line 167
	lea	rax, OFFSET FLAT:??_7error_category@std@@6B@
	mov	QWORD PTR [rcx], rax
	ret	0
??1_System_error_category@std@@UEAA@XZ ENDP		; std::_System_error_category::~_System_error_category
_TEXT	ENDS
; Function compile flags: /Ogtpy
;	COMDAT ?generic_category@std@@YAAEBVerror_category@1@XZ
_TEXT	SEGMENT
?generic_category@std@@YAAEBVerror_category@1@XZ PROC	; std::generic_category, COMDAT
; File e:\software\develop\vs2012\vc\include\system_error
; Line 670
	lea	rax, OFFSET FLAT:?_Generic_object@?$_Error_objects@H@std@@2V_Generic_error_category@2@A ; std::_Error_objects<int>::_Generic_object
; Line 671
	ret	0
?generic_category@std@@YAAEBVerror_category@1@XZ ENDP	; std::generic_category
_TEXT	ENDS
; Function compile flags: /Ogtpy
;	COMDAT ?system_category@std@@YAAEBVerror_category@1@XZ
_TEXT	SEGMENT
?system_category@std@@YAAEBVerror_category@1@XZ PROC	; std::system_category, COMDAT
; File e:\software\develop\vs2012\vc\include\system_error
; Line 680
	lea	rax, OFFSET FLAT:?_System_object@?$_Error_objects@H@std@@2V_System_error_category@2@A ; std::_Error_objects<int>::_System_object
; Line 681
	ret	0
?system_category@std@@YAAEBVerror_category@1@XZ ENDP	; std::system_category
_TEXT	ENDS
; Function compile flags: /Ogtpy
;	COMDAT ?get_pid_information@CCaption2AssParameter@@QEAAPEAUpid_information_t@@XZ
_TEXT	SEGMENT
this$ = 8
?get_pid_information@CCaption2AssParameter@@QEAAPEAUpid_information_t@@XZ PROC ; CCaption2AssParameter::get_pid_information, COMDAT
; File e:\project\other\caption2ass-master\caption2ass_pcr\caption2assparameter.h
; Line 75
	lea	rax, QWORD PTR [rcx+8]
	ret	0
?get_pid_information@CCaption2AssParameter@@QEAAPEAUpid_information_t@@XZ ENDP ; CCaption2AssParameter::get_pid_information
_TEXT	ENDS
; Function compile flags: /Ogtpy
;	COMDAT ?get_cli_parameter@CCaption2AssParameter@@QEAAPEAUcli_parameter_t@@XZ
_TEXT	SEGMENT
this$ = 8
?get_cli_parameter@CCaption2AssParameter@@QEAAPEAUcli_parameter_t@@XZ PROC ; CCaption2AssParameter::get_cli_parameter, COMDAT
; File e:\project\other\caption2ass-master\caption2ass_pcr\caption2assparameter.h
; Line 76
	lea	rax, QWORD PTR [rcx+16]
	ret	0
?get_cli_parameter@CCaption2AssParameter@@QEAAPEAUcli_parameter_t@@XZ ENDP ; CCaption2AssParameter::get_cli_parameter
_TEXT	ENDS
; Function compile flags: /Ogtpy
;	COMDAT ?get_ass_setting@CCaption2AssParameter@@QEAAPEAUass_setting_t@@XZ
_TEXT	SEGMENT
this$ = 8
?get_ass_setting@CCaption2AssParameter@@QEAAPEAUass_setting_t@@XZ PROC ; CCaption2AssParameter::get_ass_setting, COMDAT
; File e:\project\other\caption2ass-master\caption2ass_pcr\caption2assparameter.h
; Line 77
	lea	rax, QWORD PTR [rcx+88]
	ret	0
?get_ass_setting@CCaption2AssParameter@@QEAAPEAUass_setting_t@@XZ ENDP ; CCaption2AssParameter::get_ass_setting
_TEXT	ENDS
; Function compile flags: /Ogtpy
;	COMDAT ?init_timestamp@ITimestampHandler@@QEAAXXZ
_TEXT	SEGMENT
this$ = 8
?init_timestamp@ITimestampHandler@@QEAAXXZ PROC		; ITimestampHandler::init_timestamp, COMDAT
; File e:\project\other\caption2ass-master\caption2ass_pcr\caption2ass_pcr.cpp
; Line 98
	xor	eax, eax
	mov	QWORD PTR [rcx+8], -1
	mov	QWORD PTR [rcx+16], -1
	mov	QWORD PTR [rcx+32], rax
; Line 99
	mov	QWORD PTR [rcx+40], rax
; Line 100
	mov	QWORD PTR [rcx+48], rax
	mov	QWORD PTR [rcx+24], -1
; Line 101
	ret	0
?init_timestamp@ITimestampHandler@@QEAAXXZ ENDP		; ITimestampHandler::init_timestamp
_TEXT	ENDS
; Function compile flags: /Ogtpy
;	COMDAT ?initialize@ITimestampHandler@@UEAAXXZ
_TEXT	SEGMENT
this$ = 8
?initialize@ITimestampHandler@@UEAAXXZ PROC		; ITimestampHandler::initialize, COMDAT
; File e:\project\other\caption2ass-master\caption2ass_pcr\caption2ass_pcr.cpp
; Line 98
	xor	eax, eax
	mov	QWORD PTR [rcx+8], -1
	mov	QWORD PTR [rcx+16], -1
	mov	QWORD PTR [rcx+32], rax
; Line 99
	mov	QWORD PTR [rcx+40], rax
; Line 100
	mov	QWORD PTR [rcx+48], rax
	mov	QWORD PTR [rcx+24], -1
; Line 105
	ret	0
?initialize@ITimestampHandler@@UEAAXXZ ENDP		; ITimestampHandler::initialize
_TEXT	ENDS
; Function compile flags: /Ogtpy
;	COMDAT ?initialize@IAppHandler@@MEAAXXZ
_TEXT	SEGMENT
this$ = 8
?initialize@IAppHandler@@MEAAXXZ PROC			; IAppHandler::initialize, COMDAT
; File e:\project\other\caption2ass-master\caption2ass_pcr\caption2ass_pcr.cpp
; Line 98
	xor	eax, eax
	mov	QWORD PTR [rcx+8], -1
	mov	QWORD PTR [rcx+16], -1
	mov	QWORD PTR [rcx+32], rax
; Line 99
	mov	QWORD PTR [rcx+40], rax
; Line 100
	mov	QWORD PTR [rcx+48], rax
; Line 125
	mov	QWORD PTR [rcx+56], rax
; Line 127
	mov	DWORD PTR [rcx+64], eax
; Line 128
	mov	QWORD PTR [rcx+72], rax
; Line 129
	mov	QWORD PTR [rcx+80], rax
; Line 97
	mov	QWORD PTR [rcx+24], -1
; Line 130
	ret	0
?initialize@IAppHandler@@MEAAXXZ ENDP			; IAppHandler::initialize
_TEXT	ENDS
; Function compile flags: /Ogtpy
;	COMDAT ?GetParam@IAppHandler@@QEAAPEAXW4c2a_parameter_type@@@Z
_TEXT	SEGMENT
this$ = 8
param_type$ = 16
?GetParam@IAppHandler@@QEAAPEAXW4c2a_parameter_type@@@Z PROC ; IAppHandler::GetParam, COMDAT
; File e:\project\other\caption2ass-master\caption2ass_pcr\caption2ass_pcr.cpp
; Line 136
	test	edx, edx
	je	SHORT $LN5@GetParam
	dec	edx
	je	SHORT $LN4@GetParam
	dec	edx
	je	SHORT $LN3@GetParam
	dec	edx
	jne	SHORT $LN16@GetParam
; File e:\project\other\caption2ass-master\caption2ass_pcr\caption2assparameter.h
; Line 77
	mov	rax, QWORD PTR [rcx+80]
	add	rax, 88					; 00000058H
; File e:\project\other\caption2ass-master\caption2ass_pcr\caption2ass_pcr.cpp
; Line 153
	ret	0
$LN16@GetParam:
; Line 152
	xor	eax, eax
; Line 153
	ret	0
$LN3@GetParam:
; File e:\project\other\caption2ass-master\caption2ass_pcr\caption2assparameter.h
; Line 76
	mov	rax, QWORD PTR [rcx+80]
	add	rax, 16
; File e:\project\other\caption2ass-master\caption2ass_pcr\caption2ass_pcr.cpp
; Line 153
	ret	0
$LN4@GetParam:
; File e:\project\other\caption2ass-master\caption2ass_pcr\caption2assparameter.h
; Line 75
	mov	rax, QWORD PTR [rcx+80]
	add	rax, 8
; File e:\project\other\caption2ass-master\caption2ass_pcr\caption2ass_pcr.cpp
; Line 153
	ret	0
$LN5@GetParam:
; Line 152
	mov	rax, QWORD PTR [rcx+80]
; Line 153
	ret	0
?GetParam@IAppHandler@@QEAAPEAXW4c2a_parameter_type@@@Z ENDP ; IAppHandler::GetParam
_TEXT	ENDS
; Function compile flags: /Ogtpy
;	COMDAT ?initialize@IOutputHandler@@IEAAXW4format_type@@PEAVIAppHandler@@@Z
_TEXT	SEGMENT
this$ = 8
format$ = 16
app$ = 24
?initialize@IOutputHandler@@IEAAXW4format_type@@PEAVIAppHandler@@@Z PROC ; IOutputHandler::initialize, COMDAT
; File e:\project\other\caption2ass-master\caption2ass_pcr\caption2ass_pcr.cpp
; Line 172
	xor	eax, eax
; Line 173
	mov	DWORD PTR [rcx+12], edx
; Line 177
	mov	QWORD PTR [rcx+40], 260			; 00000104H
	mov	DWORD PTR [rcx+8], eax
	mov	QWORD PTR [rcx+16], rax
	mov	QWORD PTR [rcx+24], rax
	mov	DWORD PTR [rcx+32], eax
; Line 178
	mov	QWORD PTR [rcx+48], r8
; Line 179
	ret	0
?initialize@IOutputHandler@@IEAAXW4format_type@@PEAVIAppHandler@@@Z ENDP ; IOutputHandler::initialize
_TEXT	ENDS
; Function compile flags: /Ogtpy
;	COMDAT ?release@IOutputHandler@@IEAAXXZ
_TEXT	SEGMENT
this$ = 48
?release@IOutputHandler@@IEAAXXZ PROC			; IOutputHandler::release, COMDAT
; File e:\project\other\caption2ass-master\caption2ass_pcr\caption2ass_pcr.cpp
; Line 181
$LN5:
	push	rbx
	sub	rsp, 32					; 00000020H
	mov	rbx, rcx
; Line 182
	mov	rcx, QWORD PTR [rcx+16]
	test	rcx, rcx
	je	SHORT $LN1@release
	call	QWORD PTR __imp_??_V@YAXPEAX@Z
	mov	QWORD PTR [rbx+16], 0
$LN1@release:
; Line 183
	add	rsp, 32					; 00000020H
	pop	rbx
	ret	0
?release@IOutputHandler@@IEAAXXZ ENDP			; IOutputHandler::release
_TEXT	ENDS
; Function compile flags: /Ogtpy
;	COMDAT ?set_name@IOutputHandler@@IEAAXPEA_W0@Z
_TEXT	SEGMENT
this$ = 48
name$ = 56
ext$ = 64
?set_name@IOutputHandler@@IEAAXPEA_W0@Z PROC		; IOutputHandler::set_name, COMDAT
; File e:\project\other\caption2ass-master\caption2ass_pcr\caption2ass_pcr.cpp
; Line 185
$LN4:
	mov	QWORD PTR [rsp+8], rbx
	push	rdi
	sub	rsp, 32					; 00000020H
	mov	rbx, r8
; Line 187
	mov	r8, rdx
	mov	rdx, QWORD PTR [rcx+40]
	mov	rdi, rcx
	mov	rcx, QWORD PTR [rcx+16]
	call	QWORD PTR __imp_wcscpy_s
; Line 188
	mov	rdx, QWORD PTR [rdi+40]
	mov	rcx, QWORD PTR [rdi+16]
	mov	r8, rbx
; Line 189
	mov	rbx, QWORD PTR [rsp+48]
	add	rsp, 32					; 00000020H
	pop	rdi
; Line 188
	rex_jmp	QWORD PTR __imp_wcscat_s
?set_name@IOutputHandler@@IEAAXPEA_W0@Z ENDP		; IOutputHandler::set_name
_TEXT	ENDS
; Function compile flags: /Ogtpy
;	COMDAT ?open@IOutputHandler@@IEAAHPEA_W@Z
_TEXT	SEGMENT
this$ = 48
file_type$ = 56
?open@IOutputHandler@@IEAAHPEA_W@Z PROC			; IOutputHandler::open, COMDAT
; File e:\project\other\caption2ass-master\caption2ass_pcr\caption2ass_pcr.cpp
; Line 191
$LN8:
	mov	QWORD PTR [rsp+8], rbx
	mov	QWORD PTR [rsp+16], rsi
	push	rdi
	sub	rsp, 32					; 00000020H
; Line 192
	cmp	QWORD PTR [rcx+24], 0
	mov	rsi, rdx
	mov	rbx, rcx
	je	SHORT $LN4@open
; Line 193
	mov	eax, -2
; Line 203
	mov	rbx, QWORD PTR [rsp+48]
	mov	rsi, QWORD PTR [rsp+56]
	add	rsp, 32					; 00000020H
	pop	rdi
	ret	0
$LN4@open:
; Line 194
	mov	rcx, QWORD PTR [rcx+16]
	lea	rdx, OFFSET FLAT:??_C@_11LOCGONAA@?$AA?$AA@
	call	QWORD PTR __imp__wcsicmp
	test	eax, eax
	jne	SHORT $LN3@open
; Line 195
	mov	eax, 1
; Line 203
	mov	rbx, QWORD PTR [rsp+48]
	mov	rsi, QWORD PTR [rsp+56]
	add	rsp, 32					; 00000020H
	pop	rdi
	ret	0
$LN3@open:
; Line 196
	mov	rdx, QWORD PTR [rbx+16]
	lea	r8, OFFSET FLAT:??_C@_15MJDFFMKN@?$AAw?$AAb?$AA?$AA@
	lea	rcx, QWORD PTR [rbx+24]
	call	QWORD PTR __imp__wfopen_s
	test	eax, eax
	jne	SHORT $LN1@open
	cmp	QWORD PTR [rbx+24], 0
	je	SHORT $LN1@open
; Line 200
	mov	DWORD PTR [rbx+32], 1
; Line 201
	mov	DWORD PTR [rbx+8], 1
; Line 203
	mov	rbx, QWORD PTR [rsp+48]
	mov	rsi, QWORD PTR [rsp+56]
	add	rsp, 32					; 00000020H
	pop	rdi
	ret	0
$LN1@open:
; Line 197
	mov	r8, QWORD PTR [rbx+16]
	lea	rcx, OFFSET FLAT:??_C@_1DE@OELKDLBD@?$AAO?$AAp?$AAe?$AAn?$AA?5?$AA?$CF?$AAs?$AA?5?$AAF?$AAi?$AAl?$AAe?$AA?3?$AA?5?$AA?$CF?$AAs?$AA?5?$AAf?$AAa?$AAi?$AAl?$AAe?$AAd?$AA?$AN?$AA?6?$AA?$AA@
	mov	rdx, rsi
	call	?_tMyPrintf@@YAXPEB_WZZ			; _tMyPrintf
; Line 203
	mov	rbx, QWORD PTR [rsp+48]
	mov	rsi, QWORD PTR [rsp+56]
	or	eax, -1
	add	rsp, 32					; 00000020H
	pop	rdi
	ret	0
?open@IOutputHandler@@IEAAHPEA_W@Z ENDP			; IOutputHandler::open
_TEXT	ENDS
; Function compile flags: /Ogtpy
;	COMDAT ?close@IOutputHandler@@IEAAXH@Z
_TEXT	SEGMENT
this$ = 48
removed$ = 56
