; Listing generated by Microsoft (R) Optimizing Compiler Version 17.00.50727.1 

include listing.inc

INCLUDELIB OLDNAMES

PUBLIC	??_C@_1CA@LGNJKIOH@?$AAC?$AAa?$AAp?$AAt?$AAi?$AAo?$AAn?$AA_?$AAx?$AA6?$AA4?$AA?4?$AAd?$AAl?$AAl?$AA?$AA@ ; `string'
PUBLIC	??_C@_0N@CHFKGODM@InitializeCP?$AA@		; `string'
PUBLIC	??_C@_0P@FKFKLEJ@UnInitializeCP?$AA@		; `string'
PUBLIC	??_C@_0O@EGDOANGE@AddTSPacketCP?$AA@		; `string'
PUBLIC	??_C@_07IEODAFMH@ClearCP?$AA@			; `string'
PUBLIC	??_C@_0N@LBILFLGF@GetTagInfoCP?$AA@		; `string'
PUBLIC	??_C@_0BB@FPPKGPKA@GetCaptionDataCP?$AA@	; `string'
PUBLIC	??_C@_0BC@IHBNLMIB@InitializeUNICODE?$AA@	; `string'
EXTRN	__imp_GetProcAddress:PROC
EXTRN	__imp_LoadLibraryW:PROC
EXTRN	__imp_FreeLibrary:PROC
;	COMDAT ??_C@_0BC@IHBNLMIB@InitializeUNICODE?$AA@
CONST	SEGMENT
??_C@_0BC@IHBNLMIB@InitializeUNICODE?$AA@ DB 'InitializeUNICODE', 00H ; `string'
CONST	ENDS
;	COMDAT ??_C@_0BB@FPPKGPKA@GetCaptionDataCP?$AA@
CONST	SEGMENT
??_C@_0BB@FPPKGPKA@GetCaptionDataCP?$AA@ DB 'GetCaptionDataCP', 00H ; `string'
CONST	ENDS
;	COMDAT ??_C@_0N@LBILFLGF@GetTagInfoCP?$AA@
CONST	SEGMENT
??_C@_0N@LBILFLGF@GetTagInfoCP?$AA@ DB 'GetTagInfoCP', 00H ; `string'
CONST	ENDS
;	COMDAT ??_C@_07IEODAFMH@ClearCP?$AA@
CONST	SEGMENT
??_C@_07IEODAFMH@ClearCP?$AA@ DB 'ClearCP', 00H		; `string'
CONST	ENDS
;	COMDAT ??_C@_0O@EGDOANGE@AddTSPacketCP?$AA@
CONST	SEGMENT
??_C@_0O@EGDOANGE@AddTSPacketCP?$AA@ DB 'AddTSPacketCP', 00H ; `string'
CONST	ENDS
;	COMDAT ??_C@_0P@FKFKLEJ@UnInitializeCP?$AA@
CONST	SEGMENT
??_C@_0P@FKFKLEJ@UnInitializeCP?$AA@ DB 'UnInitializeCP', 00H ; `string'
CONST	ENDS
;	COMDAT ??_C@_0N@CHFKGODM@InitializeCP?$AA@
CONST	SEGMENT
??_C@_0N@CHFKGODM@InitializeCP?$AA@ DB 'InitializeCP', 00H ; `string'
CONST	ENDS
;	COMDAT ??_C@_1CA@LGNJKIOH@?$AAC?$AAa?$AAp?$AAt?$AAi?$AAo?$AAn?$AA_?$AAx?$AA6?$AA4?$AA?4?$AAd?$AAl?$AAl?$AA?$AA@
CONST	SEGMENT
??_C@_1CA@LGNJKIOH@?$AAC?$AAa?$AAp?$AAt?$AAi?$AAo?$AAn?$AA_?$AAx?$AA6?$AA4?$AA?4?$AAd?$AAl?$AAl?$AA?$AA@ DB 'C'
	DB	00H, 'a', 00H, 'p', 00H, 't', 00H, 'i', 00H, 'o', 00H, 'n', 00H
	DB	'_', 00H, 'x', 00H, '6', 00H, '4', 00H, '.', 00H, 'd', 00H, 'l'
	DB	00H, 'l', 00H, 00H, 00H			; `string'
PUBLIC	??$construct@U_CAPTION_DATA@@U1@@?$allocator@U_CAPTION_DATA@@@std@@QEAAXPEAU_CAPTION_DATA@@$$QEAU2@@Z ; std::allocator<_CAPTION_DATA>::construct<_CAPTION_DATA,_CAPTION_DATA>
PUBLIC	??$construct@U_LANG_TAG_INFO@@U1@@?$allocator@U_LANG_TAG_INFO@@@std@@QEAAXPEAU_LANG_TAG_INFO@@$$QEAU2@@Z ; std::allocator<_LANG_TAG_INFO>::construct<_LANG_TAG_INFO,_LANG_TAG_INFO>
PUBLIC	??$construct@U_CAPTION_CHAR_DATA@@U1@@?$allocator@U_CAPTION_CHAR_DATA@@@std@@QEAAXPEAU_CAPTION_CHAR_DATA@@$$QEAU2@@Z ; std::allocator<_CAPTION_CHAR_DATA>::construct<_CAPTION_CHAR_DATA,_CAPTION_CHAR_DATA>
PUBLIC	??$_Uninit_copy@V?$_Vector_const_iterator@V?$_Vector_val@U?$_Simple_types@U_CAPTION_CHAR_DATA@@@std@@@std@@@std@@PEAU_CAPTION_CHAR_DATA@@V?$allocator@U_CAPTION_CHAR_DATA@@@2@@std@@YAPEAU_CAPTION_CHAR_DATA@@V?$_Vector_const_iterator@V?$_Vector_val@U?$_Simple_types@U_CAPTION_CHAR_DATA@@@std@@@std@@@0@0PEAU1@AEAU?$_Wrap_alloc@V?$allocator@U_CAPTION_CHAR_DATA@@@std@@@0@U_Nonscalar_ptr_iterator_tag@0@@Z ; std::_Uninit_copy<std::_Vector_const_iterator<std::_Vector_val<std::_Simple_types<_CAPTION_CHAR_DATA> > >,_CAPTION_CHAR_DATA * __ptr64,std::allocator<_CAPTION_CHAR_DATA> >
PUBLIC	??$_Ptr_cat@V?$_Vector_const_iterator@V?$_Vector_val@U?$_Simple_types@U_CAPTION_CHAR_DATA@@@std@@@std@@@std@@PEAU_CAPTION_CHAR_DATA@@@std@@YA?AU_Nonscalar_ptr_iterator_tag@0@AEAV?$_Vector_const_iterator@V?$_Vector_val@U?$_Simple_types@U_CAPTION_CHAR_DATA@@@std@@@std@@@0@AEAPEAU_CAPTION_CHAR_DATA@@@Z ; std::_Ptr_cat<std::_Vector_const_iterator<std::_Vector_val<std::_Simple_types<_CAPTION_CHAR_DATA> > >,_CAPTION_CHAR_DATA * __ptr64>
PUBLIC	??$construct@U_CAPTION_DATA@@U1@@?$allocator_traits@V?$allocator@U_CAPTION_DATA@@@std@@@std@@SAXAEAV?$allocator@U_CAPTION_DATA@@@1@PEAU_CAPTION_DATA@@$$QEAU3@@Z ; std::allocator_traits<std::allocator<_CAPTION_DATA> >::construct<_CAPTION_DATA,_CAPTION_DATA>
PUBLIC	??$forward@U_CAPTION_DATA@@@std@@YA$$QEAU_CAPTION_DATA@@AEAU1@@Z ; std::forward<_CAPTION_DATA>
PUBLIC	??$construct@U_LANG_TAG_INFO@@U1@@?$allocator_traits@V?$allocator@U_LANG_TAG_INFO@@@std@@@std@@SAXAEAV?$allocator@U_LANG_TAG_INFO@@@1@PEAU_LANG_TAG_INFO@@$$QEAU3@@Z ; std::allocator_traits<std::allocator<_LANG_TAG_INFO> >::construct<_LANG_TAG_INFO,_LANG_TAG_INFO>
PUBLIC	??$forward@U_LANG_TAG_INFO@@@std@@YA$$QEAU_LANG_TAG_INFO@@AEAU1@@Z ; std::forward<_LANG_TAG_INFO>
PUBLIC	??$construct@U_CAPTION_CHAR_DATA@@U1@@?$allocator_traits@V?$allocator@U_CAPTION_CHAR_DATA@@@std@@@std@@SAXAEAV?$allocator@U_CAPTION_CHAR_DATA@@@1@PEAU_CAPTION_CHAR_DATA@@$$QEAU3@@Z ; std::allocator_traits<std::allocator<_CAPTION_CHAR_DATA> >::construct<_CAPTION_CHAR_DATA,_CAPTION_CHAR_DATA>
PUBLIC	??$forward@U_CAPTION_CHAR_DATA@@@std@@YA$$QEAU_CAPTION_CHAR_DATA@@AEAU1@@Z ; std::forward<_CAPTION_CHAR_DATA>
PUBLIC	??$_Uninitialized_copy@V?$_Vector_const_iterator@V?$_Vector_val@U?$_Simple_types@U_CAPTION_CHAR_DATA@@@std@@@std@@@std@@PEAU_CAPTION_CHAR_DATA@@U?$_Wrap_alloc@V?$allocator@U_CAPTION_CHAR_DATA@@@std@@@2@@std@@YAPEAU_CAPTION_CHAR_DATA@@V?$_Vector_const_iterator@V?$_Vector_val@U?$_Simple_types@U_CAPTION_CHAR_DATA@@@std@@@std@@@0@0PEAU1@AEAU?$_Wrap_alloc@V?$allocator@U_CAPTION_CHAR_DATA@@@std@@@0@@Z ; std::_Uninitialized_copy<std::_Vector_const_iterator<std::_Vector_val<std::_Simple_types<_CAPTION_CHAR_DATA> > >,_CAPTION_CHAR_DATA * __ptr64,std::_Wrap_alloc<std::allocator<_CAPTION_CHAR_DATA> > >
PUBLIC	??$construct@U_CAPTION_DATA@@U1@@?$_Wrap_alloc@V?$allocator@U_CAPTION_DATA@@@std@@@std@@QEAAXPEAU_CAPTION_DATA@@$$QEAU2@@Z ; std::_Wrap_alloc<std::allocator<_CAPTION_DATA> >::construct<_CAPTION_DATA,_CAPTION_DATA>
PUBLIC	??$construct@U_LANG_TAG_INFO@@U1@@?$_Wrap_alloc@V?$allocator@U_LANG_TAG_INFO@@@std@@@std@@QEAAXPEAU_LANG_TAG_INFO@@$$QEAU2@@Z ; std::_Wrap_alloc<std::allocator<_LANG_TAG_INFO> >::construct<_LANG_TAG_INFO,_LANG_TAG_INFO>
PUBLIC	??$construct@U_CAPTION_CHAR_DATA@@U1@@?$_Wrap_alloc@V?$allocator@U_CAPTION_CHAR_DATA@@@std@@@std@@QEAAXPEAU_CAPTION_CHAR_DATA@@$$QEAU2@@Z ; std::_Wrap_alloc<std::allocator<_CAPTION_CHAR_DATA> >::construct<_CAPTION_CHAR_DATA,_CAPTION_CHAR_DATA>
PUBLIC	??$_Ucopy@V?$_Vector_const_iterator@V?$_Vector_val@U?$_Simple_types@U_CAPTION_CHAR_DATA@@@std@@@std@@@std@@@?$vector@U_CAPTION_CHAR_DATA@@V?$allocator@U_CAPTION_CHAR_DATA@@@std@@@std@@IEAAPEAU_CAPTION_CHAR_DATA@@V?$_Vector_const_iterator@V?$_Vector_val@U?$_Simple_types@U_CAPTION_CHAR_DATA@@@std@@@std@@@1@0PEAU2@@Z ; std::vector<_CAPTION_CHAR_DATA,std::allocator<_CAPTION_CHAR_DATA> >::_Ucopy<std::_Vector_const_iterator<std::_Vector_val<std::_Simple_types<_CAPTION_CHAR_DATA> > > >
PUBLIC	??$_Uninit_move@PEAU_CAPTION_DATA@@PEAU1@V?$allocator@U_CAPTION_DATA@@@std@@U1@@std@@YAPEAU_CAPTION_DATA@@PEAU1@00AEAU?$_Wrap_alloc@V?$allocator@U_CAPTION_DATA@@@std@@@0@0U_Nonscalar_ptr_iterator_tag@0@@Z ; std::_Uninit_move<_CAPTION_DATA * __ptr64,_CAPTION_DATA * __ptr64,std::allocator<_CAPTION_DATA>,_CAPTION_DATA>
PUBLIC	??$_Val_type@PEAU_CAPTION_DATA@@@std@@YAPEAU_CAPTION_DATA@@PEAU1@@Z ; std::_Val_type<_CAPTION_DATA * __ptr64>
PUBLIC	??$_Uninit_move@PEAU_LANG_TAG_INFO@@PEAU1@V?$allocator@U_LANG_TAG_INFO@@@std@@U1@@std@@YAPEAU_LANG_TAG_INFO@@PEAU1@00AEAU?$_Wrap_alloc@V?$allocator@U_LANG_TAG_INFO@@@std@@@0@0U_Nonscalar_ptr_iterator_tag@0@@Z ; std::_Uninit_move<_LANG_TAG_INFO * __ptr64,_LANG_TAG_INFO * __ptr64,std::allocator<_LANG_TAG_INFO>,_LANG_TAG_INFO>
PUBLIC	??$_Val_type@PEAU_LANG_TAG_INFO@@@std@@YAPEAU_LANG_TAG_INFO@@PEAU1@@Z ; std::_Val_type<_LANG_TAG_INFO * __ptr64>
PUBLIC	??$_Uninit_move@PEAU_CAPTION_CHAR_DATA@@PEAU1@V?$allocator@U_CAPTION_CHAR_DATA@@@std@@U1@@std@@YAPEAU_CAPTION_CHAR_DATA@@PEAU1@00AEAU?$_Wrap_alloc@V?$allocator@U_CAPTION_CHAR_DATA@@@std@@@0@0U_Nonscalar_ptr_iterator_tag@0@@Z ; std::_Uninit_move<_CAPTION_CHAR_DATA * __ptr64,_CAPTION_CHAR_DATA * __ptr64,std::allocator<_CAPTION_CHAR_DATA>,_CAPTION_CHAR_DATA>
PUBLIC	??$_Val_type@PEAU_CAPTION_CHAR_DATA@@@std@@YAPEAU_CAPTION_CHAR_DATA@@PEAU1@@Z ; std::_Val_type<_CAPTION_CHAR_DATA * __ptr64>
PUBLIC	??$construct@U_CAPTION_DATA@@AEAU1@@?$allocator@U_CAPTION_DATA@@@std@@QEAAXPEAU_CAPTION_DATA@@AEAU2@@Z ; std::allocator<_CAPTION_DATA>::construct<_CAPTION_DATA,_CAPTION_DATA & __ptr64>
PUBLIC	??$construct@U_LANG_TAG_INFO@@AEAU1@@?$allocator@U_LANG_TAG_INFO@@@std@@QEAAXPEAU_LANG_TAG_INFO@@AEAU2@@Z ; std::allocator<_LANG_TAG_INFO>::construct<_LANG_TAG_INFO,_LANG_TAG_INFO & __ptr64>
PUBLIC	??$construct@U_CAPTION_CHAR_DATA@@AEAU1@@?$allocator@U_CAPTION_CHAR_DATA@@@std@@QEAAXPEAU_CAPTION_CHAR_DATA@@AEAU2@@Z ; std::allocator<_CAPTION_CHAR_DATA>::construct<_CAPTION_CHAR_DATA,_CAPTION_CHAR_DATA & __ptr64>
PUBLIC	?select_on_container_copy_construction@?$allocator@U_CAPTION_CHAR_DATA@@@std@@QEBA?AV12@XZ ; std::allocator<_CAPTION_CHAR_DATA>::select_on_container_copy_construction
PUBLIC	?select_on_container_copy_construction@?$allocator_traits@V?$allocator@U_CAPTION_CHAR_DATA@@@std@@@std@@SA?AV?$allocator@U_CAPTION_CHAR_DATA@@@2@AEBV32@@Z ; std::allocator_traits<std::allocator<_CAPTION_CHAR_DATA> >::select_on_container_copy_construction
PUBLIC	??0?$_Wrap_alloc@V?$allocator@U_CAPTION_CHAR_DATA@@@std@@@std@@QEAA@AEBV?$allocator@U_CAPTION_CHAR_DATA@@@1@@Z ; std::_Wrap_alloc<std::allocator<_CAPTION_CHAR_DATA> >::_Wrap_alloc<std::allocator<_CAPTION_CHAR_DATA> >
PUBLIC	?select_on_container_copy_construction@?$_Wrap_alloc@V?$allocator@U_CAPTION_CHAR_DATA@@@std@@@std@@QEBA?AU12@XZ ; std::_Wrap_alloc<std::allocator<_CAPTION_CHAR_DATA> >::select_on_container_copy_construction
PUBLIC	?end@?$vector@U_CAPTION_CHAR_DATA@@V?$allocator@U_CAPTION_CHAR_DATA@@@std@@@std@@QEBA?AV?$_Vector_const_iterator@V?$_Vector_val@U?$_Simple_types@U_CAPTION_CHAR_DATA@@@std@@@std@@@2@XZ ; std::vector<_CAPTION_CHAR_DATA,std::allocator<_CAPTION_CHAR_DATA> >::end
PUBLIC	?begin@?$vector@U_CAPTION_CHAR_DATA@@V?$allocator@U_CAPTION_CHAR_DATA@@@std@@@std@@QEBA?AV?$_Vector_const_iterator@V?$_Vector_val@U?$_Simple_types@U_CAPTION_CHAR_DATA@@@std@@@std@@@2@XZ ; std::vector<_CAPTION_CHAR_DATA,std::allocator<_CAPTION_CHAR_DATA> >::begin
PUBLIC	??0?$vector@U_CAPTION_CHAR_DATA@@V?$allocator@U_CAPTION_CHAR_DATA@@@std@@@std@@QEAA@AEBV01@@Z ; std::vector<_CAPTION_CHAR_DATA,std::allocator<_CAPTION_CHAR_DATA> >::vector<_CAPTION_CHAR_DATA,std::allocator<_CAPTION_CHAR_DATA> >
PUBLIC	??0_CAPTION_DATA@@QEAA@AEBU0@@Z			; _CAPTION_DATA::_CAPTION_DATA
PUBLIC	??0_CAPTION_CHAR_DATA@@QEAA@AEBU0@@Z		; _CAPTION_CHAR_DATA::_CAPTION_CHAR_DATA
PUBLIC	?construct@?$allocator@U_CAPTION_DATA@@@std@@QEAAXPEAU_CAPTION_DATA@@AEBU3@@Z ; std::allocator<_CAPTION_DATA>::construct
PUBLIC	?construct@?$allocator@U_LANG_TAG_INFO@@@std@@QEAAXPEAU_LANG_TAG_INFO@@AEBU3@@Z ; std::allocator<_LANG_TAG_INFO>::construct
PUBLIC	?construct@?$allocator@U_CAPTION_CHAR_DATA@@@std@@QEAAXPEAU_CAPTION_CHAR_DATA@@AEBU3@@Z ; std::allocator<_CAPTION_CHAR_DATA>::construct
PUBLIC	??0?$allocator@U_CAPTION_CHAR_DATA@@@std@@QEAA@AEBV01@@Z ; std::allocator<_CAPTION_CHAR_DATA>::allocator<_CAPTION_CHAR_DATA>
PUBLIC	??$_Uninitialized_move@PEAU_CAPTION_DATA@@PEAU1@U?$_Wrap_alloc@V?$allocator@U_CAPTION_DATA@@@std@@@std@@@std@@YAPEAU_CAPTION_DATA@@PEAU1@00AEAU?$_Wrap_alloc@V?$allocator@U_CAPTION_DATA@@@std@@@0@@Z ; std::_Uninitialized_move<_CAPTION_DATA * __ptr64,_CAPTION_DATA * __ptr64,std::_Wrap_alloc<std::allocator<_CAPTION_DATA> > >
PUBLIC	??$_Uninitialized_move@PEAU_LANG_TAG_INFO@@PEAU1@U?$_Wrap_alloc@V?$allocator@U_LANG_TAG_INFO@@@std@@@std@@@std@@YAPEAU_LANG_TAG_INFO@@PEAU1@00AEAU?$_Wrap_alloc@V?$allocator@U_LANG_TAG_INFO@@@std@@@0@@Z ; std::_Uninitialized_move<_LANG_TAG_INFO * __ptr64,_LANG_TAG_INFO * __ptr64,std::_Wrap_alloc<std::allocator<_LANG_TAG_INFO> > >
PUBLIC	??$_Uninitialized_move@PEAU_CAPTION_CHAR_DATA@@PEAU1@U?$_Wrap_alloc@V?$allocator@U_CAPTION_CHAR_DATA@@@std@@@std@@@std@@YAPEAU_CAPTION_CHAR_DATA@@PEAU1@00AEAU?$_Wrap_alloc@V?$allocator@U_CAPTION_CHAR_DATA@@@std@@@0@@Z ; std::_Uninitialized_move<_CAPTION_CHAR_DATA * __ptr64,_CAPTION_CHAR_DATA * __ptr64,std::_Wrap_alloc<std::allocator<_CAPTION_CHAR_DATA> > >
PUBLIC	??$construct@U_CAPTION_DATA@@AEBU1@@?$allocator_traits@V?$allocator@U_CAPTION_DATA@@@std@@@std@@SAXAEAV?$allocator@U_CAPTION_DATA@@@1@PEAU_CAPTION_DATA@@AEBU3@@Z ; std::allocator_traits<std::allocator<_CAPTION_DATA> >::construct<_CAPTION_DATA,_CAPTION_DATA const & __ptr64>
PUBLIC	??$forward@AEBU_CAPTION_DATA@@@std@@YAAEBU_CAPTION_DATA@@AEBU1@@Z ; std::forward<_CAPTION_DATA const & __ptr64>
PUBLIC	??$construct@U_CAPTION_DATA@@AEAU1@@?$allocator_traits@V?$allocator@U_CAPTION_DATA@@@std@@@std@@SAXAEAV?$allocator@U_CAPTION_DATA@@@1@PEAU_CAPTION_DATA@@AEAU3@@Z ; std::allocator_traits<std::allocator<_CAPTION_DATA> >::construct<_CAPTION_DATA,_CAPTION_DATA & __ptr64>
PUBLIC	??$forward@AEAU_CAPTION_DATA@@@std@@YAAEAU_CAPTION_DATA@@AEAU1@@Z ; std::forward<_CAPTION_DATA & __ptr64>
PUBLIC	??$construct@U_LANG_TAG_INFO@@AEBU1@@?$allocator_traits@V?$allocator@U_LANG_TAG_INFO@@@std@@@std@@SAXAEAV?$allocator@U_LANG_TAG_INFO@@@1@PEAU_LANG_TAG_INFO@@AEBU3@@Z ; std::allocator_traits<std::allocator<_LANG_TAG_INFO> >::construct<_LANG_TAG_INFO,_LANG_TAG_INFO const & __ptr64>
PUBLIC	??$forward@AEBU_LANG_TAG_INFO@@@std@@YAAEBU_LANG_TAG_INFO@@AEBU1@@Z ; std::forward<_LANG_TAG_INFO const & __ptr64>
PUBLIC	??$construct@U_LANG_TAG_INFO@@AEAU1@@?$allocator_traits@V?$allocator@U_LANG_TAG_INFO@@@std@@@std@@SAXAEAV?$allocator@U_LANG_TAG_INFO@@@1@PEAU_LANG_TAG_INFO@@AEAU3@@Z ; std::allocator_traits<std::allocator<_LANG_TAG_INFO> >::construct<_LANG_TAG_INFO,_LANG_TAG_INFO & __ptr64>
PUBLIC	??$forward@AEAU_LANG_TAG_INFO@@@std@@YAAEAU_LANG_TAG_INFO@@AEAU1@@Z ; std::forward<_LANG_TAG_INFO & __ptr64>
PUBLIC	??$construct@U_CAPTION_CHAR_DATA@@AEBU1@@?$allocator_traits@V?$allocator@U_CAPTION_CHAR_DATA@@@std@@@std@@SAXAEAV?$allocator@U_CAPTION_CHAR_DATA@@@1@PEAU_CAPTION_CHAR_DATA@@AEBU3@@Z ; std::allocator_traits<std::allocator<_CAPTION_CHAR_DATA> >::construct<_CAPTION_CHAR_DATA,_CAPTION_CHAR_DATA const & __ptr64>
PUBLIC	??$forward@AEBU_CAPTION_CHAR_DATA@@@std@@YAAEBU_CAPTION_CHAR_DATA@@AEBU1@@Z ; std::forward<_CAPTION_CHAR_DATA const & __ptr64>
PUBLIC	??$construct@U_CAPTION_CHAR_DATA@@AEAU1@@?$allocator_traits@V?$allocator@U_CAPTION_CHAR_DATA@@@std@@@std@@SAXAEAV?$allocator@U_CAPTION_CHAR_DATA@@@1@PEAU_CAPTION_CHAR_DATA@@AEAU3@@Z ; std::allocator_traits<std::allocator<_CAPTION_CHAR_DATA> >::construct<_CAPTION_CHAR_DATA,_CAPTION_CHAR_DATA & __ptr64>
PUBLIC	??$forward@AEAU_CAPTION_CHAR_DATA@@@std@@YAAEAU_CAPTION_CHAR_DATA@@AEAU1@@Z ; std::forward<_CAPTION_CHAR_DATA & __ptr64>
PUBLIC	??$_Allocate@U_CAPTION_DATA@@@std@@YAPEAU_CAPTION_DATA@@_KPEAU1@@Z ; std::_Allocate<_CAPTION_DATA>
PUBLIC	??$_Allocate@U_LANG_TAG_INFO@@@std@@YAPEAU_LANG_TAG_INFO@@_KPEAU1@@Z ; std::_Allocate<_LANG_TAG_INFO>
PUBLIC	??$_Allocate@U_CAPTION_CHAR_DATA@@@std@@YAPEAU_CAPTION_CHAR_DATA@@_KPEAU1@@Z ; std::_Allocate<_CAPTION_CHAR_DATA>
PUBLIC	??$_Umove@PEAU_CAPTION_DATA@@@?$vector@U_CAPTION_DATA@@V?$allocator@U_CAPTION_DATA@@@std@@@std@@IEAAPEAU_CAPTION_DATA@@PEAU2@00@Z ; std::vector<_CAPTION_DATA,std::allocator<_CAPTION_DATA> >::_Umove<_CAPTION_DATA * __ptr64>
PUBLIC	??$_Umove@PEAU_LANG_TAG_INFO@@@?$vector@U_LANG_TAG_INFO@@V?$allocator@U_LANG_TAG_INFO@@@std@@@std@@IEAAPEAU_LANG_TAG_INFO@@PEAU2@00@Z ; std::vector<_LANG_TAG_INFO,std::allocator<_LANG_TAG_INFO> >::_Umove<_LANG_TAG_INFO * __ptr64>
PUBLIC	??$_Umove@PEAU_CAPTION_CHAR_DATA@@@?$vector@U_CAPTION_CHAR_DATA@@V?$allocator@U_CAPTION_CHAR_DATA@@@std@@@std@@IEAAPEAU_CAPTION_CHAR_DATA@@PEAU2@00@Z ; std::vector<_CAPTION_CHAR_DATA,std::allocator<_CAPTION_CHAR_DATA> >::_Umove<_CAPTION_CHAR_DATA * __ptr64>
PUBLIC	??$construct@U_CAPTION_DATA@@AEBU1@@?$_Wrap_alloc@V?$allocator@U_CAPTION_DATA@@@std@@@std@@QEAAXPEAU_CAPTION_DATA@@AEBU2@@Z ; std::_Wrap_alloc<std::allocator<_CAPTION_DATA> >::construct<_CAPTION_DATA,_CAPTION_DATA const & __ptr64>
PUBLIC	??$construct@U_CAPTION_DATA@@AEAU1@@?$_Wrap_alloc@V?$allocator@U_CAPTION_DATA@@@std@@@std@@QEAAXPEAU_CAPTION_DATA@@AEAU2@@Z ; std::_Wrap_alloc<std::allocator<_CAPTION_DATA> >::construct<_CAPTION_DATA,_CAPTION_DATA & __ptr64>
PUBLIC	??$addressof@$$CBU_CAPTION_DATA@@@std@@YAPEBU_CAPTION_DATA@@AEBU1@@Z ; std::addressof<_CAPTION_DATA const >
PUBLIC	??$construct@U_LANG_TAG_INFO@@AEBU1@@?$_Wrap_alloc@V?$allocator@U_LANG_TAG_INFO@@@std@@@std@@QEAAXPEAU_LANG_TAG_INFO@@AEBU2@@Z ; std::_Wrap_alloc<std::allocator<_LANG_TAG_INFO> >::construct<_LANG_TAG_INFO,_LANG_TAG_INFO const & __ptr64>
PUBLIC	??$construct@U_LANG_TAG_INFO@@AEAU1@@?$_Wrap_alloc@V?$allocator@U_LANG_TAG_INFO@@@std@@@std@@QEAAXPEAU_LANG_TAG_INFO@@AEAU2@@Z ; std::_Wrap_alloc<std::allocator<_LANG_TAG_INFO> >::construct<_LANG_TAG_INFO,_LANG_TAG_INFO & __ptr64>
PUBLIC	??$addressof@$$CBU_LANG_TAG_INFO@@@std@@YAPEBU_LANG_TAG_INFO@@AEBU1@@Z ; std::addressof<_LANG_TAG_INFO const >
PUBLIC	??$construct@U_CAPTION_CHAR_DATA@@AEBU1@@?$_Wrap_alloc@V?$allocator@U_CAPTION_CHAR_DATA@@@std@@@std@@QEAAXPEAU_CAPTION_CHAR_DATA@@AEBU2@@Z ; std::_Wrap_alloc<std::allocator<_CAPTION_CHAR_DATA> >::construct<_CAPTION_CHAR_DATA,_CAPTION_CHAR_DATA const & __ptr64>
PUBLIC	??$construct@U_CAPTION_CHAR_DATA@@AEAU1@@?$_Wrap_alloc@V?$allocator@U_CAPTION_CHAR_DATA@@@std@@@std@@QEAAXPEAU_CAPTION_CHAR_DATA@@AEAU2@@Z ; std::_Wrap_alloc<std::allocator<_CAPTION_CHAR_DATA> >::construct<_CAPTION_CHAR_DATA,_CAPTION_CHAR_DATA & __ptr64>
PUBLIC	??$addressof@$$CBU_CAPTION_CHAR_DATA@@@std@@YAPEBU_CAPTION_CHAR_DATA@@AEBU1@@Z ; std::addressof<_CAPTION_CHAR_DATA const >
PUBLIC	?max_size@?$allocator@U_CAPTION_DATA@@@std@@QEBA_KXZ ; std::allocator<_CAPTION_DATA>::max_size
PUBLIC	?max_size@?$allocator@U_LANG_TAG_INFO@@@std@@QEBA_KXZ ; std::allocator<_LANG_TAG_INFO>::max_size
PUBLIC	?max_size@?$allocator@U_CAPTION_CHAR_DATA@@@std@@QEBA_KXZ ; std::allocator<_CAPTION_CHAR_DATA>::max_size
PUBLIC	?max_size@?$allocator_traits@V?$allocator@U_CAPTION_DATA@@@std@@@std@@SA_KAEBV?$allocator@U_CAPTION_DATA@@@2@@Z ; std::allocator_traits<std::allocator<_CAPTION_DATA> >::max_size
PUBLIC	?allocate@?$allocator@U_CAPTION_DATA@@@std@@QEAAPEAU_CAPTION_DATA@@_K@Z ; std::allocator<_CAPTION_DATA>::allocate
PUBLIC	?max_size@?$allocator_traits@V?$allocator@U_LANG_TAG_INFO@@@std@@@std@@SA_KAEBV?$allocator@U_LANG_TAG_INFO@@@2@@Z ; std::allocator_traits<std::allocator<_LANG_TAG_INFO> >::max_size
PUBLIC	?allocate@?$allocator@U_LANG_TAG_INFO@@@std@@QEAAPEAU_LANG_TAG_INFO@@_K@Z ; std::allocator<_LANG_TAG_INFO>::allocate
PUBLIC	?max_size@?$allocator_traits@V?$allocator@U_CAPTION_CHAR_DATA@@@std@@@std@@SA_KAEBV?$allocator@U_CAPTION_CHAR_DATA@@@2@@Z ; std::allocator_traits<std::allocator<_CAPTION_CHAR_DATA> >::max_size
PUBLIC	?max_size@?$_Wrap_alloc@V?$allocator@U_CAPTION_DATA@@@std@@@std@@QEBA_KXZ ; std::_Wrap_alloc<std::allocator<_CAPTION_DATA> >::max_size
PUBLIC	?allocate@?$_Wrap_alloc@V?$allocator@U_CAPTION_DATA@@@std@@@std@@QEAAPEAU_CAPTION_DATA@@_K@Z ; std::_Wrap_alloc<std::allocator<_CAPTION_DATA> >::allocate
PUBLIC	?capacity@?$vector@U_CAPTION_DATA@@V?$allocator@U_CAPTION_DATA@@@std@@@std@@QEBA_KXZ ; std::vector<_CAPTION_DATA,std::allocator<_CAPTION_DATA> >::capacity
PUBLIC	?max_size@?$_Wrap_alloc@V?$allocator@U_LANG_TAG_INFO@@@std@@@std@@QEBA_KXZ ; std::_Wrap_alloc<std::allocator<_LANG_TAG_INFO> >::max_size
PUBLIC	?allocate@?$_Wrap_alloc@V?$allocator@U_LANG_TAG_INFO@@@std@@@std@@QEAAPEAU_LANG_TAG_INFO@@_K@Z ; std::_Wrap_alloc<std::allocator<_LANG_TAG_INFO> >::allocate
PUBLIC	?capacity@?$vector@U_LANG_TAG_INFO@@V?$allocator@U_LANG_TAG_INFO@@@std@@@std@@QEBA_KXZ ; std::vector<_LANG_TAG_INFO,std::allocator<_LANG_TAG_INFO> >::capacity
PUBLIC	?max_size@?$_Wrap_alloc@V?$allocator@U_CAPTION_CHAR_DATA@@@std@@@std@@QEBA_KXZ ; std::_Wrap_alloc<std::allocator<_CAPTION_CHAR_DATA> >::max_size
PUBLIC	?allocate@?$allocator@U_CAPTION_CHAR_DATA@@@std@@QEAAPEAU_CAPTION_CHAR_DATA@@_K@Z ; std::allocator<_CAPTION_CHAR_DATA>::allocate
PUBLIC	?_Xlen@?$vector@U_CAPTION_DATA@@V?$allocator@U_CAPTION_DATA@@@std@@@std@@IEBAXXZ ; std::vector<_CAPTION_DATA,std::allocator<_CAPTION_DATA> >::_Xlen
PUBLIC	?_Reallocate@?$vector@U_CAPTION_DATA@@V?$allocator@U_CAPTION_DATA@@@std@@@std@@IEAAX_K@Z ; std::vector<_CAPTION_DATA,std::allocator<_CAPTION_DATA> >::_Reallocate
PUBLIC	?_Grow_to@?$vector@U_CAPTION_DATA@@V?$allocator@U_CAPTION_DATA@@@std@@@std@@IEBA_K_K@Z ; std::vector<_CAPTION_DATA,std::allocator<_CAPTION_DATA> >::_Grow_to
PUBLIC	?max_size@?$vector@U_CAPTION_DATA@@V?$allocator@U_CAPTION_DATA@@@std@@@std@@QEBA_KXZ ; std::vector<_CAPTION_DATA,std::allocator<_CAPTION_DATA> >::max_size
PUBLIC	?size@?$vector@U_CAPTION_DATA@@V?$allocator@U_CAPTION_DATA@@@std@@@std@@QEBA_KXZ ; std::vector<_CAPTION_DATA,std::allocator<_CAPTION_DATA> >::size
PUBLIC	?_Unused_capacity@?$vector@U_CAPTION_DATA@@V?$allocator@U_CAPTION_DATA@@@std@@@std@@QEBA_KXZ ; std::vector<_CAPTION_DATA,std::allocator<_CAPTION_DATA> >::_Unused_capacity
PUBLIC	?_Xlen@?$vector@U_LANG_TAG_INFO@@V?$allocator@U_LANG_TAG_INFO@@@std@@@std@@IEBAXXZ ; std::vector<_LANG_TAG_INFO,std::allocator<_LANG_TAG_INFO> >::_Xlen
PUBLIC	?_Reallocate@?$vector@U_LANG_TAG_INFO@@V?$allocator@U_LANG_TAG_INFO@@@std@@@std@@IEAAX_K@Z ; std::vector<_LANG_TAG_INFO,std::allocator<_LANG_TAG_INFO> >::_Reallocate
PUBLIC	?_Grow_to@?$vector@U_LANG_TAG_INFO@@V?$allocator@U_LANG_TAG_INFO@@@std@@@std@@IEBA_K_K@Z ; std::vector<_LANG_TAG_INFO,std::allocator<_LANG_TAG_INFO> >::_Grow_to
PUBLIC	?max_size@?$vector@U_LANG_TAG_INFO@@V?$allocator@U_LANG_TAG_INFO@@@std@@@std@@QEBA_KXZ ; std::vector<_LANG_TAG_INFO,std::allocator<_LANG_TAG_INFO> >::max_size
PUBLIC	?size@?$vector@U_LANG_TAG_INFO@@V?$allocator@U_LANG_TAG_INFO@@@std@@@std@@QEBA_KXZ ; std::vector<_LANG_TAG_INFO,std::allocator<_LANG_TAG_INFO> >::size
PUBLIC	?_Unused_capacity@?$vector@U_LANG_TAG_INFO@@V?$allocator@U_LANG_TAG_INFO@@@std@@@std@@QEBA_KXZ ; std::vector<_LANG_TAG_INFO,std::allocator<_LANG_TAG_INFO> >::_Unused_capacity
PUBLIC	??0?$_Vector_val@U?$_Simple_types@U_CAPTION_CHAR_DATA@@@std@@@std@@QEAA@XZ ; std::_Vector_val<std::_Simple_types<_CAPTION_CHAR_DATA> >::_Vector_val<std::_Simple_types<_CAPTION_CHAR_DATA> >
PUBLIC	?allocate@?$_Wrap_alloc@V?$allocator@U_CAPTION_CHAR_DATA@@@std@@@std@@QEAAPEAU_CAPTION_CHAR_DATA@@_K@Z ; std::_Wrap_alloc<std::allocator<_CAPTION_CHAR_DATA> >::allocate
PUBLIC	?_Xlen@?$vector@U_CAPTION_CHAR_DATA@@V?$allocator@U_CAPTION_CHAR_DATA@@@std@@@std@@IEBAXXZ ; std::vector<_CAPTION_CHAR_DATA,std::allocator<_CAPTION_CHAR_DATA> >::_Xlen
PUBLIC	?_Reallocate@?$vector@U_CAPTION_CHAR_DATA@@V?$allocator@U_CAPTION_CHAR_DATA@@@std@@@std@@IEAAX_K@Z ; std::vector<_CAPTION_CHAR_DATA,std::allocator<_CAPTION_CHAR_DATA> >::_Reallocate
PUBLIC	?_Grow_to@?$vector@U_CAPTION_CHAR_DATA@@V?$allocator@U_CAPTION_CHAR_DATA@@@std@@@std@@IEBA_K_K@Z ; std::vector<_CAPTION_CHAR_DATA,std::allocator<_CAPTION_CHAR_DATA> >::_Grow_to
PUBLIC	?max_size@?$vector@U_CAPTION_CHAR_DATA@@V?$allocator@U_CAPTION_CHAR_DATA@@@std@@@std@@QEBA_KXZ ; std::vector<_CAPTION_CHAR_DATA,std::allocator<_CAPTION_CHAR_DATA> >::max_size
PUBLIC	?_Unused_capacity@?$vector@U_CAPTION_CHAR_DATA@@V?$allocator@U_CAPTION_CHAR_DATA@@@std@@@std@@QEBA_KXZ ; std::vector<_CAPTION_CHAR_DATA,std::allocator<_CAPTION_CHAR_DATA> >::_Unused_capacity
PUBLIC	?_Orphan_range@?$vector@U_CAPTION_DATA@@V?$allocator@U_CAPTION_DATA@@@std@@@std@@IEBAXPEAU_CAPTION_DATA@@0@Z ; std::vector<_CAPTION_DATA,std::allocator<_CAPTION_DATA> >::_Orphan_range
PUBLIC	?_Reserve@?$vector@U_CAPTION_DATA@@V?$allocator@U_CAPTION_DATA@@@std@@@std@@IEAAX_K@Z ; std::vector<_CAPTION_DATA,std::allocator<_CAPTION_DATA> >::_Reserve
PUBLIC	?_Inside@?$vector@U_CAPTION_DATA@@V?$allocator@U_CAPTION_DATA@@@std@@@std@@IEBA_NPEBU_CAPTION_DATA@@@Z ; std::vector<_CAPTION_DATA,std::allocator<_CAPTION_DATA> >::_Inside
PUBLIC	?_Orphan_range@?$vector@U_LANG_TAG_INFO@@V?$allocator@U_LANG_TAG_INFO@@@std@@@std@@IEBAXPEAU_LANG_TAG_INFO@@0@Z ; std::vector<_LANG_TAG_INFO,std::allocator<_LANG_TAG_INFO> >::_Orphan_range
PUBLIC	?_Reserve@?$vector@U_LANG_TAG_INFO@@V?$allocator@U_LANG_TAG_INFO@@@std@@@std@@IEAAX_K@Z ; std::vector<_LANG_TAG_INFO,std::allocator<_LANG_TAG_INFO> >::_Reserve
PUBLIC	?_Inside@?$vector@U_LANG_TAG_INFO@@V?$allocator@U_LANG_TAG_INFO@@@std@@@std@@IEBA_NPEBU_LANG_TAG_INFO@@@Z ; std::vector<_LANG_TAG_INFO,std::allocator<_LANG_TAG_INFO> >::_Inside
PUBLIC	??0?$_Vector_alloc@$0A@U?$_Vec_base_types@U_CAPTION_CHAR_DATA@@V?$allocator@U_CAPTION_CHAR_DATA@@@std@@@std@@@std@@QEAA@AEBV?$allocator@U_CAPTION_CHAR_DATA@@@1@@Z ; std::_Vector_alloc<0,std::_Vec_base_types<_CAPTION_CHAR_DATA,std::allocator<_CAPTION_CHAR_DATA> > >::_Vector_alloc<0,std::_Vec_base_types<_CAPTION_CHAR_DATA,std::allocator<_CAPTION_CHAR_DATA> > >
PUBLIC	?_Orphan_range@?$vector@U_CAPTION_CHAR_DATA@@V?$allocator@U_CAPTION_CHAR_DATA@@@std@@@std@@IEBAXPEAU_CAPTION_CHAR_DATA@@0@Z ; std::vector<_CAPTION_CHAR_DATA,std::allocator<_CAPTION_CHAR_DATA> >::_Orphan_range
PUBLIC	?_Reserve@?$vector@U_CAPTION_CHAR_DATA@@V?$allocator@U_CAPTION_CHAR_DATA@@@std@@@std@@IEAAX_K@Z ; std::vector<_CAPTION_CHAR_DATA,std::allocator<_CAPTION_CHAR_DATA> >::_Reserve
PUBLIC	?_Inside@?$vector@U_CAPTION_CHAR_DATA@@V?$allocator@U_CAPTION_CHAR_DATA@@@std@@@std@@IEBA_NPEBU_CAPTION_CHAR_DATA@@@Z ; std::vector<_CAPTION_CHAR_DATA,std::allocator<_CAPTION_CHAR_DATA> >::_Inside
PUBLIC	?_Buy@?$vector@U_CAPTION_CHAR_DATA@@V?$allocator@U_CAPTION_CHAR_DATA@@@std@@@std@@IEAA_N_K@Z ; std::vector<_CAPTION_CHAR_DATA,std::allocator<_CAPTION_CHAR_DATA> >::_Buy
PUBLIC	?capacity@?$vector@U_CAPTION_CHAR_DATA@@V?$allocator@U_CAPTION_CHAR_DATA@@@std@@@std@@QEBA_KXZ ; std::vector<_CAPTION_CHAR_DATA,std::allocator<_CAPTION_CHAR_DATA> >::capacity
PUBLIC	?push_back@?$vector@U_CAPTION_DATA@@V?$allocator@U_CAPTION_DATA@@@std@@@std@@QEAAXAEBU_CAPTION_DATA@@@Z ; std::vector<_CAPTION_DATA,std::allocator<_CAPTION_DATA> >::push_back
PUBLIC	?push_back@?$vector@U_LANG_TAG_INFO@@V?$allocator@U_LANG_TAG_INFO@@@std@@@std@@QEAAXAEBU_LANG_TAG_INFO@@@Z ; std::vector<_LANG_TAG_INFO,std::allocator<_LANG_TAG_INFO> >::push_back
PUBLIC	?push_back@?$vector@U_CAPTION_CHAR_DATA@@V?$allocator@U_CAPTION_CHAR_DATA@@@std@@@std@@QEAAXAEBU_CAPTION_CHAR_DATA@@@Z ; std::vector<_CAPTION_CHAR_DATA,std::allocator<_CAPTION_CHAR_DATA> >::push_back
PUBLIC	??0?$vector@U_CAPTION_CHAR_DATA@@V?$allocator@U_CAPTION_CHAR_DATA@@@std@@@std@@QEAA@XZ ; std::vector<_CAPTION_CHAR_DATA,std::allocator<_CAPTION_CHAR_DATA> >::vector<_CAPTION_CHAR_DATA,std::allocator<_CAPTION_CHAR_DATA> >
PUBLIC	??0_CAPTION_CHAR_DATA@@QEAA@XZ			; _CAPTION_CHAR_DATA::_CAPTION_CHAR_DATA
PUBLIC	??0_CAPTION_DATA@@QEAA@XZ			; _CAPTION_DATA::_CAPTION_DATA
PUBLIC	?UnLoadDll@CCaptionDllUtil@@IEAAHXZ		; CCaptionDllUtil::UnLoadDll
PUBLIC	?LoadDll@CCaptionDllUtil@@IEAAHXZ		; CCaptionDllUtil::LoadDll
PUBLIC	?GetCaptionData@CCaptionDllUtil@@QEAAKEPEAV?$vector@U_CAPTION_DATA@@V?$allocator@U_CAPTION_DATA@@@std@@@std@@@Z ; CCaptionDllUtil::GetCaptionData
PUBLIC	?GetTagInfo@CCaptionDllUtil@@QEAAKPEAV?$vector@U_LANG_TAG_INFO@@V?$allocator@U_LANG_TAG_INFO@@@std@@@std@@@Z ; CCaptionDllUtil::GetTagInfo
PUBLIC	?AddTSPacket@CCaptionDllUtil@@QEAAKPEAE@Z	; CCaptionDllUtil::AddTSPacket
PUBLIC	?InitializeUNICODE@CCaptionDllUtil@@QEAAKXZ	; CCaptionDllUtil::InitializeUNICODE
PUBLIC	?CheckUNICODE@CCaptionDllUtil@@QEAAHXZ		; CCaptionDllUtil::CheckUNICODE
PUBLIC	?Initialize@CCaptionDllUtil@@QEAAKXZ		; CCaptionDllUtil::Initialize
PUBLIC	??1CCaptionDllUtil@@QEAA@XZ			; CCaptionDllUtil::~CCaptionDllUtil
PUBLIC	??0CCaptionDllUtil@@QEAA@XZ			; CCaptionDllUtil::CCaptionDllUtil
allocator_arg DB 01H DUP (?)
piecewise_construct DB 01H DUP (?)
_BSS	ENDS
;	COMDAT pdata
pdata	SEGMENT
$pdata$??$construct@U_CAPTION_DATA@@U1@@?$allocator@U_CAPTION_DATA@@@std@@QEAAXPEAU_CAPTION_DATA@@$$QEAU2@@Z DD imagerel $LN14
	DD	imagerel $LN14+143
	DD	imagerel $unwind$??$construct@U_CAPTION_DATA@@U1@@?$allocator@U_CAPTION_DATA@@@std@@QEAAXPEAU_CAPTION_DATA@@$$QEAU2@@Z
pdata	ENDS
;	COMDAT pdata
pdata	SEGMENT
$pdata$?dtor$0@?0???$construct@U_CAPTION_DATA@@U1@@?$allocator@U_CAPTION_DATA@@@std@@QEAAXPEAU_CAPTION_DATA@@$$QEAU2@@Z@4HA DD imagerel ?dtor$0@?0???$construct@U_CAPTION_DATA@@U1@@?$allocator@U_CAPTION_DATA@@@std@@QEAAXPEAU_CAPTION_DATA@@$$QEAU2@@Z@4HA
	DD	imagerel ?dtor$0@?0???$construct@U_CAPTION_DATA@@U1@@?$allocator@U_CAPTION_DATA@@@std@@QEAAXPEAU_CAPTION_DATA@@$$QEAU2@@Z@4HA+28
	DD	imagerel $unwind$?dtor$0@?0???$construct@U_CAPTION_DATA@@U1@@?$allocator@U_CAPTION_DATA@@@std@@QEAAXPEAU_CAPTION_DATA@@$$QEAU2@@Z@4HA
pdata	ENDS
;	COMDAT pdata
pdata	SEGMENT
$pdata$??$construct@U_CAPTION_CHAR_DATA@@U1@@?$allocator@U_CAPTION_CHAR_DATA@@@std@@QEAAXPEAU_CAPTION_CHAR_DATA@@$$QEAU2@@Z DD imagerel $LN11
	DD	imagerel $LN11+53
	DD	imagerel $unwind$??$construct@U_CAPTION_CHAR_DATA@@U1@@?$allocator@U_CAPTION_CHAR_DATA@@@std@@QEAAXPEAU_CAPTION_CHAR_DATA@@$$QEAU2@@Z
pdata	ENDS
;	COMDAT pdata
pdata	SEGMENT
$pdata$?dtor$0@?0???$construct@U_CAPTION_CHAR_DATA@@U1@@?$allocator@U_CAPTION_CHAR_DATA@@@std@@QEAAXPEAU_CAPTION_CHAR_DATA@@$$QEAU2@@Z@4HA DD imagerel ?dtor$0@?0???$construct@U_CAPTION_CHAR_DATA@@U1@@?$allocator@U_CAPTION_CHAR_DATA@@@std@@QEAAXPEAU_CAPTION_CHAR_DATA@@$$QEAU2@@Z@4HA
	DD	imagerel ?dtor$0@?0???$construct@U_CAPTION_CHAR_DATA@@U1@@?$allocator@U_CAPTION_CHAR_DATA@@@std@@QEAAXPEAU_CAPTION_CHAR_DATA@@$$QEAU2@@Z@4HA+28
	DD	imagerel $unwind$?dtor$0@?0???$construct@U_CAPTION_CHAR_DATA@@U1@@?$allocator@U_CAPTION_CHAR_DATA@@@std@@QEAAXPEAU_CAPTION_CHAR_DATA@@$$QEAU2@@Z@4HA
pdata	ENDS
;	COMDAT pdata
pdata	SEGMENT
$pdata$??$_Uninit_copy@V?$_Vector_const_iterator@V?$_Vector_val@U?$_Simple_types@U_CAPTION_CHAR_DATA@@@std@@@std@@@std@@PEAU_CAPTION_CHAR_DATA@@V?$allocator@U_CAPTION_CHAR_DATA@@@2@@std@@YAPEAU_CAPTION_CHAR_DATA@@V?$_Vector_const_iterator@V?$_Vector_val@U?$_Simple_types@U_CAPTION_CHAR_DATA@@@std@@@std@@@0@0PEAU1@AEAU?$_Wrap_alloc@V?$allocator@U_CAPTION_CHAR_DATA@@@std@@@0@U_Nonscalar_ptr_iterator_tag@0@@Z DD imagerel $LN133
	DD	imagerel $LN133+243
	DD	imagerel $unwind$??$_Uninit_copy@V?$_Vector_const_iterator@V?$_Vector_val@U?$_Simple_types@U_CAPTION_CHAR_DATA@@@std@@@std@@@std@@PEAU_CAPTION_CHAR_DATA@@V?$allocator@U_CAPTION_CHAR_DATA@@@2@@std@@YAPEAU_CAPTION_CHAR_DATA@@V?$_Vector_const_iterator@V?$_Vector_val@U?$_Simple_types@U_CAPTION_CHAR_DATA@@@std@@@std@@@0@0PEAU1@AEAU?$_Wrap_alloc@V?$allocator@U_CAPTION_CHAR_DATA@@@std@@@0@U_Nonscalar_ptr_iterator_tag@0@@Z
pdata	ENDS
;	COMDAT pdata
pdata	SEGMENT
$pdata$?dtor$0@?0???$_Uninit_copy@V?$_Vector_const_iterator@V?$_Vector_val@U?$_Simple_types@U_CAPTION_CHAR_DATA@@@std@@@std@@@std@@PEAU_CAPTION_CHAR_DATA@@V?$allocator@U_CAPTION_CHAR_DATA@@@2@@std@@YAPEAU_CAPTION_CHAR_DATA@@V?$_Vector_const_iterator@V?$_Vector_val@U?$_Simple_types@U_CAPTION_CHAR_DATA@@@std@@@std@@@0@0PEAU1@AEAU?$_Wrap_alloc@V?$allocator@U_CAPTION_CHAR_DATA@@@std@@@0@U_Nonscalar_ptr_iterator_tag@0@@Z@4HA DD imagerel ?dtor$0@?0???$_Uninit_copy@V?$_Vector_const_iterator@V?$_Vector_val@U?$_Simple_types@U_CAPTION_CHAR_DATA@@@std@@@std@@@std@@PEAU_CAPTION_CHAR_DATA@@V?$allocator@U_CAPTION_CHAR_DATA@@@2@@std@@YAPEAU_CAPTION_CHAR_DATA@@V?$_Vector_const_iterator@V?$_Vector_val@U?$_Simple_types@U_CAPTION_CHAR_DATA@@@std@@@std@@@0@0PEAU1@AEAU?$_Wrap_alloc@V?$allocator@U_CAPTION_CHAR_DATA@@@std@@@0@U_Nonscalar_ptr_iterator_tag@0@@Z@4HA
	DD	imagerel ?dtor$0@?0???$_Uninit_copy@V?$_Vector_const_iterator@V?$_Vector_val@U?$_Simple_types@U_CAPTION_CHAR_DATA@@@std@@@std@@@std@@PEAU_CAPTION_CHAR_DATA@@V?$allocator@U_CAPTION_CHAR_DATA@@@2@@std@@YAPEAU_CAPTION_CHAR_DATA@@V?$_Vector_const_iterator@V?$_Vector_val@U?$_Simple_types@U_CAPTION_CHAR_DATA@@@std@@@std@@@0@0PEAU1@AEAU?$_Wrap_alloc@V?$allocator@U_CAPTION_CHAR_DATA@@@std@@@0@U_Nonscalar_ptr_iterator_tag@0@@Z@4HA+28
	DD	imagerel $unwind$?dtor$0@?0???$_Uninit_copy@V?$_Vector_const_iterator@V?$_Vector_val@U?$_Simple_types@U_CAPTION_CHAR_DATA@@@std@@@std@@@std@@PEAU_CAPTION_CHAR_DATA@@V?$allocator@U_CAPTION_CHAR_DATA@@@2@@std@@YAPEAU_CAPTION_CHAR_DATA@@V?$_Vector_const_iterator@V?$_Vector_val@U?$_Simple_types@U_CAPTION_CHAR_DATA@@@std@@@std@@@0@0PEAU1@AEAU?$_Wrap_alloc@V?$allocator@U_CAPTION_CHAR_DATA@@@std@@@0@U_Nonscalar_ptr_iterator_tag@0@@Z@4HA
pdata	ENDS
;	COMDAT pdata
pdata	SEGMENT
$pdata$?catch$0@?0???$_Uninit_copy@V?$_Vector_const_iterator@V?$_Vector_val@U?$_Simple_types@U_CAPTION_CHAR_DATA@@@std@@@std@@@std@@PEAU_CAPTION_CHAR_DATA@@V?$allocator@U_CAPTION_CHAR_DATA@@@2@@std@@YAPEAU_CAPTION_CHAR_DATA@@V?$_Vector_const_iterator@V?$_Vector_val@U?$_Simple_types@U_CAPTION_CHAR_DATA@@@std@@@std@@@0@0PEAU1@AEAU?$_Wrap_alloc@V?$allocator@U_CAPTION_CHAR_DATA@@@std@@@0@U_Nonscalar_ptr_iterator_tag@0@@Z@4HA DD imagerel ?catch$0@?0???$_Uninit_copy@V?$_Vector_const_iterator@V?$_Vector_val@U?$_Simple_types@U_CAPTION_CHAR_DATA@@@std@@@std@@@std@@PEAU_CAPTION_CHAR_DATA@@V?$allocator@U_CAPTION_CHAR_DATA@@@2@@std@@YAPEAU_CAPTION_CHAR_DATA@@V?$_Vector_const_iterator@V?$_Vector_val@U?$_Simple_types@U_CAPTION_CHAR_DATA@@@std@@@std@@@0@0PEAU1@AEAU?$_Wrap_alloc@V?$allocator@U_CAPTION_CHAR_DATA@@@std@@@0@U_Nonscalar_ptr_iterator_tag@0@@Z@4HA
	DD	imagerel ?catch$0@?0???$_Uninit_copy@V?$_Vector_const_iterator@V?$_Vector_val@U?$_Simple_types@U_CAPTION_CHAR_DATA@@@std@@@std@@@std@@PEAU_CAPTION_CHAR_DATA@@V?$allocator@U_CAPTION_CHAR_DATA@@@2@@std@@YAPEAU_CAPTION_CHAR_DATA@@V?$_Vector_const_iterator@V?$_Vector_val@U?$_Simple_types@U_CAPTION_CHAR_DATA@@@std@@@std@@@0@0PEAU1@AEAU?$_Wrap_alloc@V?$allocator@U_CAPTION_CHAR_DATA@@@std@@@0@U_Nonscalar_ptr_iterator_tag@0@@Z@4HA+82
	DD	imagerel $unwind$?catch$0@?0???$_Uninit_copy@V?$_Vector_const_iterator@V?$_Vector_val@U?$_Simple_types@U_CAPTION_CHAR_DATA@@@std@@@std@@@std@@PEAU_CAPTION_CHAR_DATA@@V?$allocator@U_CAPTION_CHAR_DATA@@@2@@std@@YAPEAU_CAPTION_CHAR_DATA@@V?$_Vector_const_iterator@V?$_Vector_val@U?$_Simple_types@U_CAPTION_CHAR_DATA@@@std@@@std@@@0@0PEAU1@AEAU?$_Wrap_alloc@V?$allocator@U_CAPTION_CHAR_DATA@@@std@@@0@U_Nonscalar_ptr_iterator_tag@0@@Z@4HA
pdata	ENDS
;	COMDAT pdata
pdata	SEGMENT
$pdata$??$construct@U_CAPTION_DATA@@U1@@?$allocator_traits@V?$allocator@U_CAPTION_DATA@@@std@@@std@@SAXAEAV?$allocator@U_CAPTION_DATA@@@1@PEAU_CAPTION_DATA@@$$QEAU3@@Z DD imagerel $LN18
	DD	imagerel $LN18+143
	DD	imagerel $unwind$??$construct@U_CAPTION_DATA@@U1@@?$allocator_traits@V?$allocator@U_CAPTION_DATA@@@std@@@std@@SAXAEAV?$allocator@U_CAPTION_DATA@@@1@PEAU_CAPTION_DATA@@$$QEAU3@@Z
pdata	ENDS
;	COMDAT pdata
pdata	SEGMENT
$pdata$?dtor$0@?0???$construct@U_CAPTION_DATA@@U1@@?$allocator_traits@V?$allocator@U_CAPTION_DATA@@@std@@@std@@SAXAEAV?$allocator@U_CAPTION_DATA@@@1@PEAU_CAPTION_DATA@@$$QEAU3@@Z@4HA DD imagerel ?dtor$0@?0???$construct@U_CAPTION_DATA@@U1@@?$allocator_traits@V?$allocator@U_CAPTION_DATA@@@std@@@std@@SAXAEAV?$allocator@U_CAPTION_DATA@@@1@PEAU_CAPTION_DATA@@$$QEAU3@@Z@4HA
	DD	imagerel ?dtor$0@?0???$construct@U_CAPTION_DATA@@U1@@?$allocator_traits@V?$allocator@U_CAPTION_DATA@@@std@@@std@@SAXAEAV?$allocator@U_CAPTION_DATA@@@1@PEAU_CAPTION_DATA@@$$QEAU3@@Z@4HA+28
	DD	imagerel $unwind$?dtor$0@?0???$construct@U_CAPTION_DATA@@U1@@?$allocator_traits@V?$allocator@U_CAPTION_DATA@@@std@@@std@@SAXAEAV?$allocator@U_CAPTION_DATA@@@1@PEAU_CAPTION_DATA@@$$QEAU3@@Z@4HA
pdata	ENDS
;	COMDAT pdata
pdata	SEGMENT
$pdata$??$construct@U_CAPTION_CHAR_DATA@@U1@@?$allocator_traits@V?$allocator@U_CAPTION_CHAR_DATA@@@std@@@std@@SAXAEAV?$allocator@U_CAPTION_CHAR_DATA@@@1@PEAU_CAPTION_CHAR_DATA@@$$QEAU3@@Z DD imagerel $LN15
	DD	imagerel $LN15+53
	DD	imagerel $unwind$??$construct@U_CAPTION_CHAR_DATA@@U1@@?$allocator_traits@V?$allocator@U_CAPTION_CHAR_DATA@@@std@@@std@@SAXAEAV?$allocator@U_CAPTION_CHAR_DATA@@@1@PEAU_CAPTION_CHAR_DATA@@$$QEAU3@@Z
pdata	ENDS
;	COMDAT pdata
pdata	SEGMENT
$pdata$?dtor$0@?0???$construct@U_CAPTION_CHAR_DATA@@U1@@?$allocator_traits@V?$allocator@U_CAPTION_CHAR_DATA@@@std@@@std@@SAXAEAV?$allocator@U_CAPTION_CHAR_DATA@@@1@PEAU_CAPTION_CHAR_DATA@@$$QEAU3@@Z@4HA DD imagerel ?dtor$0@?0???$construct@U_CAPTION_CHAR_DATA@@U1@@?$allocator_traits@V?$allocator@U_CAPTION_CHAR_DATA@@@std@@@std@@SAXAEAV?$allocator@U_CAPTION_CHAR_DATA@@@1@PEAU_CAPTION_CHAR_DATA@@$$QEAU3@@Z@4HA
	DD	imagerel ?dtor$0@?0???$construct@U_CAPTION_CHAR_DATA@@U1@@?$allocator_traits@V?$allocator@U_CAPTION_CHAR_DATA@@@std@@@std@@SAXAEAV?$allocator@U_CAPTION_CHAR_DATA@@@1@PEAU_CAPTION_CHAR_DATA@@$$QEAU3@@Z@4HA+28
	DD	imagerel $unwind$?dtor$0@?0???$construct@U_CAPTION_CHAR_DATA@@U1@@?$allocator_traits@V?$allocator@U_CAPTION_CHAR_DATA@@@std@@@std@@SAXAEAV?$allocator@U_CAPTION_CHAR_DATA@@@1@PEAU_CAPTION_CHAR_DATA@@$$QEAU3@@Z@4HA
pdata	ENDS
;	COMDAT pdata
pdata	SEGMENT
$pdata$??$_Uninitialized_copy@V?$_Vector_const_iterator@V?$_Vector_val@U?$_Simple_types@U_CAPTION_CHAR_DATA@@@std@@@std@@@std@@PEAU_CAPTION_CHAR_DATA@@U?$_Wrap_alloc@V?$allocator@U_CAPTION_CHAR_DATA@@@std@@@2@@std@@YAPEAU_CAPTION_CHAR_DATA@@V?$_Vector_const_iterator@V?$_Vector_val@U?$_Simple_types@U_CAPTION_CHAR_DATA@@@std@@@std@@@0@0PEAU1@AEAU?$_Wrap_alloc@V?$allocator@U_CAPTION_CHAR_DATA@@@std@@@0@@Z DD imagerel $LN6
	DD	imagerel $LN6+14
	DD	imagerel $unwind$??$_Uninitialized_copy@V?$_Vector_const_iterator@V?$_Vector_val@U?$_Simple_types@U_CAPTION_CHAR_DATA@@@std@@@std@@@std@@PEAU_CAPTION_CHAR_DATA@@U?$_Wrap_alloc@V?$allocator@U_CAPTION_CHAR_DATA@@@std@@@2@@std@@YAPEAU_CAPTION_CHAR_DATA@@V?$_Vector_const_iterator@V?$_Vector_val@U?$_Simple_types@U_CAPTION_CHAR_DATA@@@std@@@std@@@0@0PEAU1@AEAU?$_Wrap_alloc@V?$allocator@U_CAPTION_CHAR_DATA@@@std@@@0@@Z
pdata	ENDS
;	COMDAT pdata
pdata	SEGMENT
$pdata$??$construct@U_CAPTION_DATA@@U1@@?$_Wrap_alloc@V?$allocator@U_CAPTION_DATA@@@std@@@std@@QEAAXPEAU_CAPTION_DATA@@$$QEAU2@@Z DD imagerel $LN22
	DD	imagerel $LN22+143
	DD	imagerel $unwind$??$construct@U_CAPTION_DATA@@U1@@?$_Wrap_alloc@V?$allocator@U_CAPTION_DATA@@@std@@@std@@QEAAXPEAU_CAPTION_DATA@@$$QEAU2@@Z
pdata	ENDS
;	COMDAT pdata
pdata	SEGMENT
$pdata$?dtor$0@?0???$construct@U_CAPTION_DATA@@U1@@?$_Wrap_alloc@V?$allocator@U_CAPTION_DATA@@@std@@@std@@QEAAXPEAU_CAPTION_DATA@@$$QEAU2@@Z@4HA DD imagerel ?dtor$0@?0???$construct@U_CAPTION_DATA@@U1@@?$_Wrap_alloc@V?$allocator@U_CAPTION_DATA@@@std@@@std@@QEAAXPEAU_CAPTION_DATA@@$$QEAU2@@Z@4HA
	DD	imagerel ?dtor$0@?0???$construct@U_CAPTION_DATA@@U1@@?$_Wrap_alloc@V?$allocator@U_CAPTION_DATA@@@std@@@std@@QEAAXPEAU_CAPTION_DATA@@$$QEAU2@@Z@4HA+28
	DD	imagerel $unwind$?dtor$0@?0???$construct@U_CAPTION_DATA@@U1@@?$_Wrap_alloc@V?$allocator@U_CAPTION_DATA@@@std@@@std@@QEAAXPEAU_CAPTION_DATA@@$$QEAU2@@Z@4HA
pdata	ENDS
;	COMDAT pdata
pdata	SEGMENT
$pdata$??$construct@U_CAPTION_CHAR_DATA@@U1@@?$_Wrap_alloc@V?$allocator@U_CAPTION_CHAR_DATA@@@std@@@std@@QEAAXPEAU_CAPTION_CHAR_DATA@@$$QEAU2@@Z DD imagerel $LN19
	DD	imagerel $LN19+53
	DD	imagerel $unwind$??$construct@U_CAPTION_CHAR_DATA@@U1@@?$_Wrap_alloc@V?$allocator@U_CAPTION_CHAR_DATA@@@std@@@std@@QEAAXPEAU_CAPTION_CHAR_DATA@@$$QEAU2@@Z
pdata	ENDS
;	COMDAT pdata
pdata	SEGMENT
$pdata$?dtor$0@?0???$construct@U_CAPTION_CHAR_DATA@@U1@@?$_Wrap_alloc@V?$allocator@U_CAPTION_CHAR_DATA@@@std@@@std@@QEAAXPEAU_CAPTION_CHAR_DATA@@$$QEAU2@@Z@4HA DD imagerel ?dtor$0@?0???$construct@U_CAPTION_CHAR_DATA@@U1@@?$_Wrap_alloc@V?$allocator@U_CAPTION_CHAR_DATA@@@std@@@std@@QEAAXPEAU_CAPTION_CHAR_DATA@@$$QEAU2@@Z@4HA
	DD	imagerel ?dtor$0@?0???$construct@U_CAPTION_CHAR_DATA@@U1@@?$_Wrap_alloc@V?$allocator@U_CAPTION_CHAR_DATA@@@std@@@std@@QEAAXPEAU_CAPTION_CHAR_DATA@@$$QEAU2@@Z@4HA+28
	DD	imagerel $unwind$?dtor$0@?0???$construct@U_CAPTION_CHAR_DATA@@U1@@?$_Wrap_alloc@V?$allocator@U_CAPTION_CHAR_DATA@@@std@@@std@@QEAAXPEAU_CAPTION_CHAR_DATA@@$$QEAU2@@Z@4HA
pdata	ENDS
;	COMDAT pdata
pdata	SEGMENT
$pdata$??$_Ucopy@V?$_Vector_const_iterator@V?$_Vector_val@U?$_Simple_types@U_CAPTION_CHAR_DATA@@@std@@@std@@@std@@@?$vector@U_CAPTION_CHAR_DATA@@V?$allocator@U_CAPTION_CHAR_DATA@@@std@@@std@@IEAAPEAU_CAPTION_CHAR_DATA@@V?$_Vector_const_iterator@V?$_Vector_val@U?$_Simple_types@U_CAPTION_CHAR_DATA@@@std@@@std@@@1@0PEAU2@@Z DD imagerel $LN8
	DD	imagerel $LN8+26
	DD	imagerel $unwind$??$_Ucopy@V?$_Vector_const_iterator@V?$_Vector_val@U?$_Simple_types@U_CAPTION_CHAR_DATA@@@std@@@std@@@std@@@?$vector@U_CAPTION_CHAR_DATA@@V?$allocator@U_CAPTION_CHAR_DATA@@@std@@@std@@IEAAPEAU_CAPTION_CHAR_DATA@@V?$_Vector_const_iterator@V?$_Vector_val@U?$_Simple_types@U_CAPTION_CHAR_DATA@@@std@@@std@@@1@0PEAU2@@Z
pdata	ENDS
;	COMDAT pdata
pdata	SEGMENT
$pdata$??$_Uninit_move@PEAU_CAPTION_DATA@@PEAU1@V?$allocator@U_CAPTION_DATA@@@std@@U1@@std@@YAPEAU_CAPTION_DATA@@PEAU1@00AEAU?$_Wrap_alloc@V?$allocator@U_CAPTION_DATA@@@std@@@0@0U_Nonscalar_ptr_iterator_tag@0@@Z DD imagerel $LN53
	DD	imagerel $LN53+160
	DD	imagerel $unwind$??$_Uninit_move@PEAU_CAPTION_DATA@@PEAU1@V?$allocator@U_CAPTION_DATA@@@std@@U1@@std@@YAPEAU_CAPTION_DATA@@PEAU1@00AEAU?$_Wrap_alloc@V?$allocator@U_CAPTION_DATA@@@std@@@0@0U_Nonscalar_ptr_iterator_tag@0@@Z
pdata	ENDS
;	COMDAT pdata
pdata	SEGMENT
$pdata$?dtor$0@?0???$_Uninit_move@PEAU_CAPTION_DATA@@PEAU1@V?$allocator@U_CAPTION_DATA@@@std@@U1@@std@@YAPEAU_CAPTION_DATA@@PEAU1@00AEAU?$_Wrap_alloc@V?$allocator@U_CAPTION_DATA@@@std@@@0@0U_Nonscalar_ptr_iterator_tag@0@@Z@4HA DD imagerel ?dtor$0@?0???$_Uninit_move@PEAU_CAPTION_DATA@@PEAU1@V?$allocator@U_CAPTION_DATA@@@std@@U1@@std@@YAPEAU_CAPTION_DATA@@PEAU1@00AEAU?$_Wrap_alloc@V?$allocator@U_CAPTION_DATA@@@std@@@0@0U_Nonscalar_ptr_iterator_tag@0@@Z@4HA
	DD	imagerel ?dtor$0@?0???$_Uninit_move@PEAU_CAPTION_DATA@@PEAU1@V?$allocator@U_CAPTION_DATA@@@std@@U1@@std@@YAPEAU_CAPTION_DATA@@PEAU1@00AEAU?$_Wrap_alloc@V?$allocator@U_CAPTION_DATA@@@std@@@0@0U_Nonscalar_ptr_iterator_tag@0@@Z@4HA+28
	DD	imagerel $unwind$?dtor$0@?0???$_Uninit_move@PEAU_CAPTION_DATA@@PEAU1@V?$allocator@U_CAPTION_DATA@@@std@@U1@@std@@YAPEAU_CAPTION_DATA@@PEAU1@00AEAU?$_Wrap_alloc@V?$allocator@U_CAPTION_DATA@@@std@@@0@0U_Nonscalar_ptr_iterator_tag@0@@Z@4HA
pdata	ENDS
;	COMDAT pdata
pdata	SEGMENT
$pdata$?catch$0@?0???$_Uninit_move@PEAU_CAPTION_DATA@@PEAU1@V?$allocator@U_CAPTION_DATA@@@std@@U1@@std@@YAPEAU_CAPTION_DATA@@PEAU1@00AEAU?$_Wrap_alloc@V?$allocator@U_CAPTION_DATA@@@std@@@0@0U_Nonscalar_ptr_iterator_tag@0@@Z@4HA DD imagerel ?catch$0@?0???$_Uninit_move@PEAU_CAPTION_DATA@@PEAU1@V?$allocator@U_CAPTION_DATA@@@std@@U1@@std@@YAPEAU_CAPTION_DATA@@PEAU1@00AEAU?$_Wrap_alloc@V?$allocator@U_CAPTION_DATA@@@std@@@0@0U_Nonscalar_ptr_iterator_tag@0@@Z@4HA
	DD	imagerel ?catch$0@?0???$_Uninit_move@PEAU_CAPTION_DATA@@PEAU1@V?$allocator@U_CAPTION_DATA@@@std@@U1@@std@@YAPEAU_CAPTION_DATA@@PEAU1@00AEAU?$_Wrap_alloc@V?$allocator@U_CAPTION_DATA@@@std@@@0@0U_Nonscalar_ptr_iterator_tag@0@@Z@4HA+64
	DD	imagerel $unwind$?catch$0@?0???$_Uninit_move@PEAU_CAPTION_DATA@@PEAU1@V?$allocator@U_CAPTION_DATA@@@std@@U1@@std@@YAPEAU_CAPTION_DATA@@PEAU1@00AEAU?$_Wrap_alloc@V?$allocator@U_CAPTION_DATA@@@std@@@0@0U_Nonscalar_ptr_iterator_tag@0@@Z@4HA
pdata	ENDS
;	COMDAT pdata
pdata	SEGMENT
$pdata$??$_Uninit_move@PEAU_CAPTION_CHAR_DATA@@PEAU1@V?$allocator@U_CAPTION_CHAR_DATA@@@std@@U1@@std@@YAPEAU_CAPTION_CHAR_DATA@@PEAU1@00AEAU?$_Wrap_alloc@V?$allocator@U_CAPTION_CHAR_DATA@@@std@@@0@0U_Nonscalar_ptr_iterator_tag@0@@Z DD imagerel $LN125
	DD	imagerel $LN125+230
	DD	imagerel $unwind$??$_Uninit_move@PEAU_CAPTION_CHAR_DATA@@PEAU1@V?$allocator@U_CAPTION_CHAR_DATA@@@std@@U1@@std@@YAPEAU_CAPTION_CHAR_DATA@@PEAU1@00AEAU?$_Wrap_alloc@V?$allocator@U_CAPTION_CHAR_DATA@@@std@@@0@0U_Nonscalar_ptr_iterator_tag@0@@Z
pdata	ENDS
;	COMDAT pdata
pdata	SEGMENT
$pdata$?dtor$0@?0???$_Uninit_move@PEAU_CAPTION_CHAR_DATA@@PEAU1@V?$allocator@U_CAPTION_CHAR_DATA@@@std@@U1@@std@@YAPEAU_CAPTION_CHAR_DATA@@PEAU1@00AEAU?$_Wrap_alloc@V?$allocator@U_CAPTION_CHAR_DATA@@@std@@@0@0U_Nonscalar_ptr_iterator_tag@0@@Z@4HA DD imagerel ?dtor$0@?0???$_Uninit_move@PEAU_CAPTION_CHAR_DATA@@PEAU1@V?$allocator@U_CAPTION_CHAR_DATA@@@std@@U1@@std@@YAPEAU_CAPTION_CHAR_DATA@@PEAU1@00AEAU?$_Wrap_alloc@V?$allocator@U_CAPTION_CHAR_DATA@@@std@@@0@0U_Nonscalar_ptr_iterator_tag@0@@Z@4HA
	DD	imagerel ?dtor$0@?0???$_Uninit_move@PEAU_CAPTION_CHAR_DATA@@PEAU1@V?$allocator@U_CAPTION_CHAR_DATA@@@std@@U1@@std@@YAPEAU_CAPTION_CHAR_DATA@@PEAU1@00AEAU?$_Wrap_alloc@V?$allocator@U_CAPTION_CHAR_DATA@@@std@@@0@0U_Nonscalar_ptr_iterator_tag@0@@Z@4HA+28
	DD	imagerel $unwind$?dtor$0@?0???$_Uninit_move@PEAU_CAPTION_CHAR_DATA@@PEAU1@V?$allocator@U_CAPTION_CHAR_DATA@@@std@@U1@@std@@YAPEAU_CAPTION_CHAR_DATA@@PEAU1@00AEAU?$_Wrap_alloc@V?$allocator@U_CAPTION_CHAR_DATA@@@std@@@0@0U_Nonscalar_ptr_iterator_tag@0@@Z@4HA
pdata	ENDS
;	COMDAT pdata
pdata	SEGMENT
$pdata$?catch$0@?0???$_Uninit_move@PEAU_CAPTION_CHAR_DATA@@PEAU1@V?$allocator@U_CAPTION_CHAR_DATA@@@std@@U1@@std@@YAPEAU_CAPTION_CHAR_DATA@@PEAU1@00AEAU?$_Wrap_alloc@V?$allocator@U_CAPTION_CHAR_DATA@@@std@@@0@0U_Nonscalar_ptr_iterator_tag@0@@Z@4HA DD imagerel ?catch$0@?0???$_Uninit_move@PEAU_CAPTION_CHAR_DATA@@PEAU1@V?$allocator@U_CAPTION_CHAR_DATA@@@std@@U1@@std@@YAPEAU_CAPTION_CHAR_DATA@@PEAU1@00AEAU?$_Wrap_alloc@V?$allocator@U_CAPTION_CHAR_DATA@@@std@@@0@0U_Nonscalar_ptr_iterator_tag@0@@Z@4HA
	DD	imagerel ?catch$0@?0???$_Uninit_move@PEAU_CAPTION_CHAR_DATA@@PEAU1@V?$allocator@U_CAPTION_CHAR_DATA@@@std@@U1@@std@@YAPEAU_CAPTION_CHAR_DATA@@PEAU1@00AEAU?$_Wrap_alloc@V?$allocator@U_CAPTION_CHAR_DATA@@@std@@@0@0U_Nonscalar_ptr_iterator_tag@0@@Z@4HA+82
	DD	imagerel $unwind$?catch$0@?0???$_Uninit_move@PEAU_CAPTION_CHAR_DATA@@PEAU1@V?$allocator@U_CAPTION_CHAR_DATA@@@std@@U1@@std@@YAPEAU_CAPTION_CHAR_DATA@@PEAU1@00AEAU?$_Wrap_alloc@V?$allocator@U_CAPTION_CHAR_DATA@@@std@@@0@0U_Nonscalar_ptr_iterator_tag@0@@Z@4HA
pdata	ENDS
;	COMDAT pdata
pdata	SEGMENT
$pdata$??$construct@U_CAPTION_DATA@@AEAU1@@?$allocator@U_CAPTION_DATA@@@std@@QEAAXPEAU_CAPTION_DATA@@AEAU2@@Z DD imagerel $LN14
	DD	imagerel $LN14+143
	DD	imagerel $unwind$??$construct@U_CAPTION_DATA@@AEAU1@@?$allocator@U_CAPTION_DATA@@@std@@QEAAXPEAU_CAPTION_DATA@@AEAU2@@Z
pdata	ENDS
;	COMDAT pdata
pdata	SEGMENT
$pdata$?dtor$0@?0???$construct@U_CAPTION_DATA@@AEAU1@@?$allocator@U_CAPTION_DATA@@@std@@QEAAXPEAU_CAPTION_DATA@@AEAU2@@Z@4HA DD imagerel ?dtor$0@?0???$construct@U_CAPTION_DATA@@AEAU1@@?$allocator@U_CAPTION_DATA@@@std@@QEAAXPEAU_CAPTION_DATA@@AEAU2@@Z@4HA
	DD	imagerel ?dtor$0@?0???$construct@U_CAPTION_DATA@@AEAU1@@?$allocator@U_CAPTION_DATA@@@std@@QEAAXPEAU_CAPTION_DATA@@AEAU2@@Z@4HA+28
	DD	imagerel $unwind$?dtor$0@?0???$construct@U_CAPTION_DATA@@AEAU1@@?$allocator@U_CAPTION_DATA@@@std@@QEAAXPEAU_CAPTION_DATA@@AEAU2@@Z@4HA
pdata	ENDS
;	COMDAT pdata
pdata	SEGMENT
$pdata$??$construct@U_CAPTION_CHAR_DATA@@AEAU1@@?$allocator@U_CAPTION_CHAR_DATA@@@std@@QEAAXPEAU_CAPTION_CHAR_DATA@@AEAU2@@Z DD imagerel $LN11
	DD	imagerel $LN11+53
	DD	imagerel $unwind$??$construct@U_CAPTION_CHAR_DATA@@AEAU1@@?$allocator@U_CAPTION_CHAR_DATA@@@std@@QEAAXPEAU_CAPTION_CHAR_DATA@@AEAU2@@Z
pdata	ENDS
;	COMDAT pdata
pdata	SEGMENT
$pdata$?dtor$0@?0???$construct@U_CAPTION_CHAR_DATA@@AEAU1@@?$allocator@U_CAPTION_CHAR_DATA@@@std@@QEAAXPEAU_CAPTION_CHAR_DATA@@AEAU2@@Z@4HA DD imagerel ?dtor$0@?0???$construct@U_CAPTION_CHAR_DATA@@AEAU1@@?$allocator@U_CAPTION_CHAR_DATA@@@std@@QEAAXPEAU_CAPTION_CHAR_DATA@@AEAU2@@Z@4HA
	DD	imagerel ?dtor$0@?0???$construct@U_CAPTION_CHAR_DATA@@AEAU1@@?$allocator@U_CAPTION_CHAR_DATA@@@std@@QEAAXPEAU_CAPTION_CHAR_DATA@@AEAU2@@Z@4HA+28
	DD	imagerel $unwind$?dtor$0@?0???$construct@U_CAPTION_CHAR_DATA@@AEAU1@@?$allocator@U_CAPTION_CHAR_DATA@@@std@@QEAAXPEAU_CAPTION_CHAR_DATA@@AEAU2@@Z@4HA
pdata	ENDS
;	COMDAT pdata
pdata	SEGMENT
$pdata$??0?$vector@U_CAPTION_CHAR_DATA@@V?$allocator@U_CAPTION_CHAR_DATA@@@std@@@std@@QEAA@AEBV01@@Z DD imagerel $LN75
	DD	imagerel $LN75+208
	DD	imagerel $unwind$??0?$vector@U_CAPTION_CHAR_DATA@@V?$allocator@U_CAPTION_CHAR_DATA@@@std@@@std@@QEAA@AEBV01@@Z
pdata	ENDS
;	COMDAT pdata
pdata	SEGMENT
$pdata$?catch$0@?0???0?$vector@U_CAPTION_CHAR_DATA@@V?$allocator@U_CAPTION_CHAR_DATA@@@std@@@std@@QEAA@AEBV01@@Z@4HA DD imagerel ?catch$0@?0???0?$vector@U_CAPTION_CHAR_DATA@@V?$allocator@U_CAPTION_CHAR_DATA@@@std@@@std@@QEAA@AEBV01@@Z@4HA
	DD	imagerel ?catch$0@?0???0?$vector@U_CAPTION_CHAR_DATA@@V?$allocator@U_CAPTION_CHAR_DATA@@@std@@@std@@QEAA@AEBV01@@Z@4HA+32
	DD	imagerel $unwind$?catch$0@?0???0?$vector@U_CAPTION_CHAR_DATA@@V?$allocator@U_CAPTION_CHAR_DATA@@@std@@@std@@QEAA@AEBV01@@Z@4HA
pdata	ENDS
;	COMDAT pdata
pdata	SEGMENT
$pdata$??0_CAPTION_DATA@@QEAA@AEBU0@@Z DD imagerel $LN5
	DD	imagerel $LN5+109
	DD	imagerel $unwind$??0_CAPTION_DATA@@QEAA@AEBU0@@Z
pdata	ENDS
;	COMDAT pdata
pdata	SEGMENT
$pdata$??0_CAPTION_CHAR_DATA@@QEAA@AEBU0@@Z DD imagerel $LN47
	DD	imagerel $LN47+155
	DD	imagerel $unwind$??0_CAPTION_CHAR_DATA@@QEAA@AEBU0@@Z
pdata	ENDS
;	COMDAT pdata
pdata	SEGMENT
$pdata$?construct@?$allocator@U_CAPTION_DATA@@@std@@QEAAXPEAU_CAPTION_DATA@@AEBU3@@Z DD imagerel $LN12
	DD	imagerel $LN12+143
	DD	imagerel $unwind$?construct@?$allocator@U_CAPTION_DATA@@@std@@QEAAXPEAU_CAPTION_DATA@@AEBU3@@Z
pdata	ENDS
;	COMDAT pdata
pdata	SEGMENT
$pdata$?dtor$0@?0??construct@?$allocator@U_CAPTION_DATA@@@std@@QEAAXPEAU_CAPTION_DATA@@AEBU3@@Z@4HA DD imagerel ?dtor$0@?0??construct@?$allocator@U_CAPTION_DATA@@@std@@QEAAXPEAU_CAPTION_DATA@@AEBU3@@Z@4HA
	DD	imagerel ?dtor$0@?0??construct@?$allocator@U_CAPTION_DATA@@@std@@QEAAXPEAU_CAPTION_DATA@@AEBU3@@Z@4HA+28
	DD	imagerel $unwind$?dtor$0@?0??construct@?$allocator@U_CAPTION_DATA@@@std@@QEAAXPEAU_CAPTION_DATA@@AEBU3@@Z@4HA
pdata	ENDS
;	COMDAT pdata
pdata	SEGMENT
$pdata$?construct@?$allocator@U_CAPTION_CHAR_DATA@@@std@@QEAAXPEAU_CAPTION_CHAR_DATA@@AEBU3@@Z DD imagerel $LN9
	DD	imagerel $LN9+53
	DD	imagerel $unwind$?construct@?$allocator@U_CAPTION_CHAR_DATA@@@std@@QEAAXPEAU_CAPTION_CHAR_DATA@@AEBU3@@Z
pdata	ENDS
;	COMDAT pdata
pdata	SEGMENT
$pdata$?dtor$0@?0??construct@?$allocator@U_CAPTION_CHAR_DATA@@@std@@QEAAXPEAU_CAPTION_CHAR_DATA@@AEBU3@@Z@4HA DD imagerel ?dtor$0@?0??construct@?$allocator@U_CAPTION_CHAR_DATA@@@std@@QEAAXPEAU_CAPTION_CHAR_DATA@@AEBU3@@Z@4HA
	DD	imagerel ?dtor$0@?0??construct@?$allocator@U_CAPTION_CHAR_DATA@@@std@@QEAAXPEAU_CAPTION_CHAR_DATA@@AEBU3@@Z@4HA+28
	DD	imagerel $unwind$?dtor$0@?0??construct@?$allocator@U_CAPTION_CHAR_DATA@@@std@@QEAAXPEAU_CAPTION_CHAR_DATA@@AEBU3@@Z@4HA
pdata	ENDS
;	COMDAT pdata
pdata	SEGMENT
$pdata$??$_Uninitialized_move@PEAU_CAPTION_DATA@@PEAU1@U?$_Wrap_alloc@V?$allocator@U_CAPTION_DATA@@@std@@@std@@@std@@YAPEAU_CAPTION_DATA@@PEAU1@00AEAU?$_Wrap_alloc@V?$allocator@U_CAPTION_DATA@@@std@@@0@@Z DD imagerel $LN8
	DD	imagerel $LN8+14
	DD	imagerel $unwind$??$_Uninitialized_move@PEAU_CAPTION_DATA@@PEAU1@U?$_Wrap_alloc@V?$allocator@U_CAPTION_DATA@@@std@@@std@@@std@@YAPEAU_CAPTION_DATA@@PEAU1@00AEAU?$_Wrap_alloc@V?$allocator@U_CAPTION_DATA@@@std@@@0@@Z
pdata	ENDS
;	COMDAT pdata
pdata	SEGMENT
$pdata$??$_Uninitialized_move@PEAU_LANG_TAG_INFO@@PEAU1@U?$_Wrap_alloc@V?$allocator@U_LANG_TAG_INFO@@@std@@@std@@@std@@YAPEAU_LANG_TAG_INFO@@PEAU1@00AEAU?$_Wrap_alloc@V?$allocator@U_LANG_TAG_INFO@@@std@@@0@@Z DD imagerel $LN8
	DD	imagerel $LN8+14
	DD	imagerel $unwind$??$_Uninitialized_move@PEAU_LANG_TAG_INFO@@PEAU1@U?$_Wrap_alloc@V?$allocator@U_LANG_TAG_INFO@@@std@@@std@@@std@@YAPEAU_LANG_TAG_INFO@@PEAU1@00AEAU?$_Wrap_alloc@V?$allocator@U_LANG_TAG_INFO@@@std@@@0@@Z
pdata	ENDS
;	COMDAT pdata
pdata	SEGMENT
$pdata$??$_Uninitialized_move@PEAU_CAPTION_CHAR_DATA@@PEAU1@U?$_Wrap_alloc@V?$allocator@U_CAPTION_CHAR_DATA@@@std@@@std@@@std@@YAPEAU_CAPTION_CHAR_DATA@@PEAU1@00AEAU?$_Wrap_alloc@V?$allocator@U_CAPTION_CHAR_DATA@@@std@@@0@@Z DD imagerel $LN8
	DD	imagerel $LN8+14
	DD	imagerel $unwind$??$_Uninitialized_move@PEAU_CAPTION_CHAR_DATA@@PEAU1@U?$_Wrap_alloc@V?$allocator@U_CAPTION_CHAR_DATA@@@std@@@std@@@std@@YAPEAU_CAPTION_CHAR_DATA@@PEAU1@00AEAU?$_Wrap_alloc@V?$allocator@U_CAPTION_CHAR_DATA@@@std@@@0@@Z
pdata	ENDS
;	COMDAT pdata
pdata	SEGMENT
$pdata$??$construct@U_CAPTION_DATA@@AEAU1@@?$allocator_traits@V?$allocator@U_CAPTION_DATA@@@std@@@std@@SAXAEAV?$allocator@U_CAPTION_DATA@@@1@PEAU_CAPTION_DATA@@AEAU3@@Z DD imagerel $LN18
	DD	imagerel $LN18+143
	DD	imagerel $unwind$??$construct@U_CAPTION_DATA@@AEAU1@@?$allocator_traits@V?$allocator@U_CAPTION_DATA@@@std@@@std@@SAXAEAV?$allocator@U_CAPTION_DATA@@@1@PEAU_CAPTION_DATA@@AEAU3@@Z
pdata	ENDS
;	COMDAT pdata
pdata	SEGMENT
$pdata$?dtor$0@?0???$construct@U_CAPTION_DATA@@AEAU1@@?$allocator_traits@V?$allocator@U_CAPTION_DATA@@@std@@@std@@SAXAEAV?$allocator@U_CAPTION_DATA@@@1@PEAU_CAPTION_DATA@@AEAU3@@Z@4HA DD imagerel ?dtor$0@?0???$construct@U_CAPTION_DATA@@AEAU1@@?$allocator_traits@V?$allocator@U_CAPTION_DATA@@@std@@@std@@SAXAEAV?$allocator@U_CAPTION_DATA@@@1@PEAU_CAPTION_DATA@@AEAU3@@Z@4HA
	DD	imagerel ?dtor$0@?0???$construct@U_CAPTION_DATA@@AEAU1@@?$allocator_traits@V?$allocator@U_CAPTION_DATA@@@std@@@std@@SAXAEAV?$allocator@U_CAPTION_DATA@@@1@PEAU_CAPTION_DATA@@AEAU3@@Z@4HA+28
	DD	imagerel $unwind$?dtor$0@?0???$construct@U_CAPTION_DATA@@AEAU1@@?$allocator_traits@V?$allocator@U_CAPTION_DATA@@@std@@@std@@SAXAEAV?$allocator@U_CAPTION_DATA@@@1@PEAU_CAPTION_DATA@@AEAU3@@Z@4HA
pdata	ENDS
;	COMDAT pdata
pdata	SEGMENT
$pdata$??$construct@U_CAPTION_CHAR_DATA@@AEBU1@@?$allocator_traits@V?$allocator@U_CAPTION_CHAR_DATA@@@std@@@std@@SAXAEAV?$allocator@U_CAPTION_CHAR_DATA@@@1@PEAU_CAPTION_CHAR_DATA@@AEBU3@@Z DD imagerel $LN13
	DD	imagerel $LN13+53
	DD	imagerel $unwind$??$construct@U_CAPTION_CHAR_DATA@@AEBU1@@?$allocator_traits@V?$allocator@U_CAPTION_CHAR_DATA@@@std@@@std@@SAXAEAV?$allocator@U_CAPTION_CHAR_DATA@@@1@PEAU_CAPTION_CHAR_DATA@@AEBU3@@Z
pdata	ENDS
;	COMDAT pdata
pdata	SEGMENT
$pdata$?dtor$0@?0???$construct@U_CAPTION_CHAR_DATA@@AEBU1@@?$allocator_traits@V?$allocator@U_CAPTION_CHAR_DATA@@@std@@@std@@SAXAEAV?$allocator@U_CAPTION_CHAR_DATA@@@1@PEAU_CAPTION_CHAR_DATA@@AEBU3@@Z@4HA DD imagerel ?dtor$0@?0???$construct@U_CAPTION_CHAR_DATA@@AEBU1@@?$allocator_traits@V?$allocator@U_CAPTION_CHAR_DATA@@@std@@@std@@SAXAEAV?$allocator@U_CAPTION_CHAR_DATA@@@1@PEAU_CAPTION_CHAR_DATA@@AEBU3@@Z@4HA
	DD	imagerel ?dtor$0@?0???$construct@U_CAPTION_CHAR_DATA@@AEBU1@@?$allocator_traits@V?$allocator@U_CAPTION_CHAR_DATA@@@std@@@std@@SAXAEAV?$allocator@U_CAPTION_CHAR_DATA@@@1@PEAU_CAPTION_CHAR_DATA@@AEBU3@@Z@4HA+28
	DD	imagerel $unwind$?dtor$0@?0???$construct@U_CAPTION_CHAR_DATA@@AEBU1@@?$allocator_traits@V?$allocator@U_CAPTION_CHAR_DATA@@@std@@@std@@SAXAEAV?$allocator@U_CAPTION_CHAR_DATA@@@1@PEAU_CAPTION_CHAR_DATA@@AEBU3@@Z@4HA
pdata	ENDS
;	COMDAT pdata
pdata	SEGMENT
$pdata$??$construct@U_CAPTION_CHAR_DATA@@AEAU1@@?$allocator_traits@V?$allocator@U_CAPTION_CHAR_DATA@@@std@@@std@@SAXAEAV?$allocator@U_CAPTION_CHAR_DATA@@@1@PEAU_CAPTION_CHAR_DATA@@AEAU3@@Z DD imagerel $LN15
	DD	imagerel $LN15+53
	DD	imagerel $unwind$??$construct@U_CAPTION_CHAR_DATA@@AEAU1@@?$allocator_traits@V?$allocator@U_CAPTION_CHAR_DATA@@@std@@@std@@SAXAEAV?$allocator@U_CAPTION_CHAR_DATA@@@1@PEAU_CAPTION_CHAR_DATA@@AEAU3@@Z
pdata	ENDS
;	COMDAT pdata
pdata	SEGMENT
$pdata$?dtor$0@?0???$construct@U_CAPTION_CHAR_DATA@@AEAU1@@?$allocator_traits@V?$allocator@U_CAPTION_CHAR_DATA@@@std@@@std@@SAXAEAV?$allocator@U_CAPTION_CHAR_DATA@@@1@PEAU_CAPTION_CHAR_DATA@@AEAU3@@Z@4HA DD imagerel ?dtor$0@?0???$construct@U_CAPTION_CHAR_DATA@@AEAU1@@?$allocator_traits@V?$allocator@U_CAPTION_CHAR_DATA@@@std@@@std@@SAXAEAV?$allocator@U_CAPTION_CHAR_DATA@@@1@PEAU_CAPTION_CHAR_DATA@@AEAU3@@Z@4HA
	DD	imagerel ?dtor$0@?0???$construct@U_CAPTION_CHAR_DATA@@AEAU1@@?$allocator_traits@V?$allocator@U_CAPTION_CHAR_DATA@@@std@@@std@@SAXAEAV?$allocator@U_CAPTION_CHAR_DATA@@@1@PEAU_CAPTION_CHAR_DATA@@AEAU3@@Z@4HA+28
	DD	imagerel $unwind$?dtor$0@?0???$construct@U_CAPTION_CHAR_DATA@@AEAU1@@?$allocator_traits@V?$allocator@U_CAPTION_CHAR_DATA@@@std@@@std@@SAXAEAV?$allocator@U_CAPTION_CHAR_DATA@@@1@PEAU_CAPTION_CHAR_DATA@@AEAU3@@Z@4HA
pdata	ENDS
;	COMDAT pdata
pdata	SEGMENT
$pdata$??$_Allocate@U_CAPTION_DATA@@@std@@YAPEAU_CAPTION_DATA@@_KPEAU1@@Z DD imagerel $LN13
	DD	imagerel $LN13+46
	DD	imagerel $unwind$??$_Allocate@U_CAPTION_DATA@@@std@@YAPEAU_CAPTION_DATA@@_KPEAU1@@Z
pdata	ENDS
;	COMDAT pdata
pdata	SEGMENT
$pdata$??$_Allocate@U_LANG_TAG_INFO@@@std@@YAPEAU_LANG_TAG_INFO@@_KPEAU1@@Z DD imagerel $LN13
	DD	imagerel $LN13+49
	DD	imagerel $unwind$??$_Allocate@U_LANG_TAG_INFO@@@std@@YAPEAU_LANG_TAG_INFO@@_KPEAU1@@Z
pdata	ENDS
;	COMDAT pdata
pdata	SEGMENT
$pdata$??$_Allocate@U_CAPTION_CHAR_DATA@@@std@@YAPEAU_CAPTION_CHAR_DATA@@_KPEAU1@@Z DD imagerel $LN13
	DD	imagerel $LN13+50
	DD	imagerel $unwind$??$_Allocate@U_CAPTION_CHAR_DATA@@@std@@YAPEAU_CAPTION_CHAR_DATA@@_KPEAU1@@Z
pdata	ENDS
;	COMDAT pdata
pdata	SEGMENT
$pdata$??$_Umove@PEAU_CAPTION_DATA@@@?$vector@U_CAPTION_DATA@@V?$allocator@U_CAPTION_DATA@@@std@@@std@@IEAAPEAU_CAPTION_DATA@@PEAU2@00@Z DD imagerel $LN10
	DD	imagerel $LN10+26
	DD	imagerel $unwind$??$_Umove@PEAU_CAPTION_DATA@@@?$vector@U_CAPTION_DATA@@V?$allocator@U_CAPTION_DATA@@@std@@@std@@IEAAPEAU_CAPTION_DATA@@PEAU2@00@Z
pdata	ENDS
;	COMDAT pdata
pdata	SEGMENT
$pdata$??$_Umove@PEAU_LANG_TAG_INFO@@@?$vector@U_LANG_TAG_INFO@@V?$allocator@U_LANG_TAG_INFO@@@std@@@std@@IEAAPEAU_LANG_TAG_INFO@@PEAU2@00@Z DD imagerel $LN10
	DD	imagerel $LN10+26
	DD	imagerel $unwind$??$_Umove@PEAU_LANG_TAG_INFO@@@?$vector@U_LANG_TAG_INFO@@V?$allocator@U_LANG_TAG_INFO@@@std@@@std@@IEAAPEAU_LANG_TAG_INFO@@PEAU2@00@Z
pdata	ENDS
;	COMDAT pdata
pdata	SEGMENT
$pdata$??$_Umove@PEAU_CAPTION_CHAR_DATA@@@?$vector@U_CAPTION_CHAR_DATA@@V?$allocator@U_CAPTION_CHAR_DATA@@@std@@@std@@IEAAPEAU_CAPTION_CHAR_DATA@@PEAU2@00@Z DD imagerel $LN10
	DD	imagerel $LN10+26
	DD	imagerel $unwind$??$_Umove@PEAU_CAPTION_CHAR_DATA@@@?$vector@U_CAPTION_CHAR_DATA@@V?$allocator@U_CAPTION_CHAR_DATA@@@std@@@std@@IEAAPEAU_CAPTION_CHAR_DATA@@PEAU2@00@Z
pdata	ENDS
;	COMDAT pdata
pdata	SEGMENT
$pdata$??$construct@U_CAPTION_DATA@@AEAU1@@?$_Wrap_alloc@V?$allocator@U_CAPTION_DATA@@@std@@@std@@QEAAXPEAU_CAPTION_DATA@@AEAU2@@Z DD imagerel $LN22
	DD	imagerel $LN22+143
	DD	imagerel $unwind$??$construct@U_CAPTION_DATA@@AEAU1@@?$_Wrap_alloc@V?$allocator@U_CAPTION_DATA@@@std@@@std@@QEAAXPEAU_CAPTION_DATA@@AEAU2@@Z
pdata	ENDS
;	COMDAT pdata
pdata	SEGMENT
$pdata$?dtor$0@?0???$construct@U_CAPTION_DATA@@AEAU1@@?$_Wrap_alloc@V?$allocator@U_CAPTION_DATA@@@std@@@std@@QEAAXPEAU_CAPTION_DATA@@AEAU2@@Z@4HA DD imagerel ?dtor$0@?0???$construct@U_CAPTION_DATA@@AEAU1@@?$_Wrap_alloc@V?$allocator@U_CAPTION_DATA@@@std@@@std@@QEAAXPEAU_CAPTION_DATA@@AEAU2@@Z@4HA
	DD	imagerel ?dtor$0@?0???$construct@U_CAPTION_DATA@@AEAU1@@?$_Wrap_alloc@V?$allocator@U_CAPTION_DATA@@@std@@@std@@QEAAXPEAU_CAPTION_DATA@@AEAU2@@Z@4HA+28
	DD	imagerel $unwind$?dtor$0@?0???$construct@U_CAPTION_DATA@@AEAU1@@?$_Wrap_alloc@V?$allocator@U_CAPTION_DATA@@@std@@@std@@QEAAXPEAU_CAPTION_DATA@@AEAU2@@Z@4HA
pdata	ENDS
;	COMDAT pdata
pdata	SEGMENT
$pdata$??$construct@U_CAPTION_CHAR_DATA@@AEBU1@@?$_Wrap_alloc@V?$allocator@U_CAPTION_CHAR_DATA@@@std@@@std@@QEAAXPEAU_CAPTION_CHAR_DATA@@AEBU2@@Z DD imagerel $LN17
	DD	imagerel $LN17+53
	DD	imagerel $unwind$??$construct@U_CAPTION_CHAR_DATA@@AEBU1@@?$_Wrap_alloc@V?$allocator@U_CAPTION_CHAR_DATA@@@std@@@std@@QEAAXPEAU_CAPTION_CHAR_DATA@@AEBU2@@Z
pdata	ENDS
;	COMDAT pdata
pdata	SEGMENT
$pdata$?dtor$0@?0???$construct@U_CAPTION_CHAR_DATA@@AEBU1@@?$_Wrap_alloc@V?$allocator@U_CAPTION_CHAR_DATA@@@std@@@std@@QEAAXPEAU_CAPTION_CHAR_DATA@@AEBU2@@Z@4HA DD imagerel ?dtor$0@?0???$construct@U_CAPTION_CHAR_DATA@@AEBU1@@?$_Wrap_alloc@V?$allocator@U_CAPTION_CHAR_DATA@@@std@@@std@@QEAAXPEAU_CAPTION_CHAR_DATA@@AEBU2@@Z@4HA
	DD	imagerel ?dtor$0@?0???$construct@U_CAPTION_CHAR_DATA@@AEBU1@@?$_Wrap_alloc@V?$allocator@U_CAPTION_CHAR_DATA@@@std@@@std@@QEAAXPEAU_CAPTION_CHAR_DATA@@AEBU2@@Z@4HA+28
	DD	imagerel $unwind$?dtor$0@?0???$construct@U_CAPTION_CHAR_DATA@@AEBU1@@?$_Wrap_alloc@V?$allocator@U_CAPTION_CHAR_DATA@@@std@@@std@@QEAAXPEAU_CAPTION_CHAR_DATA@@AEBU2@@Z@4HA
pdata	ENDS
;	COMDAT pdata
pdata	SEGMENT
$pdata$??$construct@U_CAPTION_CHAR_DATA@@AEAU1@@?$_Wrap_alloc@V?$allocator@U_CAPTION_CHAR_DATA@@@std@@@std@@QEAAXPEAU_CAPTION_CHAR_DATA@@AEAU2@@Z DD imagerel $LN19
	DD	imagerel $LN19+53
	DD	imagerel $unwind$??$construct@U_CAPTION_CHAR_DATA@@AEAU1@@?$_Wrap_alloc@V?$allocator@U_CAPTION_CHAR_DATA@@@std@@@std@@QEAAXPEAU_CAPTION_CHAR_DATA@@AEAU2@@Z
pdata	ENDS
;	COMDAT pdata
pdata	SEGMENT
$pdata$?dtor$0@?0???$construct@U_CAPTION_CHAR_DATA@@AEAU1@@?$_Wrap_alloc@V?$allocator@U_CAPTION_CHAR_DATA@@@std@@@std@@QEAAXPEAU_CAPTION_CHAR_DATA@@AEAU2@@Z@4HA DD imagerel ?dtor$0@?0???$construct@U_CAPTION_CHAR_DATA@@AEAU1@@?$_Wrap_alloc@V?$allocator@U_CAPTION_CHAR_DATA@@@std@@@std@@QEAAXPEAU_CAPTION_CHAR_DATA@@AEAU2@@Z@4HA
	DD	imagerel ?dtor$0@?0???$construct@U_CAPTION_CHAR_DATA@@AEAU1@@?$_Wrap_alloc@V?$allocator@U_CAPTION_CHAR_DATA@@@std@@@std@@QEAAXPEAU_CAPTION_CHAR_DATA@@AEAU2@@Z@4HA+28
	DD	imagerel $unwind$?dtor$0@?0???$construct@U_CAPTION_CHAR_DATA@@AEAU1@@?$_Wrap_alloc@V?$allocator@U_CAPTION_CHAR_DATA@@@std@@@std@@QEAAXPEAU_CAPTION_CHAR_DATA@@AEAU2@@Z@4HA
pdata	ENDS
;	COMDAT pdata
pdata	SEGMENT
$pdata$?allocate@?$allocator@U_CAPTION_DATA@@@std@@QEAAPEAU_CAPTION_DATA@@_K@Z DD imagerel $LN12
	DD	imagerel $LN12+56
	DD	imagerel $unwind$?allocate@?$allocator@U_CAPTION_DATA@@@std@@QEAAPEAU_CAPTION_DATA@@_K@Z
pdata	ENDS
;	COMDAT pdata
pdata	SEGMENT
$pdata$?allocate@?$allocator@U_LANG_TAG_INFO@@@std@@QEAAPEAU_LANG_TAG_INFO@@_K@Z DD imagerel $LN12
	DD	imagerel $LN12+56
	DD	imagerel $unwind$?allocate@?$allocator@U_LANG_TAG_INFO@@@std@@QEAAPEAU_LANG_TAG_INFO@@_K@Z
pdata	ENDS
;	COMDAT pdata
pdata	SEGMENT
$pdata$?allocate@?$_Wrap_alloc@V?$allocator@U_CAPTION_DATA@@@std@@@std@@QEAAPEAU_CAPTION_DATA@@_K@Z DD imagerel $LN15
	DD	imagerel $LN15+56
	DD	imagerel $unwind$?allocate@?$_Wrap_alloc@V?$allocator@U_CAPTION_DATA@@@std@@@std@@QEAAPEAU_CAPTION_DATA@@_K@Z
pdata	ENDS
;	COMDAT pdata
pdata	SEGMENT
$pdata$?allocate@?$_Wrap_alloc@V?$allocator@U_LANG_TAG_INFO@@@std@@@std@@QEAAPEAU_LANG_TAG_INFO@@_K@Z DD imagerel $LN15
	DD	imagerel $LN15+56
	DD	imagerel $unwind$?allocate@?$_Wrap_alloc@V?$allocator@U_LANG_TAG_INFO@@@std@@@std@@QEAAPEAU_LANG_TAG_INFO@@_K@Z
pdata	ENDS
;	COMDAT pdata
pdata	SEGMENT
$pdata$?allocate@?$allocator@U_CAPTION_CHAR_DATA@@@std@@QEAAPEAU_CAPTION_CHAR_DATA@@_K@Z DD imagerel $LN12
	DD	imagerel $LN12+57
	DD	imagerel $unwind$?allocate@?$allocator@U_CAPTION_CHAR_DATA@@@std@@QEAAPEAU_CAPTION_CHAR_DATA@@_K@Z
pdata	ENDS
;	COMDAT pdata
pdata	SEGMENT
$pdata$?_Xlen@?$vector@U_CAPTION_DATA@@V?$allocator@U_CAPTION_DATA@@@std@@@std@@IEBAXXZ DD imagerel $LN4
	DD	imagerel $LN4+18
	DD	imagerel $unwind$?_Xlen@?$vector@U_CAPTION_DATA@@V?$allocator@U_CAPTION_DATA@@@std@@@std@@IEBAXXZ
pdata	ENDS
;	COMDAT pdata
pdata	SEGMENT
$pdata$?_Reallocate@?$vector@U_CAPTION_DATA@@V?$allocator@U_CAPTION_DATA@@@std@@@std@@IEAAX_K@Z DD imagerel $LN49
	DD	imagerel $LN49+224
	DD	imagerel $unwind$?_Reallocate@?$vector@U_CAPTION_DATA@@V?$allocator@U_CAPTION_DATA@@@std@@@std@@IEAAX_K@Z
pdata	ENDS
;	COMDAT pdata
pdata	SEGMENT
$pdata$?catch$0@?0??_Reallocate@?$vector@U_CAPTION_DATA@@V?$allocator@U_CAPTION_DATA@@@std@@@std@@IEAAX_K@Z@4HA DD imagerel ?catch$0@?0??_Reallocate@?$vector@U_CAPTION_DATA@@V?$allocator@U_CAPTION_DATA@@@std@@@std@@IEAAX_K@Z@4HA
	DD	imagerel ?catch$0@?0??_Reallocate@?$vector@U_CAPTION_DATA@@V?$allocator@U_CAPTION_DATA@@@std@@@std@@IEAAX_K@Z@4HA+33
	DD	imagerel $unwind$?catch$0@?0??_Reallocate@?$vector@U_CAPTION_DATA@@V?$allocator@U_CAPTION_DATA@@@std@@@std@@IEAAX_K@Z@4HA
pdata	ENDS
;	COMDAT pdata
pdata	SEGMENT
$pdata$?_Xlen@?$vector@U_LANG_TAG_INFO@@V?$allocator@U_LANG_TAG_INFO@@@std@@@std@@IEBAXXZ DD imagerel $LN4
	DD	imagerel $LN4+18
	DD	imagerel $unwind$?_Xlen@?$vector@U_LANG_TAG_INFO@@V?$allocator@U_LANG_TAG_INFO@@@std@@@std@@IEBAXXZ
pdata	ENDS
;	COMDAT pdata
pdata	SEGMENT
$pdata$?_Reallocate@?$vector@U_LANG_TAG_INFO@@V?$allocator@U_LANG_TAG_INFO@@@std@@@std@@IEAAX_K@Z DD imagerel $LN50
	DD	imagerel $LN50+190
	DD	imagerel $unwind$?_Reallocate@?$vector@U_LANG_TAG_INFO@@V?$allocator@U_LANG_TAG_INFO@@@std@@@std@@IEAAX_K@Z
pdata	ENDS
;	COMDAT pdata
pdata	SEGMENT
$pdata$?allocate@?$_Wrap_alloc@V?$allocator@U_CAPTION_CHAR_DATA@@@std@@@std@@QEAAPEAU_CAPTION_CHAR_DATA@@_K@Z DD imagerel $LN15
	DD	imagerel $LN15+57
	DD	imagerel $unwind$?allocate@?$_Wrap_alloc@V?$allocator@U_CAPTION_CHAR_DATA@@@std@@@std@@QEAAPEAU_CAPTION_CHAR_DATA@@_K@Z
pdata	ENDS
;	COMDAT pdata
pdata	SEGMENT
$pdata$?_Xlen@?$vector@U_CAPTION_CHAR_DATA@@V?$allocator@U_CAPTION_CHAR_DATA@@@std@@@std@@IEBAXXZ DD imagerel $LN4
	DD	imagerel $LN4+18
	DD	imagerel $unwind$?_Xlen@?$vector@U_CAPTION_CHAR_DATA@@V?$allocator@U_CAPTION_CHAR_DATA@@@std@@@std@@IEBAXXZ
pdata	ENDS
;	COMDAT pdata
pdata	SEGMENT
$pdata$?_Reallocate@?$vector@U_CAPTION_CHAR_DATA@@V?$allocator@U_CAPTION_CHAR_DATA@@@std@@@std@@IEAAX_K@Z DD imagerel $LN106
	DD	imagerel $LN106+285
	DD	imagerel $unwind$?_Reallocate@?$vector@U_CAPTION_CHAR_DATA@@V?$allocator@U_CAPTION_CHAR_DATA@@@std@@@std@@IEAAX_K@Z
pdata	ENDS
;	COMDAT pdata
pdata	SEGMENT
$pdata$?catch$0@?0??_Reallocate@?$vector@U_CAPTION_CHAR_DATA@@V?$allocator@U_CAPTION_CHAR_DATA@@@std@@@std@@IEAAX_K@Z@4HA DD imagerel ?catch$0@?0??_Reallocate@?$vector@U_CAPTION_CHAR_DATA@@V?$allocator@U_CAPTION_CHAR_DATA@@@std@@@std@@IEAAX_K@Z@4HA
	DD	imagerel ?catch$0@?0??_Reallocate@?$vector@U_CAPTION_CHAR_DATA@@V?$allocator@U_CAPTION_CHAR_DATA@@@std@@@std@@IEAAX_K@Z@4HA+33
	DD	imagerel $unwind$?catch$0@?0??_Reallocate@?$vector@U_CAPTION_CHAR_DATA@@V?$allocator@U_CAPTION_CHAR_DATA@@@std@@@std@@IEAAX_K@Z@4HA
pdata	ENDS
;	COMDAT pdata
pdata	SEGMENT
$pdata$?_Reserve@?$vector@U_CAPTION_DATA@@V?$allocator@U_CAPTION_DATA@@@std@@@std@@IEAAX_K@Z DD imagerel $LN43
	DD	imagerel $LN43+208
	DD	imagerel $unwind$?_Reserve@?$vector@U_CAPTION_DATA@@V?$allocator@U_CAPTION_DATA@@@std@@@std@@IEAAX_K@Z
pdata	ENDS
;	COMDAT pdata
pdata	SEGMENT
$pdata$?_Reserve@?$vector@U_LANG_TAG_INFO@@V?$allocator@U_LANG_TAG_INFO@@@std@@@std@@IEAAX_K@Z DD imagerel $LN43
	DD	imagerel $LN43+208
	DD	imagerel $unwind$?_Reserve@?$vector@U_LANG_TAG_INFO@@V?$allocator@U_LANG_TAG_INFO@@@std@@@std@@IEAAX_K@Z
pdata	ENDS
;	COMDAT pdata
pdata	SEGMENT
$pdata$?_Reserve@?$vector@U_CAPTION_CHAR_DATA@@V?$allocator@U_CAPTION_CHAR_DATA@@@std@@@std@@IEAAX_K@Z DD imagerel $LN43
	DD	imagerel $LN43+208
	DD	imagerel $unwind$?_Reserve@?$vector@U_CAPTION_CHAR_DATA@@V?$allocator@U_CAPTION_CHAR_DATA@@@std@@@std@@IEAAX_K@Z
pdata	ENDS
;	COMDAT pdata
pdata	SEGMENT
$pdata$?_Buy@?$vector@U_CAPTION_CHAR_DATA@@V?$allocator@U_CAPTION_CHAR_DATA@@@std@@@std@@IEAA_N_K@Z DD imagerel $LN37
	DD	imagerel $LN37+56
	DD	imagerel $unwind$?_Buy@?$vector@U_CAPTION_CHAR_DATA@@V?$allocator@U_CAPTION_CHAR_DATA@@@std@@@std@@IEAA_N_K@Z
pdata	ENDS
;	COMDAT pdata
pdata	SEGMENT
$pdata$0$?_Buy@?$vector@U_CAPTION_CHAR_DATA@@V?$allocator@U_CAPTION_CHAR_DATA@@@std@@@std@@IEAA_N_K@Z DD imagerel $LN37+56
	DD	imagerel $LN37+104
	DD	imagerel $chain$0$?_Buy@?$vector@U_CAPTION_CHAR_DATA@@V?$allocator@U_CAPTION_CHAR_DATA@@@std@@@std@@IEAA_N_K@Z
pdata	ENDS
;	COMDAT pdata
pdata	SEGMENT
$pdata$1$?_Buy@?$vector@U_CAPTION_CHAR_DATA@@V?$allocator@U_CAPTION_CHAR_DATA@@@std@@@std@@IEAA_N_K@Z DD imagerel $LN37+104
	DD	imagerel $LN37+110
	DD	imagerel $chain$1$?_Buy@?$vector@U_CAPTION_CHAR_DATA@@V?$allocator@U_CAPTION_CHAR_DATA@@@std@@@std@@IEAA_N_K@Z
pdata	ENDS
;	COMDAT pdata
pdata	SEGMENT
$pdata$2$?_Buy@?$vector@U_CAPTION_CHAR_DATA@@V?$allocator@U_CAPTION_CHAR_DATA@@@std@@@std@@IEAA_N_K@Z DD imagerel $LN37+110
	DD	imagerel $LN37+117
	DD	imagerel $chain$2$?_Buy@?$vector@U_CAPTION_CHAR_DATA@@V?$allocator@U_CAPTION_CHAR_DATA@@@std@@@std@@IEAA_N_K@Z
pdata	ENDS
;	COMDAT pdata
pdata	SEGMENT
$pdata$?push_back@?$vector@U_CAPTION_DATA@@V?$allocator@U_CAPTION_DATA@@@std@@@std@@QEAAXAEBU_CAPTION_DATA@@@Z DD imagerel $LN63
	DD	imagerel $LN63+343
	DD	imagerel $unwind$?push_back@?$vector@U_CAPTION_DATA@@V?$allocator@U_CAPTION_DATA@@@std@@@std@@QEAAXAEBU_CAPTION_DATA@@@Z
pdata	ENDS
;	COMDAT pdata
pdata	SEGMENT
$pdata$?dtor$0@?0??push_back@?$vector@U_CAPTION_DATA@@V?$allocator@U_CAPTION_DATA@@@std@@@std@@QEAAXAEBU_CAPTION_DATA@@@Z@4HA DD imagerel ?dtor$0@?0??push_back@?$vector@U_CAPTION_DATA@@V?$allocator@U_CAPTION_DATA@@@std@@@std@@QEAAXAEBU_CAPTION_DATA@@@Z@4HA
	DD	imagerel ?dtor$0@?0??push_back@?$vector@U_CAPTION_DATA@@V?$allocator@U_CAPTION_DATA@@@std@@@std@@QEAAXAEBU_CAPTION_DATA@@@Z@4HA+28
	DD	imagerel $unwind$?dtor$0@?0??push_back@?$vector@U_CAPTION_DATA@@V?$allocator@U_CAPTION_DATA@@@std@@@std@@QEAAXAEBU_CAPTION_DATA@@@Z@4HA
pdata	ENDS
;	COMDAT pdata
pdata	SEGMENT
$pdata$?dtor$2@?0??push_back@?$vector@U_CAPTION_DATA@@V?$allocator@U_CAPTION_DATA@@@std@@@std@@QEAAXAEBU_CAPTION_DATA@@@Z@4HA DD imagerel ?dtor$2@?0??push_back@?$vector@U_CAPTION_DATA@@V?$allocator@U_CAPTION_DATA@@@std@@@std@@QEAAXAEBU_CAPTION_DATA@@@Z@4HA
	DD	imagerel ?dtor$2@?0??push_back@?$vector@U_CAPTION_DATA@@V?$allocator@U_CAPTION_DATA@@@std@@@std@@QEAAXAEBU_CAPTION_DATA@@@Z@4HA+28
	DD	imagerel $unwind$?dtor$2@?0??push_back@?$vector@U_CAPTION_DATA@@V?$allocator@U_CAPTION_DATA@@@std@@@std@@QEAAXAEBU_CAPTION_DATA@@@Z@4HA
pdata	ENDS
;	COMDAT pdata
pdata	SEGMENT
$pdata$?push_back@?$vector@U_LANG_TAG_INFO@@V?$allocator@U_LANG_TAG_INFO@@@std@@@std@@QEAAXAEBU_LANG_TAG_INFO@@@Z DD imagerel $LN56
	DD	imagerel $LN56+165
	DD	imagerel $unwind$?push_back@?$vector@U_LANG_TAG_INFO@@V?$allocator@U_LANG_TAG_INFO@@@std@@@std@@QEAAXAEBU_LANG_TAG_INFO@@@Z
pdata	ENDS
;	COMDAT pdata
pdata	SEGMENT
$pdata$?push_back@?$vector@U_CAPTION_CHAR_DATA@@V?$allocator@U_CAPTION_CHAR_DATA@@@std@@@std@@QEAAXAEBU_CAPTION_CHAR_DATA@@@Z DD imagerel $LN57
	DD	imagerel $LN57+186
	DD	imagerel $unwind$?push_back@?$vector@U_CAPTION_CHAR_DATA@@V?$allocator@U_CAPTION_CHAR_DATA@@@std@@@std@@QEAAXAEBU_CAPTION_CHAR_DATA@@@Z
pdata	ENDS
;	COMDAT pdata
pdata	SEGMENT
$pdata$?dtor$0@?0??push_back@?$vector@U_CAPTION_CHAR_DATA@@V?$allocator@U_CAPTION_CHAR_DATA@@@std@@@std@@QEAAXAEBU_CAPTION_CHAR_DATA@@@Z@4HA DD imagerel ?dtor$0@?0??push_back@?$vector@U_CAPTION_CHAR_DATA@@V?$allocator@U_CAPTION_CHAR_DATA@@@std@@@std@@QEAAXAEBU_CAPTION_CHAR_DATA@@@Z@4HA
	DD	imagerel ?dtor$0@?0??push_back@?$vector@U_CAPTION_CHAR_DATA@@V?$allocator@U_CAPTION_CHAR_DATA@@@std@@@std@@QEAAXAEBU_CAPTION_CHAR_DATA@@@Z@4HA+28
	DD	imagerel $unwind$?dtor$0@?0??push_back@?$vector@U_CAPTION_CHAR_DATA@@V?$allocator@U_CAPTION_CHAR_DATA@@@std@@@std@@QEAAXAEBU_CAPTION_CHAR_DATA@@@Z@4HA
pdata	ENDS
;	COMDAT pdata
pdata	SEGMENT
$pdata$?dtor$1@?0??push_back@?$vector@U_CAPTION_CHAR_DATA@@V?$allocator@U_CAPTION_CHAR_DATA@@@std@@@std@@QEAAXAEBU_CAPTION_CHAR_DATA@@@Z@4HA DD imagerel ?dtor$1@?0??push_back@?$vector@U_CAPTION_CHAR_DATA@@V?$allocator@U_CAPTION_CHAR_DATA@@@std@@@std@@QEAAXAEBU_CAPTION_CHAR_DATA@@@Z@4HA
	DD	imagerel ?dtor$1@?0??push_back@?$vector@U_CAPTION_CHAR_DATA@@V?$allocator@U_CAPTION_CHAR_DATA@@@std@@@std@@QEAAXAEBU_CAPTION_CHAR_DATA@@@Z@4HA+28
	DD	imagerel $unwind$?dtor$1@?0??push_back@?$vector@U_CAPTION_CHAR_DATA@@V?$allocator@U_CAPTION_CHAR_DATA@@@std@@@std@@QEAAXAEBU_CAPTION_CHAR_DATA@@@Z@4HA
pdata	ENDS
;	COMDAT pdata
pdata	SEGMENT
$pdata$?UnLoadDll@CCaptionDllUtil@@IEAAHXZ DD imagerel $LN7
	DD	imagerel $LN7+63
	DD	imagerel $unwind$?UnLoadDll@CCaptionDllUtil@@IEAAHXZ
pdata	ENDS
;	COMDAT pdata
pdata	SEGMENT
$pdata$?LoadDll@CCaptionDllUtil@@IEAAHXZ DD imagerel $LN38
	DD	imagerel $LN38+23
	DD	imagerel $unwind$?LoadDll@CCaptionDllUtil@@IEAAHXZ
pdata	ENDS
;	COMDAT pdata
pdata	SEGMENT
$pdata$0$?LoadDll@CCaptionDllUtil@@IEAAHXZ DD imagerel $LN38+23
	DD	imagerel $LN38+247
	DD	imagerel $chain$0$?LoadDll@CCaptionDllUtil@@IEAAHXZ
pdata	ENDS
;	COMDAT pdata
pdata	SEGMENT
$pdata$2$?LoadDll@CCaptionDllUtil@@IEAAHXZ DD imagerel $LN38+247
	DD	imagerel $LN38+272
	DD	imagerel $chain$2$?LoadDll@CCaptionDllUtil@@IEAAHXZ
pdata	ENDS
;	COMDAT pdata
pdata	SEGMENT
$pdata$?GetCaptionData@CCaptionDllUtil@@QEAAKEPEAV?$vector@U_CAPTION_DATA@@V?$allocator@U_CAPTION_DATA@@@std@@@std@@@Z DD imagerel $LN421
	DD	imagerel $LN421+1579
	DD	imagerel $unwind$?GetCaptionData@CCaptionDllUtil@@QEAAKEPEAV?$vector@U_CAPTION_DATA@@V?$allocator@U_CAPTION_DATA@@@std@@@std@@@Z
pdata	ENDS
;	COMDAT pdata
pdata	SEGMENT
$pdata$?dtor$2@?0??GetCaptionData@CCaptionDllUtil@@QEAAKEPEAV?$vector@U_CAPTION_DATA@@V?$allocator@U_CAPTION_DATA@@@std@@@std@@@Z@4HA DD imagerel ?dtor$2@?0??GetCaptionData@CCaptionDllUtil@@QEAAKEPEAV?$vector@U_CAPTION_DATA@@V?$allocator@U_CAPTION_DATA@@@std@@@std@@@Z@4HA
	DD	imagerel ?dtor$2@?0??GetCaptionData@CCaptionDllUtil@@QEAAKEPEAV?$vector@U_CAPTION_DATA@@V?$allocator@U_CAPTION_DATA@@@std@@@std@@@Z@4HA+31
	DD	imagerel $unwind$?dtor$2@?0??GetCaptionData@CCaptionDllUtil@@QEAAKEPEAV?$vector@U_CAPTION_DATA@@V?$allocator@U_CAPTION_DATA@@@std@@@std@@@Z@4HA
pdata	ENDS
;	COMDAT pdata
pdata	SEGMENT
$pdata$?dtor$4@?0??GetCaptionData@CCaptionDllUtil@@QEAAKEPEAV?$vector@U_CAPTION_DATA@@V?$allocator@U_CAPTION_DATA@@@std@@@std@@@Z@4HA DD imagerel ?dtor$4@?0??GetCaptionData@CCaptionDllUtil@@QEAAKEPEAV?$vector@U_CAPTION_DATA@@V?$allocator@U_CAPTION_DATA@@@std@@@std@@@Z@4HA
	DD	imagerel ?dtor$4@?0??GetCaptionData@CCaptionDllUtil@@QEAAKEPEAV?$vector@U_CAPTION_DATA@@V?$allocator@U_CAPTION_DATA@@@std@@@std@@@Z@4HA+31
	DD	imagerel $unwind$?dtor$4@?0??GetCaptionData@CCaptionDllUtil@@QEAAKEPEAV?$vector@U_CAPTION_DATA@@V?$allocator@U_CAPTION_DATA@@@std@@@std@@@Z@4HA
pdata	ENDS
;	COMDAT pdata
pdata	SEGMENT
$pdata$?GetTagInfo@CCaptionDllUtil@@QEAAKPEAV?$vector@U_LANG_TAG_INFO@@V?$allocator@U_LANG_TAG_INFO@@@std@@@std@@@Z DD imagerel $LN73
	DD	imagerel $LN73+52
	DD	imagerel $unwind$?GetTagInfo@CCaptionDllUtil@@QEAAKPEAV?$vector@U_LANG_TAG_INFO@@V?$allocator@U_LANG_TAG_INFO@@@std@@@std@@@Z
pdata	ENDS
;	COMDAT pdata
pdata	SEGMENT
$pdata$0$?GetTagInfo@CCaptionDllUtil@@QEAAKPEAV?$vector@U_LANG_TAG_INFO@@V?$allocator@U_LANG_TAG_INFO@@@std@@@std@@@Z DD imagerel $LN73+52
	DD	imagerel $LN73+72
	DD	imagerel $chain$0$?GetTagInfo@CCaptionDllUtil@@QEAAKPEAV?$vector@U_LANG_TAG_INFO@@V?$allocator@U_LANG_TAG_INFO@@@std@@@std@@@Z
pdata	ENDS
;	COMDAT pdata
pdata	SEGMENT
$pdata$2$?GetTagInfo@CCaptionDllUtil@@QEAAKPEAV?$vector@U_LANG_TAG_INFO@@V?$allocator@U_LANG_TAG_INFO@@@std@@@std@@@Z DD imagerel $LN73+72
	DD	imagerel $LN73+340
	DD	imagerel $chain$2$?GetTagInfo@CCaptionDllUtil@@QEAAKPEAV?$vector@U_LANG_TAG_INFO@@V?$allocator@U_LANG_TAG_INFO@@@std@@@std@@@Z
pdata	ENDS
;	COMDAT pdata
pdata	SEGMENT
$pdata$3$?GetTagInfo@CCaptionDllUtil@@QEAAKPEAV?$vector@U_LANG_TAG_INFO@@V?$allocator@U_LANG_TAG_INFO@@@std@@@std@@@Z DD imagerel $LN73+340
	DD	imagerel $LN73+348
	DD	imagerel $chain$3$?GetTagInfo@CCaptionDllUtil@@QEAAKPEAV?$vector@U_LANG_TAG_INFO@@V?$allocator@U_LANG_TAG_INFO@@@std@@@std@@@Z
pdata	ENDS
;	COMDAT pdata
pdata	SEGMENT
$pdata$4$?GetTagInfo@CCaptionDllUtil@@QEAAKPEAV?$vector@U_LANG_TAG_INFO@@V?$allocator@U_LANG_TAG_INFO@@@std@@@std@@@Z DD imagerel $LN73+348
	DD	imagerel $LN73+368
	DD	imagerel $chain$4$?GetTagInfo@CCaptionDllUtil@@QEAAKPEAV?$vector@U_LANG_TAG_INFO@@V?$allocator@U_LANG_TAG_INFO@@@std@@@std@@@Z
pdata	ENDS
;	COMDAT pdata
pdata	SEGMENT
$pdata$?CheckUNICODE@CCaptionDllUtil@@QEAAHXZ DD imagerel $LN7
	DD	imagerel $LN7+84
	DD	imagerel $unwind$?CheckUNICODE@CCaptionDllUtil@@QEAAHXZ
pdata	ENDS
;	COMDAT pdata
pdata	SEGMENT
$pdata$??1CCaptionDllUtil@@QEAA@XZ DD imagerel $LN8
	DD	imagerel $LN8+53
	DD	imagerel $unwind$??1CCaptionDllUtil@@QEAA@XZ
;	COMDAT xdata
xdata	SEGMENT
$unwind$??1CCaptionDllUtil@@QEAA@XZ DD 020601H
	DD	030023206H
xdata	ENDS
;	COMDAT xdata
xdata	SEGMENT
$unwind$?CheckUNICODE@CCaptionDllUtil@@QEAAHXZ DD 040a01H
	DD	06340aH
	DD	07006320aH
xdata	ENDS
;	COMDAT xdata
xdata	SEGMENT
$chain$4$?GetTagInfo@CCaptionDllUtil@@QEAAKPEAV?$vector@U_LANG_TAG_INFO@@V?$allocator@U_LANG_TAG_INFO@@@std@@@std@@@Z DD 021H
	DD	imagerel $LN73
	DD	imagerel $LN73+52
	DD	imagerel $unwind$?GetTagInfo@CCaptionDllUtil@@QEAAKPEAV?$vector@U_LANG_TAG_INFO@@V?$allocator@U_LANG_TAG_INFO@@@std@@@std@@@Z
xdata	ENDS
;	COMDAT xdata
xdata	SEGMENT
$chain$3$?GetTagInfo@CCaptionDllUtil@@QEAAKPEAV?$vector@U_LANG_TAG_INFO@@V?$allocator@U_LANG_TAG_INFO@@@std@@@std@@@Z DD 021H
	DD	imagerel $LN73+52
	DD	imagerel $LN73+72
	DD	imagerel $chain$0$?GetTagInfo@CCaptionDllUtil@@QEAAKPEAV?$vector@U_LANG_TAG_INFO@@V?$allocator@U_LANG_TAG_INFO@@@std@@@std@@@Z
xdata	ENDS
;	COMDAT xdata
xdata	SEGMENT
$chain$2$?GetTagInfo@CCaptionDllUtil@@QEAAKPEAV?$vector@U_LANG_TAG_INFO@@V?$allocator@U_LANG_TAG_INFO@@@std@@@std@@@Z DD 041721H
	DD	0117417H
	DD	0ae405H
	DD	imagerel $LN73+52
	DD	imagerel $LN73+72
	DD	imagerel $chain$0$?GetTagInfo@CCaptionDllUtil@@QEAAKPEAV?$vector@U_LANG_TAG_INFO@@V?$allocator@U_LANG_TAG_INFO@@@std@@@std@@@Z
xdata	ENDS
;	COMDAT xdata
xdata	SEGMENT
$chain$0$?GetTagInfo@CCaptionDllUtil@@QEAAKPEAV?$vector@U_LANG_TAG_INFO@@V?$allocator@U_LANG_TAG_INFO@@@std@@@std@@@Z DD 020821H
	DD	0106408H
	DD	imagerel $LN73
	DD	imagerel $LN73+52
	DD	imagerel $unwind$?GetTagInfo@CCaptionDllUtil@@QEAAKPEAV?$vector@U_LANG_TAG_INFO@@V?$allocator@U_LANG_TAG_INFO@@@std@@@std@@@Z
xdata	ENDS
;	COMDAT xdata
xdata	SEGMENT
$unwind$?GetTagInfo@CCaptionDllUtil@@QEAAKPEAV?$vector@U_LANG_TAG_INFO@@V?$allocator@U_LANG_TAG_INFO@@@std@@@std@@@Z DD 031619H
	DD	05003a207H
	DD	03002H
	DD	imagerel __GSHandlerCheck
	DD	040H
xdata	ENDS
;	COMDAT xdata
xdata	SEGMENT
$unwind$?dtor$4@?0??GetCaptionData@CCaptionDllUtil@@QEAAKEPEAV?$vector@U_CAPTION_DATA@@V?$allocator@U_CAPTION_DATA@@@std@@@std@@@Z@4HA DD 020601H
	DD	050023206H
xdata	ENDS
;	COMDAT xdata
xdata	SEGMENT
$unwind$?dtor$2@?0??GetCaptionData@CCaptionDllUtil@@QEAAKEPEAV?$vector@U_CAPTION_DATA@@V?$allocator@U_CAPTION_DATA@@@std@@@std@@@Z@4HA DD 020601H
	DD	050023206H
xdata	ENDS
;	COMDAT xdata
xdata	SEGMENT
$ip2state$?GetCaptionData@CCaptionDllUtil@@QEAAKEPEAV?$vector@U_CAPTION_DATA@@V?$allocator@U_CAPTION_DATA@@@std@@@std@@@Z DD imagerel ?GetCaptionData@CCaptionDllUtil@@QEAAKEPEAV?$vector@U_CAPTION_DATA@@V?$allocator@U_CAPTION_DATA@@@std@@@std@@@Z
	DD	0ffffffffH
	DD	imagerel ?GetCaptionData@CCaptionDllUtil@@QEAAKEPEAV?$vector@U_CAPTION_DATA@@V?$allocator@U_CAPTION_DATA@@@std@@@std@@@Z+131
	DD	00H
	DD	imagerel ?GetCaptionData@CCaptionDllUtil@@QEAAKEPEAV?$vector@U_CAPTION_DATA@@V?$allocator@U_CAPTION_DATA@@@std@@@std@@@Z+276
	DD	01H
	DD	imagerel ?GetCaptionData@CCaptionDllUtil@@QEAAKEPEAV?$vector@U_CAPTION_DATA@@V?$allocator@U_CAPTION_DATA@@@std@@@std@@@Z+880
	DD	02H
	DD	imagerel ?GetCaptionData@CCaptionDllUtil@@QEAAKEPEAV?$vector@U_CAPTION_DATA@@V?$allocator@U_CAPTION_DATA@@@std@@@std@@@Z+1020
	DD	01H
	DD	imagerel ?GetCaptionData@CCaptionDllUtil@@QEAAKEPEAV?$vector@U_CAPTION_DATA@@V?$allocator@U_CAPTION_DATA@@@std@@@std@@@Z+1216
	DD	03H
	DD	imagerel ?GetCaptionData@CCaptionDllUtil@@QEAAKEPEAV?$vector@U_CAPTION_DATA@@V?$allocator@U_CAPTION_DATA@@@std@@@std@@@Z+1357
	DD	01H
	DD	imagerel ?GetCaptionData@CCaptionDllUtil@@QEAAKEPEAV?$vector@U_CAPTION_DATA@@V?$allocator@U_CAPTION_DATA@@@std@@@std@@@Z+1365
	DD	00H
	DD	imagerel ?GetCaptionData@CCaptionDllUtil@@QEAAKEPEAV?$vector@U_CAPTION_DATA@@V?$allocator@U_CAPTION_DATA@@@std@@@std@@@Z+1416
	DD	0ffffffffH
	DD	imagerel ?GetCaptionData@CCaptionDllUtil@@QEAAKEPEAV?$vector@U_CAPTION_DATA@@V?$allocator@U_CAPTION_DATA@@@std@@@std@@@Z+1508
	DD	01H
	DD	imagerel ?GetCaptionData@CCaptionDllUtil@@QEAAKEPEAV?$vector@U_CAPTION_DATA@@V?$allocator@U_CAPTION_DATA@@@std@@@std@@@Z+1536
	DD	0ffffffffH
xdata	ENDS
;	COMDAT xdata
xdata	SEGMENT
$stateUnwindMap$?GetCaptionData@CCaptionDllUtil@@QEAAKEPEAV?$vector@U_CAPTION_DATA@@V?$allocator@U_CAPTION_DATA@@@std@@@std@@@Z DD 0ffffffffH
	DD	imagerel ?dtor$0@?0??GetCaptionData@CCaptionDllUtil@@QEAAKEPEAV?$vector@U_CAPTION_DATA@@V?$allocator@U_CAPTION_DATA@@@std@@@std@@@Z@4HA
	DD	00H
	DD	imagerel ?dtor$1@?0??GetCaptionData@CCaptionDllUtil@@QEAAKEPEAV?$vector@U_CAPTION_DATA@@V?$allocator@U_CAPTION_DATA@@@std@@@std@@@Z@4HA
	DD	01H
	DD	imagerel ?dtor$2@?0??GetCaptionData@CCaptionDllUtil@@QEAAKEPEAV?$vector@U_CAPTION_DATA@@V?$allocator@U_CAPTION_DATA@@@std@@@std@@@Z@4HA
	DD	01H
	DD	imagerel ?dtor$4@?0??GetCaptionData@CCaptionDllUtil@@QEAAKEPEAV?$vector@U_CAPTION_DATA@@V?$allocator@U_CAPTION_DATA@@@std@@@std@@@Z@4HA
xdata	ENDS
;	COMDAT CONST
CONST	SEGMENT
$cppxdata$?GetCaptionData@CCaptionDllUtil@@QEAAKEPEAV?$vector@U_CAPTION_DATA@@V?$allocator@U_CAPTION_DATA@@@std@@@std@@@Z DD 019930522H
	DD	04H
	DD	imagerel $stateUnwindMap$?GetCaptionData@CCaptionDllUtil@@QEAAKEPEAV?$vector@U_CAPTION_DATA@@V?$allocator@U_CAPTION_DATA@@@std@@@std@@@Z
	DD	00H
	DD	00H
	DD	0bH
	DD	imagerel $ip2state$?GetCaptionData@CCaptionDllUtil@@QEAAKEPEAV?$vector@U_CAPTION_DATA@@V?$allocator@U_CAPTION_DATA@@@std@@@std@@@Z
	DD	088H
	DD	00H
	DD	01H
CONST	ENDS
;	COMDAT xdata
xdata	SEGMENT
$unwind$?GetCaptionData@CCaptionDllUtil@@QEAAKEPEAV?$vector@U_CAPTION_DATA@@V?$allocator@U_CAPTION_DATA@@@std@@@std@@@Z DD 0b3619H
	DD	0283428H
	DD	01e0118H
	DD	0e00af00cH
	DD	0c006d008H
	DD	060037004H
	DD	05002H
	DD	imagerel __GSHandlerCheck_EH
	DD	imagerel $cppxdata$?GetCaptionData@CCaptionDllUtil@@QEAAKEPEAV?$vector@U_CAPTION_DATA@@V?$allocator@U_CAPTION_DATA@@@std@@@std@@@Z
	DD	0e2H
xdata	ENDS
;	COMDAT xdata
xdata	SEGMENT
$chain$2$?LoadDll@CCaptionDllUtil@@IEAAHXZ DD 020021H
	DD	067400H
	DD	imagerel $LN38
	DD	imagerel $LN38+23
	DD	imagerel $unwind$?LoadDll@CCaptionDllUtil@@IEAAHXZ
xdata	ENDS
;	COMDAT xdata
xdata	SEGMENT
$chain$0$?LoadDll@CCaptionDllUtil@@IEAAHXZ DD 020521H
	DD	067405H
	DD	imagerel $LN38
	DD	imagerel $LN38+23
	DD	imagerel $unwind$?LoadDll@CCaptionDllUtil@@IEAAHXZ
xdata	ENDS
;	COMDAT xdata
xdata	SEGMENT
$unwind$?LoadDll@CCaptionDllUtil@@IEAAHXZ DD 020601H
	DD	030023206H
xdata	ENDS
;	COMDAT xdata
xdata	SEGMENT
$unwind$?UnLoadDll@CCaptionDllUtil@@IEAAHXZ DD 020601H
	DD	030023206H
xdata	ENDS
;	COMDAT xdata
xdata	SEGMENT
$unwind$?dtor$1@?0??push_back@?$vector@U_CAPTION_CHAR_DATA@@V?$allocator@U_CAPTION_CHAR_DATA@@@std@@@std@@QEAAXAEBU_CAPTION_CHAR_DATA@@@Z@4HA DD 020601H
	DD	050023206H
xdata	ENDS
;	COMDAT xdata
xdata	SEGMENT
$unwind$?dtor$0@?0??push_back@?$vector@U_CAPTION_CHAR_DATA@@V?$allocator@U_CAPTION_CHAR_DATA@@@std@@@std@@QEAAXAEBU_CAPTION_CHAR_DATA@@@Z@4HA DD 020601H
	DD	050023206H
xdata	ENDS
;	COMDAT xdata
xdata	SEGMENT
$ip2state$?push_back@?$vector@U_CAPTION_CHAR_DATA@@V?$allocator@U_CAPTION_CHAR_DATA@@@std@@@std@@QEAAXAEBU_CAPTION_CHAR_DATA@@@Z DD imagerel ?push_back@?$vector@U_CAPTION_CHAR_DATA@@V?$allocator@U_CAPTION_CHAR_DATA@@@std@@@std@@QEAAXAEBU_CAPTION_CHAR_DATA@@@Z
	DD	0ffffffffH
	DD	imagerel ?push_back@?$vector@U_CAPTION_CHAR_DATA@@V?$allocator@U_CAPTION_CHAR_DATA@@@std@@@std@@QEAAXAEBU_CAPTION_CHAR_DATA@@@Z+115
	DD	00H
	DD	imagerel ?push_back@?$vector@U_CAPTION_CHAR_DATA@@V?$allocator@U_CAPTION_CHAR_DATA@@@std@@@std@@QEAAXAEBU_CAPTION_CHAR_DATA@@@Z+126
	DD	0ffffffffH
	DD	imagerel ?push_back@?$vector@U_CAPTION_CHAR_DATA@@V?$allocator@U_CAPTION_CHAR_DATA@@@std@@@std@@QEAAXAEBU_CAPTION_CHAR_DATA@@@Z+156
	DD	01H
	DD	imagerel ?push_back@?$vector@U_CAPTION_CHAR_DATA@@V?$allocator@U_CAPTION_CHAR_DATA@@@std@@@std@@QEAAXAEBU_CAPTION_CHAR_DATA@@@Z+170
	DD	0ffffffffH
xdata	ENDS
;	COMDAT xdata
xdata	SEGMENT
$stateUnwindMap$?push_back@?$vector@U_CAPTION_CHAR_DATA@@V?$allocator@U_CAPTION_CHAR_DATA@@@std@@@std@@QEAAXAEBU_CAPTION_CHAR_DATA@@@Z DD 0ffffffffH
	DD	imagerel ?dtor$0@?0??push_back@?$vector@U_CAPTION_CHAR_DATA@@V?$allocator@U_CAPTION_CHAR_DATA@@@std@@@std@@QEAAXAEBU_CAPTION_CHAR_DATA@@@Z@4HA
	DD	0ffffffffH
	DD	imagerel ?dtor$1@?0??push_back@?$vector@U_CAPTION_CHAR_DATA@@V?$allocator@U_CAPTION_CHAR_DATA@@@std@@@std@@QEAAXAEBU_CAPTION_CHAR_DATA@@@Z@4HA
xdata	ENDS
;	COMDAT CONST
CONST	SEGMENT
$cppxdata$?push_back@?$vector@U_CAPTION_CHAR_DATA@@V?$allocator@U_CAPTION_CHAR_DATA@@@std@@@std@@QEAAXAEBU_CAPTION_CHAR_DATA@@@Z DD 019930522H
	DD	02H
	DD	imagerel $stateUnwindMap$?push_back@?$vector@U_CAPTION_CHAR_DATA@@V?$allocator@U_CAPTION_CHAR_DATA@@@std@@@std@@QEAAXAEBU_CAPTION_CHAR_DATA@@@Z
	DD	00H
	DD	00H
	DD	05H
	DD	imagerel $ip2state$?push_back@?$vector@U_CAPTION_CHAR_DATA@@V?$allocator@U_CAPTION_CHAR_DATA@@@std@@@std@@QEAAXAEBU_CAPTION_CHAR_DATA@@@Z
	DD	020H
	DD	00H
	DD	01H
CONST	ENDS
;	COMDAT xdata
xdata	SEGMENT
$unwind$?push_back@?$vector@U_CAPTION_CHAR_DATA@@V?$allocator@U_CAPTION_CHAR_DATA@@@std@@@std@@QEAAXAEBU_CAPTION_CHAR_DATA@@@Z DD 041411H
	DD	0a3414H
	DD	070025206H
	DD	imagerel __CxxFrameHandler3
	DD	imagerel $cppxdata$?push_back@?$vector@U_CAPTION_CHAR_DATA@@V?$allocator@U_CAPTION_CHAR_DATA@@@std@@@std@@QEAAXAEBU_CAPTION_CHAR_DATA@@@Z
xdata	ENDS
;	COMDAT xdata
xdata	SEGMENT
$unwind$?push_back@?$vector@U_LANG_TAG_INFO@@V?$allocator@U_LANG_TAG_INFO@@@std@@@std@@QEAAXAEBU_LANG_TAG_INFO@@@Z DD 040a01H
	DD	06340aH
	DD	07006320aH
xdata	ENDS
;	COMDAT xdata
xdata	SEGMENT
$unwind$?dtor$2@?0??push_back@?$vector@U_CAPTION_DATA@@V?$allocator@U_CAPTION_DATA@@@std@@@std@@QEAAXAEBU_CAPTION_DATA@@@Z@4HA DD 020601H
	DD	050023206H
xdata	ENDS
;	COMDAT xdata
xdata	SEGMENT
$unwind$?dtor$0@?0??push_back@?$vector@U_CAPTION_DATA@@V?$allocator@U_CAPTION_DATA@@@std@@@std@@QEAAXAEBU_CAPTION_DATA@@@Z@4HA DD 020601H
	DD	050023206H
xdata	ENDS
;	COMDAT xdata
xdata	SEGMENT
$ip2state$?push_back@?$vector@U_CAPTION_DATA@@V?$allocator@U_CAPTION_DATA@@@std@@@std@@QEAAXAEBU_CAPTION_DATA@@@Z DD imagerel ?push_back@?$vector@U_CAPTION_DATA@@V?$allocator@U_CAPTION_DATA@@@std@@@std@@QEAAXAEBU_CAPTION_DATA@@@Z
	DD	0ffffffffH
	DD	imagerel ?push_back@?$vector@U_CAPTION_DATA@@V?$allocator@U_CAPTION_DATA@@@std@@@std@@QEAAXAEBU_CAPTION_DATA@@@Z+124
	DD	00H
	DD	imagerel ?push_back@?$vector@U_CAPTION_DATA@@V?$allocator@U_CAPTION_DATA@@@std@@@std@@QEAAXAEBU_CAPTION_DATA@@@Z+208
	DD	0ffffffffH
	DD	imagerel ?push_back@?$vector@U_CAPTION_DATA@@V?$allocator@U_CAPTION_DATA@@@std@@@std@@QEAAXAEBU_CAPTION_DATA@@@Z+238
	DD	01H
	DD	imagerel ?push_back@?$vector@U_CAPTION_DATA@@V?$allocator@U_CAPTION_DATA@@@std@@@std@@QEAAXAEBU_CAPTION_DATA@@@Z+322
	DD	0ffffffffH
xdata	ENDS
;	COMDAT xdata
xdata	SEGMENT
$stateUnwindMap$?push_back@?$vector@U_CAPTION_DATA@@V?$allocator@U_CAPTION_DATA@@@std@@@std@@QEAAXAEBU_CAPTION_DATA@@@Z DD 0ffffffffH
	DD	imagerel ?dtor$0@?0??push_back@?$vector@U_CAPTION_DATA@@V?$allocator@U_CAPTION_DATA@@@std@@@std@@QEAAXAEBU_CAPTION_DATA@@@Z@4HA
	DD	0ffffffffH
	DD	imagerel ?dtor$2@?0??push_back@?$vector@U_CAPTION_DATA@@V?$allocator@U_CAPTION_DATA@@@std@@@std@@QEAAXAEBU_CAPTION_DATA@@@Z@4HA
xdata	ENDS
;	COMDAT CONST
CONST	SEGMENT
$cppxdata$?push_back@?$vector@U_CAPTION_DATA@@V?$allocator@U_CAPTION_DATA@@@std@@@std@@QEAAXAEBU_CAPTION_DATA@@@Z DD 019930522H
	DD	02H
	DD	imagerel $stateUnwindMap$?push_back@?$vector@U_CAPTION_DATA@@V?$allocator@U_CAPTION_DATA@@@std@@@std@@QEAAXAEBU_CAPTION_DATA@@@Z
	DD	00H
	DD	00H
	DD	05H
	DD	imagerel $ip2state$?push_back@?$vector@U_CAPTION_DATA@@V?$allocator@U_CAPTION_DATA@@@std@@@std@@QEAAXAEBU_CAPTION_DATA@@@Z
	DD	020H
	DD	00H
	DD	01H
CONST	ENDS
;	COMDAT xdata
xdata	SEGMENT
$unwind$?push_back@?$vector@U_CAPTION_DATA@@V?$allocator@U_CAPTION_DATA@@@std@@@std@@QEAAXAEBU_CAPTION_DATA@@@Z DD 061911H
	DD	0b6419H
	DD	0a3414H
	DD	070025206H
	DD	imagerel __CxxFrameHandler3
	DD	imagerel $cppxdata$?push_back@?$vector@U_CAPTION_DATA@@V?$allocator@U_CAPTION_DATA@@@std@@@std@@QEAAXAEBU_CAPTION_DATA@@@Z
xdata	ENDS
;	COMDAT xdata
xdata	SEGMENT
$chain$2$?_Buy@?$vector@U_CAPTION_CHAR_DATA@@V?$allocator@U_CAPTION_CHAR_DATA@@@std@@@std@@IEAA_N_K@Z DD 020021H
	DD	067400H
	DD	imagerel $LN37
	DD	imagerel $LN37+56
	DD	imagerel $unwind$?_Buy@?$vector@U_CAPTION_CHAR_DATA@@V?$allocator@U_CAPTION_CHAR_DATA@@@std@@@std@@IEAA_N_K@Z
xdata	ENDS
;	COMDAT xdata
xdata	SEGMENT
$chain$1$?_Buy@?$vector@U_CAPTION_CHAR_DATA@@V?$allocator@U_CAPTION_CHAR_DATA@@@std@@@std@@IEAA_N_K@Z DD 021H
	DD	imagerel $LN37
	DD	imagerel $LN37+56
	DD	imagerel $unwind$?_Buy@?$vector@U_CAPTION_CHAR_DATA@@V?$allocator@U_CAPTION_CHAR_DATA@@@std@@@std@@IEAA_N_K@Z
xdata	ENDS
;	COMDAT xdata
xdata	SEGMENT
$chain$0$?_Buy@?$vector@U_CAPTION_CHAR_DATA@@V?$allocator@U_CAPTION_CHAR_DATA@@@std@@@std@@IEAA_N_K@Z DD 020521H
	DD	067405H
	DD	imagerel $LN37
	DD	imagerel $LN37+56
	DD	imagerel $unwind$?_Buy@?$vector@U_CAPTION_CHAR_DATA@@V?$allocator@U_CAPTION_CHAR_DATA@@@std@@@std@@IEAA_N_K@Z
xdata	ENDS
;	COMDAT xdata
xdata	SEGMENT
$unwind$?_Buy@?$vector@U_CAPTION_CHAR_DATA@@V?$allocator@U_CAPTION_CHAR_DATA@@@std@@@std@@IEAA_N_K@Z DD 020601H
	DD	030023206H
xdata	ENDS
;	COMDAT xdata
xdata	SEGMENT
$unwind$?_Reserve@?$vector@U_CAPTION_CHAR_DATA@@V?$allocator@U_CAPTION_CHAR_DATA@@@std@@@std@@IEAAX_K@Z DD 020601H
	DD	030023206H
xdata	ENDS
;	COMDAT xdata
xdata	SEGMENT
$unwind$?_Reserve@?$vector@U_LANG_TAG_INFO@@V?$allocator@U_LANG_TAG_INFO@@@std@@@std@@IEAAX_K@Z DD 020601H
	DD	030023206H
xdata	ENDS
;	COMDAT xdata
xdata	SEGMENT
$unwind$?_Reserve@?$vector@U_CAPTION_DATA@@V?$allocator@U_CAPTION_DATA@@@std@@@std@@IEAAX_K@Z DD 020601H
	DD	030023206H
xdata	ENDS
;	COMDAT xdata
xdata	SEGMENT
$unwind$?catch$0@?0??_Reallocate@?$vector@U_CAPTION_CHAR_DATA@@V?$allocator@U_CAPTION_CHAR_DATA@@@std@@@std@@IEAAX_K@Z@4HA DD 020a19H
	DD	05006520aH
	DD	imagerel __CxxFrameHandler3
	DD	imagerel $cppxdata$?_Reallocate@?$vector@U_CAPTION_CHAR_DATA@@V?$allocator@U_CAPTION_CHAR_DATA@@@std@@@std@@IEAAX_K@Z
xdata	ENDS
;	COMDAT xdata
xdata	SEGMENT
$ip2state$?_Reallocate@?$vector@U_CAPTION_CHAR_DATA@@V?$allocator@U_CAPTION_CHAR_DATA@@@std@@@std@@IEAAX_K@Z DD imagerel ?_Reallocate@?$vector@U_CAPTION_CHAR_DATA@@V?$allocator@U_CAPTION_CHAR_DATA@@@std@@@std@@IEAAX_K@Z
	DD	0ffffffffH
	DD	imagerel ?_Reallocate@?$vector@U_CAPTION_CHAR_DATA@@V?$allocator@U_CAPTION_CHAR_DATA@@@std@@@std@@IEAAX_K@Z+107
	DD	00H
	DD	imagerel ?_Reallocate@?$vector@U_CAPTION_CHAR_DATA@@V?$allocator@U_CAPTION_CHAR_DATA@@@std@@@std@@IEAAX_K@Z+123
	DD	0ffffffffH
	DD	imagerel ?catch$0@?0??_Reallocate@?$vector@U_CAPTION_CHAR_DATA@@V?$allocator@U_CAPTION_CHAR_DATA@@@std@@@std@@IEAAX_K@Z@4HA
	DD	00H
	DD	imagerel ?catch$0@?0??_Reallocate@?$vector@U_CAPTION_CHAR_DATA@@V?$allocator@U_CAPTION_CHAR_DATA@@@std@@@std@@IEAAX_K@Z@4HA+13
	DD	01H
xdata	ENDS
;	COMDAT xdata
xdata	SEGMENT
$handlerMap$0$?_Reallocate@?$vector@U_CAPTION_CHAR_DATA@@V?$allocator@U_CAPTION_CHAR_DATA@@@std@@@std@@IEAAX_K@Z DD 040H
	DD	00H
	DD	00H
	DD	imagerel ?catch$0@?0??_Reallocate@?$vector@U_CAPTION_CHAR_DATA@@V?$allocator@U_CAPTION_CHAR_DATA@@@std@@@std@@IEAAX_K@Z@4HA
	DD	048H
xdata	ENDS
;	COMDAT xdata
xdata	SEGMENT
$tryMap$?_Reallocate@?$vector@U_CAPTION_CHAR_DATA@@V?$allocator@U_CAPTION_CHAR_DATA@@@std@@@std@@IEAAX_K@Z DD 00H
	DD	00H
	DD	01H
	DD	01H
	DD	imagerel $handlerMap$0$?_Reallocate@?$vector@U_CAPTION_CHAR_DATA@@V?$allocator@U_CAPTION_CHAR_DATA@@@std@@@std@@IEAAX_K@Z
xdata	ENDS
;	COMDAT xdata
xdata	SEGMENT
$stateUnwindMap$?_Reallocate@?$vector@U_CAPTION_CHAR_DATA@@V?$allocator@U_CAPTION_CHAR_DATA@@@std@@@std@@IEAAX_K@Z DD 0ffffffffH
	DD	00H
	DD	0ffffffffH
	DD	00H
xdata	ENDS
;	COMDAT CONST
CONST	SEGMENT
$cppxdata$?_Reallocate@?$vector@U_CAPTION_CHAR_DATA@@V?$allocator@U_CAPTION_CHAR_DATA@@@std@@@std@@IEAAX_K@Z DD 019930522H
	DD	02H
	DD	imagerel $stateUnwindMap$?_Reallocate@?$vector@U_CAPTION_CHAR_DATA@@V?$allocator@U_CAPTION_CHAR_DATA@@@std@@@std@@IEAAX_K@Z
	DD	01H
	DD	imagerel $tryMap$?_Reallocate@?$vector@U_CAPTION_CHAR_DATA@@V?$allocator@U_CAPTION_CHAR_DATA@@@std@@@std@@IEAAX_K@Z
	DD	05H
	DD	imagerel $ip2state$?_Reallocate@?$vector@U_CAPTION_CHAR_DATA@@V?$allocator@U_CAPTION_CHAR_DATA@@@std@@@std@@IEAAX_K@Z
	DD	030H
	DD	00H
	DD	01H
CONST	ENDS
;	COMDAT xdata
xdata	SEGMENT
$unwind$?_Reallocate@?$vector@U_CAPTION_CHAR_DATA@@V?$allocator@U_CAPTION_CHAR_DATA@@@std@@@std@@IEAAX_K@Z DD 0a2419H
	DD	0106424H
	DD	0e341cH
	DD	0f00a720eH
	DD	0d006e008H
	DD	07002c004H
	DD	imagerel __CxxFrameHandler3
	DD	imagerel $cppxdata$?_Reallocate@?$vector@U_CAPTION_CHAR_DATA@@V?$allocator@U_CAPTION_CHAR_DATA@@@std@@@std@@IEAAX_K@Z
xdata	ENDS
;	COMDAT xdata
xdata	SEGMENT
$unwind$?_Xlen@?$vector@U_CAPTION_CHAR_DATA@@V?$allocator@U_CAPTION_CHAR_DATA@@@std@@@std@@IEBAXXZ DD 010401H
	DD	04204H
xdata	ENDS
;	COMDAT xdata
xdata	SEGMENT
$unwind$?allocate@?$_Wrap_alloc@V?$allocator@U_CAPTION_CHAR_DATA@@@std@@@std@@QEAAPEAU_CAPTION_CHAR_DATA@@_K@Z DD 010401H
	DD	04204H
xdata	ENDS
;	COMDAT xdata
xdata	SEGMENT
$unwind$?_Reallocate@?$vector@U_LANG_TAG_INFO@@V?$allocator@U_LANG_TAG_INFO@@@std@@@std@@IEAAX_K@Z DD 085601H
	DD	08e456H
	DD	0a640fH
	DD	09340fH
	DD	0700b520fH
xdata	ENDS
;	COMDAT xdata
xdata	SEGMENT
$unwind$?_Xlen@?$vector@U_LANG_TAG_INFO@@V?$allocator@U_LANG_TAG_INFO@@@std@@@std@@IEBAXXZ DD 010401H
	DD	04204H
xdata	ENDS
;	COMDAT xdata
xdata	SEGMENT
$unwind$?catch$0@?0??_Reallocate@?$vector@U_CAPTION_DATA@@V?$allocator@U_CAPTION_DATA@@@std@@@std@@IEAAX_K@Z@4HA DD 020a19H
	DD	05006520aH
	DD	imagerel __CxxFrameHandler3
	DD	imagerel $cppxdata$?_Reallocate@?$vector@U_CAPTION_DATA@@V?$allocator@U_CAPTION_DATA@@@std@@@std@@IEAAX_K@Z
xdata	ENDS
;	COMDAT xdata
xdata	SEGMENT
$ip2state$?_Reallocate@?$vector@U_CAPTION_DATA@@V?$allocator@U_CAPTION_DATA@@@std@@@std@@IEAAX_K@Z DD imagerel ?_Reallocate@?$vector@U_CAPTION_DATA@@V?$allocator@U_CAPTION_DATA@@@std@@@std@@IEAAX_K@Z
	DD	0ffffffffH
	DD	imagerel ?_Reallocate@?$vector@U_CAPTION_DATA@@V?$allocator@U_CAPTION_DATA@@@std@@@std@@IEAAX_K@Z+96
	DD	00H
	DD	imagerel ?_Reallocate@?$vector@U_CAPTION_DATA@@V?$allocator@U_CAPTION_DATA@@@std@@@std@@IEAAX_K@Z+112
	DD	0ffffffffH
	DD	imagerel ?catch$0@?0??_Reallocate@?$vector@U_CAPTION_DATA@@V?$allocator@U_CAPTION_DATA@@@std@@@std@@IEAAX_K@Z@4HA
	DD	00H
	DD	imagerel ?catch$0@?0??_Reallocate@?$vector@U_CAPTION_DATA@@V?$allocator@U_CAPTION_DATA@@@std@@@std@@IEAAX_K@Z@4HA+13
	DD	01H
xdata	ENDS
;	COMDAT xdata
xdata	SEGMENT
$handlerMap$0$?_Reallocate@?$vector@U_CAPTION_DATA@@V?$allocator@U_CAPTION_DATA@@@std@@@std@@IEAAX_K@Z DD 040H
	DD	00H
	DD	00H
	DD	imagerel ?catch$0@?0??_Reallocate@?$vector@U_CAPTION_DATA@@V?$allocator@U_CAPTION_DATA@@@std@@@std@@IEAAX_K@Z@4HA
	DD	048H
xdata	ENDS
;	COMDAT xdata
xdata	SEGMENT
$tryMap$?_Reallocate@?$vector@U_CAPTION_DATA@@V?$allocator@U_CAPTION_DATA@@@std@@@std@@IEAAX_K@Z DD 00H
	DD	00H
	DD	01H
	DD	01H
	DD	imagerel $handlerMap$0$?_Reallocate@?$vector@U_CAPTION_DATA@@V?$allocator@U_CAPTION_DATA@@@std@@@std@@IEAAX_K@Z
xdata	ENDS
;	COMDAT xdata
xdata	SEGMENT
$stateUnwindMap$?_Reallocate@?$vector@U_CAPTION_DATA@@V?$allocator@U_CAPTION_DATA@@@std@@@std@@IEAAX_K@Z DD 0ffffffffH
	DD	00H
	DD	0ffffffffH
	DD	00H
xdata	ENDS
;	COMDAT CONST
CONST	SEGMENT
$cppxdata$?_Reallocate@?$vector@U_CAPTION_DATA@@V?$allocator@U_CAPTION_DATA@@@std@@@std@@IEAAX_K@Z DD 019930522H
	DD	02H
	DD	imagerel $stateUnwindMap$?_Reallocate@?$vector@U_CAPTION_DATA@@V?$allocator@U_CAPTION_DATA@@@std@@@std@@IEAAX_K@Z
	DD	01H
	DD	imagerel $tryMap$?_Reallocate@?$vector@U_CAPTION_DATA@@V?$allocator@U_CAPTION_DATA@@@std@@@std@@IEAAX_K@Z
	DD	05H
	DD	imagerel $ip2state$?_Reallocate@?$vector@U_CAPTION_DATA@@V?$allocator@U_CAPTION_DATA@@@std@@@std@@IEAAX_K@Z
	DD	030H
	DD	00H
	DD	01H
CONST	ENDS
;	COMDAT xdata
xdata	SEGMENT
$unwind$?_Reallocate@?$vector@U_CAPTION_DATA@@V?$allocator@U_CAPTION_DATA@@@std@@@std@@IEAAX_K@Z DD 081e19H
	DD	0d741eH
	DD	0c6419H
	DD	0a3414H
	DD	0e0027206H
	DD	imagerel __CxxFrameHandler3
	DD	imagerel $cppxdata$?_Reallocate@?$vector@U_CAPTION_DATA@@V?$allocator@U_CAPTION_DATA@@@std@@@std@@IEAAX_K@Z
xdata	ENDS
;	COMDAT xdata
xdata	SEGMENT
$unwind$?_Xlen@?$vector@U_CAPTION_DATA@@V?$allocator@U_CAPTION_DATA@@@std@@@std@@IEBAXXZ DD 010401H
	DD	04204H
xdata	ENDS
;	COMDAT xdata
xdata	SEGMENT
$unwind$?allocate@?$allocator@U_CAPTION_CHAR_DATA@@@std@@QEAAPEAU_CAPTION_CHAR_DATA@@_K@Z DD 010401H
	DD	04204H
xdata	ENDS
;	COMDAT xdata
xdata	SEGMENT
$unwind$?allocate@?$_Wrap_alloc@V?$allocator@U_LANG_TAG_INFO@@@std@@@std@@QEAAPEAU_LANG_TAG_INFO@@_K@Z DD 010401H
	DD	04204H
xdata	ENDS
;	COMDAT xdata
xdata	SEGMENT
$unwind$?allocate@?$_Wrap_alloc@V?$allocator@U_CAPTION_DATA@@@std@@@std@@QEAAPEAU_CAPTION_DATA@@_K@Z DD 010401H
	DD	04204H
xdata	ENDS
;	COMDAT xdata
xdata	SEGMENT
$unwind$?allocate@?$allocator@U_LANG_TAG_INFO@@@std@@QEAAPEAU_LANG_TAG_INFO@@_K@Z DD 010401H
	DD	04204H
xdata	ENDS
;	COMDAT xdata
xdata	SEGMENT
$unwind$?allocate@?$allocator@U_CAPTION_DATA@@@std@@QEAAPEAU_CAPTION_DATA@@_K@Z DD 010401H
	DD	04204H
xdata	ENDS
;	COMDAT xdata
xdata	SEGMENT
$unwind$?dtor$0@?0???$construct@U_CAPTION_CHAR_DATA@@AEAU1@@?$_Wrap_alloc@V?$allocator@U_CAPTION_CHAR_DATA@@@std@@@std@@QEAAXPEAU_CAPTION_CHAR_DATA@@AEAU2@@Z@4HA DD 020601H
	DD	050023206H
xdata	ENDS
;	COMDAT xdata
xdata	SEGMENT
$ip2state$??$construct@U_CAPTION_CHAR_DATA@@AEAU1@@?$_Wrap_alloc@V?$allocator@U_CAPTION_CHAR_DATA@@@std@@@std@@QEAAXPEAU_CAPTION_CHAR_DATA@@AEAU2@@Z DD imagerel ??$construct@U_CAPTION_CHAR_DATA@@AEAU1@@?$_Wrap_alloc@V?$allocator@U_CAPTION_CHAR_DATA@@@std@@@std@@QEAAXPEAU_CAPTION_CHAR_DATA@@AEAU2@@Z
	DD	0ffffffffH
	DD	imagerel ??$construct@U_CAPTION_CHAR_DATA@@AEAU1@@?$_Wrap_alloc@V?$allocator@U_CAPTION_CHAR_DATA@@@std@@@std@@QEAAXPEAU_CAPTION_CHAR_DATA@@AEAU2@@Z+31
	DD	00H
	DD	imagerel ??$construct@U_CAPTION_CHAR_DATA@@AEAU1@@?$_Wrap_alloc@V?$allocator@U_CAPTION_CHAR_DATA@@@std@@@std@@QEAAXPEAU_CAPTION_CHAR_DATA@@AEAU2@@Z+48
	DD	0ffffffffH
xdata	ENDS
;	COMDAT xdata
xdata	SEGMENT
$stateUnwindMap$??$construct@U_CAPTION_CHAR_DATA@@AEAU1@@?$_Wrap_alloc@V?$allocator@U_CAPTION_CHAR_DATA@@@std@@@std@@QEAAXPEAU_CAPTION_CHAR_DATA@@AEAU2@@Z DD 0ffffffffH
	DD	imagerel ?dtor$0@?0???$construct@U_CAPTION_CHAR_DATA@@AEAU1@@?$_Wrap_alloc@V?$allocator@U_CAPTION_CHAR_DATA@@@std@@@std@@QEAAXPEAU_CAPTION_CHAR_DATA@@AEAU2@@Z@4HA
xdata	ENDS
;	COMDAT CONST
CONST	SEGMENT
$cppxdata$??$construct@U_CAPTION_CHAR_DATA@@AEAU1@@?$_Wrap_alloc@V?$allocator@U_CAPTION_CHAR_DATA@@@std@@@std@@QEAAXPEAU_CAPTION_CHAR_DATA@@AEAU2@@Z DD 019930522H
	DD	01H
	DD	imagerel $stateUnwindMap$??$construct@U_CAPTION_CHAR_DATA@@AEAU1@@?$_Wrap_alloc@V?$allocator@U_CAPTION_CHAR_DATA@@@std@@@std@@QEAAXPEAU_CAPTION_CHAR_DATA@@AEAU2@@Z
	DD	00H
	DD	00H
	DD	03H
	DD	imagerel $ip2state$??$construct@U_CAPTION_CHAR_DATA@@AEAU1@@?$_Wrap_alloc@V?$allocator@U_CAPTION_CHAR_DATA@@@std@@@std@@QEAAXPEAU_CAPTION_CHAR_DATA@@AEAU2@@Z
	DD	020H
	DD	00H
	DD	01H
CONST	ENDS
;	COMDAT xdata
xdata	SEGMENT
$unwind$??$construct@U_CAPTION_CHAR_DATA@@AEAU1@@?$_Wrap_alloc@V?$allocator@U_CAPTION_CHAR_DATA@@@std@@@std@@QEAAXPEAU_CAPTION_CHAR_DATA@@AEAU2@@Z DD 011711H
	DD	0620eH
	DD	imagerel __CxxFrameHandler3
	DD	imagerel $cppxdata$??$construct@U_CAPTION_CHAR_DATA@@AEAU1@@?$_Wrap_alloc@V?$allocator@U_CAPTION_CHAR_DATA@@@std@@@std@@QEAAXPEAU_CAPTION_CHAR_DATA@@AEAU2@@Z
xdata	ENDS
;	COMDAT xdata
xdata	SEGMENT
$unwind$?dtor$0@?0???$construct@U_CAPTION_CHAR_DATA@@AEBU1@@?$_Wrap_alloc@V?$allocator@U_CAPTION_CHAR_DATA@@@std@@@std@@QEAAXPEAU_CAPTION_CHAR_DATA@@AEBU2@@Z@4HA DD 020601H
	DD	050023206H
xdata	ENDS
;	COMDAT xdata
xdata	SEGMENT
$ip2state$??$construct@U_CAPTION_CHAR_DATA@@AEBU1@@?$_Wrap_alloc@V?$allocator@U_CAPTION_CHAR_DATA@@@std@@@std@@QEAAXPEAU_CAPTION_CHAR_DATA@@AEBU2@@Z DD imagerel ??$construct@U_CAPTION_CHAR_DATA@@AEBU1@@?$_Wrap_alloc@V?$allocator@U_CAPTION_CHAR_DATA@@@std@@@std@@QEAAXPEAU_CAPTION_CHAR_DATA@@AEBU2@@Z
	DD	0ffffffffH
	DD	imagerel ??$construct@U_CAPTION_CHAR_DATA@@AEBU1@@?$_Wrap_alloc@V?$allocator@U_CAPTION_CHAR_DATA@@@std@@@std@@QEAAXPEAU_CAPTION_CHAR_DATA@@AEBU2@@Z+31
	DD	00H
	DD	imagerel ??$construct@U_CAPTION_CHAR_DATA@@AEBU1@@?$_Wrap_alloc@V?$allocator@U_CAPTION_CHAR_DATA@@@std@@@std@@QEAAXPEAU_CAPTION_CHAR_DATA@@AEBU2@@Z+48
	DD	0ffffffffH
xdata	ENDS
;	COMDAT xdata
xdata	SEGMENT
$stateUnwindMap$??$construct@U_CAPTION_CHAR_DATA@@AEBU1@@?$_Wrap_alloc@V?$allocator@U_CAPTION_CHAR_DATA@@@std@@@std@@QEAAXPEAU_CAPTION_CHAR_DATA@@AEBU2@@Z DD 0ffffffffH
	DD	imagerel ?dtor$0@?0???$construct@U_CAPTION_CHAR_DATA@@AEBU1@@?$_Wrap_alloc@V?$allocator@U_CAPTION_CHAR_DATA@@@std@@@std@@QEAAXPEAU_CAPTION_CHAR_DATA@@AEBU2@@Z@4HA
xdata	ENDS
;	COMDAT CONST
CONST	SEGMENT
$cppxdata$??$construct@U_CAPTION_CHAR_DATA@@AEBU1@@?$_Wrap_alloc@V?$allocator@U_CAPTION_CHAR_DATA@@@std@@@std@@QEAAXPEAU_CAPTION_CHAR_DATA@@AEBU2@@Z DD 019930522H
	DD	01H
	DD	imagerel $stateUnwindMap$??$construct@U_CAPTION_CHAR_DATA@@AEBU1@@?$_Wrap_alloc@V?$allocator@U_CAPTION_CHAR_DATA@@@std@@@std@@QEAAXPEAU_CAPTION_CHAR_DATA@@AEBU2@@Z
	DD	00H
	DD	00H
	DD	03H
	DD	imagerel $ip2state$??$construct@U_CAPTION_CHAR_DATA@@AEBU1@@?$_Wrap_alloc@V?$allocator@U_CAPTION_CHAR_DATA@@@std@@@std@@QEAAXPEAU_CAPTION_CHAR_DATA@@AEBU2@@Z
	DD	020H
	DD	00H
	DD	01H
CONST	ENDS
;	COMDAT xdata
xdata	SEGMENT
$unwind$??$construct@U_CAPTION_CHAR_DATA@@AEBU1@@?$_Wrap_alloc@V?$allocator@U_CAPTION_CHAR_DATA@@@std@@@std@@QEAAXPEAU_CAPTION_CHAR_DATA@@AEBU2@@Z DD 011711H
	DD	0620eH
	DD	imagerel __CxxFrameHandler3
	DD	imagerel $cppxdata$??$construct@U_CAPTION_CHAR_DATA@@AEBU1@@?$_Wrap_alloc@V?$allocator@U_CAPTION_CHAR_DATA@@@std@@@std@@QEAAXPEAU_CAPTION_CHAR_DATA@@AEBU2@@Z
xdata	ENDS
;	COMDAT xdata
xdata	SEGMENT
$unwind$?dtor$0@?0???$construct@U_CAPTION_DATA@@AEAU1@@?$_Wrap_alloc@V?$allocator@U_CAPTION_DATA@@@std@@@std@@QEAAXPEAU_CAPTION_DATA@@AEAU2@@Z@4HA DD 020601H
	DD	050023206H
xdata	ENDS
;	COMDAT xdata
xdata	SEGMENT
$ip2state$??$construct@U_CAPTION_DATA@@AEAU1@@?$_Wrap_alloc@V?$allocator@U_CAPTION_DATA@@@std@@@std@@QEAAXPEAU_CAPTION_DATA@@AEAU2@@Z DD imagerel ??$construct@U_CAPTION_DATA@@AEAU1@@?$_Wrap_alloc@V?$allocator@U_CAPTION_DATA@@@std@@@std@@QEAAXPEAU_CAPTION_DATA@@AEAU2@@Z
	DD	0ffffffffH
	DD	imagerel ??$construct@U_CAPTION_DATA@@AEAU1@@?$_Wrap_alloc@V?$allocator@U_CAPTION_DATA@@@std@@@std@@QEAAXPEAU_CAPTION_DATA@@AEAU2@@Z+40
	DD	00H
	DD	imagerel ??$construct@U_CAPTION_DATA@@AEAU1@@?$_Wrap_alloc@V?$allocator@U_CAPTION_DATA@@@std@@@std@@QEAAXPEAU_CAPTION_DATA@@AEAU2@@Z+132
	DD	0ffffffffH
xdata	ENDS
;	COMDAT xdata
xdata	SEGMENT
$stateUnwindMap$??$construct@U_CAPTION_DATA@@AEAU1@@?$_Wrap_alloc@V?$allocator@U_CAPTION_DATA@@@std@@@std@@QEAAXPEAU_CAPTION_DATA@@AEAU2@@Z DD 0ffffffffH
	DD	imagerel ?dtor$0@?0???$construct@U_CAPTION_DATA@@AEAU1@@?$_Wrap_alloc@V?$allocator@U_CAPTION_DATA@@@std@@@std@@QEAAXPEAU_CAPTION_DATA@@AEAU2@@Z@4HA
xdata	ENDS
;	COMDAT CONST
CONST	SEGMENT
$cppxdata$??$construct@U_CAPTION_DATA@@AEAU1@@?$_Wrap_alloc@V?$allocator@U_CAPTION_DATA@@@std@@@std@@QEAAXPEAU_CAPTION_DATA@@AEAU2@@Z DD 019930522H
	DD	01H
	DD	imagerel $stateUnwindMap$??$construct@U_CAPTION_DATA@@AEAU1@@?$_Wrap_alloc@V?$allocator@U_CAPTION_DATA@@@std@@@std@@QEAAXPEAU_CAPTION_DATA@@AEAU2@@Z
	DD	00H
	DD	00H
	DD	03H
	DD	imagerel $ip2state$??$construct@U_CAPTION_DATA@@AEAU1@@?$_Wrap_alloc@V?$allocator@U_CAPTION_DATA@@@std@@@std@@QEAAXPEAU_CAPTION_DATA@@AEAU2@@Z
	DD	020H
	DD	00H
	DD	01H
CONST	ENDS
;	COMDAT xdata
xdata	SEGMENT
$unwind$??$construct@U_CAPTION_DATA@@AEAU1@@?$_Wrap_alloc@V?$allocator@U_CAPTION_DATA@@@std@@@std@@QEAAXPEAU_CAPTION_DATA@@AEAU2@@Z DD 041d11H
	DD	0a341dH
	DD	0700b520fH
	DD	imagerel __CxxFrameHandler3
	DD	imagerel $cppxdata$??$construct@U_CAPTION_DATA@@AEAU1@@?$_Wrap_alloc@V?$allocator@U_CAPTION_DATA@@@std@@@std@@QEAAXPEAU_CAPTION_DATA@@AEAU2@@Z
xdata	ENDS
;	COMDAT xdata
xdata	SEGMENT
$unwind$??$_Umove@PEAU_CAPTION_CHAR_DATA@@@?$vector@U_CAPTION_CHAR_DATA@@V?$allocator@U_CAPTION_CHAR_DATA@@@std@@@std@@IEAAPEAU_CAPTION_CHAR_DATA@@PEAU2@00@Z DD 010401H
	DD	06204H
xdata	ENDS
;	COMDAT xdata
xdata	SEGMENT
$unwind$??$_Umove@PEAU_LANG_TAG_INFO@@@?$vector@U_LANG_TAG_INFO@@V?$allocator@U_LANG_TAG_INFO@@@std@@@std@@IEAAPEAU_LANG_TAG_INFO@@PEAU2@00@Z DD 010401H
	DD	06204H
xdata	ENDS
;	COMDAT xdata
xdata	SEGMENT
$unwind$??$_Umove@PEAU_CAPTION_DATA@@@?$vector@U_CAPTION_DATA@@V?$allocator@U_CAPTION_DATA@@@std@@@std@@IEAAPEAU_CAPTION_DATA@@PEAU2@00@Z DD 010401H
	DD	06204H
xdata	ENDS
;	COMDAT xdata
xdata	SEGMENT
$unwind$??$_Allocate@U_CAPTION_CHAR_DATA@@@std@@YAPEAU_CAPTION_CHAR_DATA@@_KPEAU1@@Z DD 010401H
	DD	04204H
xdata	ENDS
;	COMDAT xdata
xdata	SEGMENT
$unwind$??$_Allocate@U_LANG_TAG_INFO@@@std@@YAPEAU_LANG_TAG_INFO@@_KPEAU1@@Z DD 010401H
	DD	04204H
xdata	ENDS
;	COMDAT xdata
xdata	SEGMENT
$unwind$??$_Allocate@U_CAPTION_DATA@@@std@@YAPEAU_CAPTION_DATA@@_KPEAU1@@Z DD 010401H
	DD	04204H
xdata	ENDS
;	COMDAT xdata
xdata	SEGMENT
$unwind$?dtor$0@?0???$construct@U_CAPTION_CHAR_DATA@@AEAU1@@?$allocator_traits@V?$allocator@U_CAPTION_CHAR_DATA@@@std@@@std@@SAXAEAV?$allocator@U_CAPTION_CHAR_DATA@@@1@PEAU_CAPTION_CHAR_DATA@@AEAU3@@Z@4HA DD 020601H
	DD	050023206H
xdata	ENDS
;	COMDAT xdata
xdata	SEGMENT
$ip2state$??$construct@U_CAPTION_CHAR_DATA@@AEAU1@@?$allocator_traits@V?$allocator@U_CAPTION_CHAR_DATA@@@std@@@std@@SAXAEAV?$allocator@U_CAPTION_CHAR_DATA@@@1@PEAU_CAPTION_CHAR_DATA@@AEAU3@@Z DD imagerel ??$construct@U_CAPTION_CHAR_DATA@@AEAU1@@?$allocator_traits@V?$allocator@U_CAPTION_CHAR_DATA@@@std@@@std@@SAXAEAV?$allocator@U_CAPTION_CHAR_DATA@@@1@PEAU_CAPTION_CHAR_DATA@@AEAU3@@Z
	DD	0ffffffffH
	DD	imagerel ??$construct@U_CAPTION_CHAR_DATA@@AEAU1@@?$allocator_traits@V?$allocator@U_CAPTION_CHAR_DATA@@@std@@@std@@SAXAEAV?$allocator@U_CAPTION_CHAR_DATA@@@1@PEAU_CAPTION_CHAR_DATA@@AEAU3@@Z+31
	DD	00H
	DD	imagerel ??$construct@U_CAPTION_CHAR_DATA@@AEAU1@@?$allocator_traits@V?$allocator@U_CAPTION_CHAR_DATA@@@std@@@std@@SAXAEAV?$allocator@U_CAPTION_CHAR_DATA@@@1@PEAU_CAPTION_CHAR_DATA@@AEAU3@@Z+48
	DD	0ffffffffH
xdata	ENDS
;	COMDAT xdata
xdata	SEGMENT
$stateUnwindMap$??$construct@U_CAPTION_CHAR_DATA@@AEAU1@@?$allocator_traits@V?$allocator@U_CAPTION_CHAR_DATA@@@std@@@std@@SAXAEAV?$allocator@U_CAPTION_CHAR_DATA@@@1@PEAU_CAPTION_CHAR_DATA@@AEAU3@@Z DD 0ffffffffH
	DD	imagerel ?dtor$0@?0???$construct@U_CAPTION_CHAR_DATA@@AEAU1@@?$allocator_traits@V?$allocator@U_CAPTION_CHAR_DATA@@@std@@@std@@SAXAEAV?$allocator@U_CAPTION_CHAR_DATA@@@1@PEAU_CAPTION_CHAR_DATA@@AEAU3@@Z@4HA
xdata	ENDS
;	COMDAT CONST
CONST	SEGMENT
$cppxdata$??$construct@U_CAPTION_CHAR_DATA@@AEAU1@@?$allocator_traits@V?$allocator@U_CAPTION_CHAR_DATA@@@std@@@std@@SAXAEAV?$allocator@U_CAPTION_CHAR_DATA@@@1@PEAU_CAPTION_CHAR_DATA@@AEAU3@@Z DD 019930522H
	DD	01H
	DD	imagerel $stateUnwindMap$??$construct@U_CAPTION_CHAR_DATA@@AEAU1@@?$allocator_traits@V?$allocator@U_CAPTION_CHAR_DATA@@@std@@@std@@SAXAEAV?$allocator@U_CAPTION_CHAR_DATA@@@1@PEAU_CAPTION_CHAR_DATA@@AEAU3@@Z
	DD	00H
	DD	00H
	DD	03H
	DD	imagerel $ip2state$??$construct@U_CAPTION_CHAR_DATA@@AEAU1@@?$allocator_traits@V?$allocator@U_CAPTION_CHAR_DATA@@@std@@@std@@SAXAEAV?$allocator@U_CAPTION_CHAR_DATA@@@1@PEAU_CAPTION_CHAR_DATA@@AEAU3@@Z
	DD	020H
	DD	00H
	DD	01H
CONST	ENDS
;	COMDAT xdata
xdata	SEGMENT
$unwind$??$construct@U_CAPTION_CHAR_DATA@@AEAU1@@?$allocator_traits@V?$allocator@U_CAPTION_CHAR_DATA@@@std@@@std@@SAXAEAV?$allocator@U_CAPTION_CHAR_DATA@@@1@PEAU_CAPTION_CHAR_DATA@@AEAU3@@Z DD 011711H
	DD	0620eH
	DD	imagerel __CxxFrameHandler3
	DD	imagerel $cppxdata$??$construct@U_CAPTION_CHAR_DATA@@AEAU1@@?$allocator_traits@V?$allocator@U_CAPTION_CHAR_DATA@@@std@@@std@@SAXAEAV?$allocator@U_CAPTION_CHAR_DATA@@@1@PEAU_CAPTION_CHAR_DATA@@AEAU3@@Z
xdata	ENDS
;	COMDAT xdata
xdata	SEGMENT
$unwind$?dtor$0@?0???$construct@U_CAPTION_CHAR_DATA@@AEBU1@@?$allocator_traits@V?$allocator@U_CAPTION_CHAR_DATA@@@std@@@std@@SAXAEAV?$allocator@U_CAPTION_CHAR_DATA@@@1@PEAU_CAPTION_CHAR_DATA@@AEBU3@@Z@4HA DD 020601H
	DD	050023206H
xdata	ENDS
;	COMDAT xdata
xdata	SEGMENT
$ip2state$??$construct@U_CAPTION_CHAR_DATA@@AEBU1@@?$allocator_traits@V?$allocator@U_CAPTION_CHAR_DATA@@@std@@@std@@SAXAEAV?$allocator@U_CAPTION_CHAR_DATA@@@1@PEAU_CAPTION_CHAR_DATA@@AEBU3@@Z DD imagerel ??$construct@U_CAPTION_CHAR_DATA@@AEBU1@@?$allocator_traits@V?$allocator@U_CAPTION_CHAR_DATA@@@std@@@std@@SAXAEAV?$allocator@U_CAPTION_CHAR_DATA@@@1@PEAU_CAPTION_CHAR_DATA@@AEBU3@@Z
	DD	0ffffffffH
	DD	imagerel ??$construct@U_CAPTION_CHAR_DATA@@AEBU1@@?$allocator_traits@V?$allocator@U_CAPTION_CHAR_DATA@@@std@@@std@@SAXAEAV?$allocator@U_CAPTION_CHAR_DATA@@@1@PEAU_CAPTION_CHAR_DATA@@AEBU3@@Z+31
	DD	00H
	DD	imagerel ??$construct@U_CAPTION_CHAR_DATA@@AEBU1@@?$allocator_traits@V?$allocator@U_CAPTION_CHAR_DATA@@@std@@@std@@SAXAEAV?$allocator@U_CAPTION_CHAR_DATA@@@1@PEAU_CAPTION_CHAR_DATA@@AEBU3@@Z+48
	DD	0ffffffffH
xdata	ENDS
;	COMDAT xdata
xdata	SEGMENT
$stateUnwindMap$??$construct@U_CAPTION_CHAR_DATA@@AEBU1@@?$allocator_traits@V?$allocator@U_CAPTION_CHAR_DATA@@@std@@@std@@SAXAEAV?$allocator@U_CAPTION_CHAR_DATA@@@1@PEAU_CAPTION_CHAR_DATA@@AEBU3@@Z DD 0ffffffffH
	DD	imagerel ?dtor$0@?0???$construct@U_CAPTION_CHAR_DATA@@AEBU1@@?$allocator_traits@V?$allocator@U_CAPTION_CHAR_DATA@@@std@@@std@@SAXAEAV?$allocator@U_CAPTION_CHAR_DATA@@@1@PEAU_CAPTION_CHAR_DATA@@AEBU3@@Z@4HA
xdata	ENDS
;	COMDAT CONST
CONST	SEGMENT
$cppxdata$??$construct@U_CAPTION_CHAR_DATA@@AEBU1@@?$allocator_traits@V?$allocator@U_CAPTION_CHAR_DATA@@@std@@@std@@SAXAEAV?$allocator@U_CAPTION_CHAR_DATA@@@1@PEAU_CAPTION_CHAR_DATA@@AEBU3@@Z DD 019930522H
	DD	01H
	DD	imagerel $stateUnwindMap$??$construct@U_CAPTION_CHAR_DATA@@AEBU1@@?$allocator_traits@V?$allocator@U_CAPTION_CHAR_DATA@@@std@@@std@@SAXAEAV?$allocator@U_CAPTION_CHAR_DATA@@@1@PEAU_CAPTION_CHAR_DATA@@AEBU3@@Z
	DD	00H
	DD	00H
	DD	03H
	DD	imagerel $ip2state$??$construct@U_CAPTION_CHAR_DATA@@AEBU1@@?$allocator_traits@V?$allocator@U_CAPTION_CHAR_DATA@@@std@@@std@@SAXAEAV?$allocator@U_CAPTION_CHAR_DATA@@@1@PEAU_CAPTION_CHAR_DATA@@AEBU3@@Z
	DD	020H
	DD	00H
	DD	01H
CONST	ENDS
;	COMDAT xdata
xdata	SEGMENT
$unwind$??$construct@U_CAPTION_CHAR_DATA@@AEBU1@@?$allocator_traits@V?$allocator@U_CAPTION_CHAR_DATA@@@std@@@std@@SAXAEAV?$allocator@U_CAPTION_CHAR_DATA@@@1@PEAU_CAPTION_CHAR_DATA@@AEBU3@@Z DD 011711H
	DD	0620eH
	DD	imagerel __CxxFrameHandler3
	DD	imagerel $cppxdata$??$construct@U_CAPTION_CHAR_DATA@@AEBU1@@?$allocator_traits@V?$allocator@U_CAPTION_CHAR_DATA@@@std@@@std@@SAXAEAV?$allocator@U_CAPTION_CHAR_DATA@@@1@PEAU_CAPTION_CHAR_DATA@@AEBU3@@Z
xdata	ENDS
;	COMDAT xdata
xdata	SEGMENT
$unwind$?dtor$0@?0???$construct@U_CAPTION_DATA@@AEAU1@@?$allocator_traits@V?$allocator@U_CAPTION_DATA@@@std@@@std@@SAXAEAV?$allocator@U_CAPTION_DATA@@@1@PEAU_CAPTION_DATA@@AEAU3@@Z@4HA DD 020601H
	DD	050023206H
xdata	ENDS
;	COMDAT xdata
xdata	SEGMENT
$ip2state$??$construct@U_CAPTION_DATA@@AEAU1@@?$allocator_traits@V?$allocator@U_CAPTION_DATA@@@std@@@std@@SAXAEAV?$allocator@U_CAPTION_DATA@@@1@PEAU_CAPTION_DATA@@AEAU3@@Z DD imagerel ??$construct@U_CAPTION_DATA@@AEAU1@@?$allocator_traits@V?$allocator@U_CAPTION_DATA@@@std@@@std@@SAXAEAV?$allocator@U_CAPTION_DATA@@@1@PEAU_CAPTION_DATA@@AEAU3@@Z
	DD	0ffffffffH
	DD	imagerel ??$construct@U_CAPTION_DATA@@AEAU1@@?$allocator_traits@V?$allocator@U_CAPTION_DATA@@@std@@@std@@SAXAEAV?$allocator@U_CAPTION_DATA@@@1@PEAU_CAPTION_DATA@@AEAU3@@Z+40
	DD	00H
	DD	imagerel ??$construct@U_CAPTION_DATA@@AEAU1@@?$allocator_traits@V?$allocator@U_CAPTION_DATA@@@std@@@std@@SAXAEAV?$allocator@U_CAPTION_DATA@@@1@PEAU_CAPTION_DATA@@AEAU3@@Z+132
	DD	0ffffffffH
xdata	ENDS
;	COMDAT xdata
xdata	SEGMENT
$stateUnwindMap$??$construct@U_CAPTION_DATA@@AEAU1@@?$allocator_traits@V?$allocator@U_CAPTION_DATA@@@std@@@std@@SAXAEAV?$allocator@U_CAPTION_DATA@@@1@PEAU_CAPTION_DATA@@AEAU3@@Z DD 0ffffffffH
	DD	imagerel ?dtor$0@?0???$construct@U_CAPTION_DATA@@AEAU1@@?$allocator_traits@V?$allocator@U_CAPTION_DATA@@@std@@@std@@SAXAEAV?$allocator@U_CAPTION_DATA@@@1@PEAU_CAPTION_DATA@@AEAU3@@Z@4HA
xdata	ENDS
;	COMDAT CONST
CONST	SEGMENT
$cppxdata$??$construct@U_CAPTION_DATA@@AEAU1@@?$allocator_traits@V?$allocator@U_CAPTION_DATA@@@std@@@std@@SAXAEAV?$allocator@U_CAPTION_DATA@@@1@PEAU_CAPTION_DATA@@AEAU3@@Z DD 019930522H
	DD	01H
	DD	imagerel $stateUnwindMap$??$construct@U_CAPTION_DATA@@AEAU1@@?$allocator_traits@V?$allocator@U_CAPTION_DATA@@@std@@@std@@SAXAEAV?$allocator@U_CAPTION_DATA@@@1@PEAU_CAPTION_DATA@@AEAU3@@Z
	DD	00H
	DD	00H
	DD	03H
	DD	imagerel $ip2state$??$construct@U_CAPTION_DATA@@AEAU1@@?$allocator_traits@V?$allocator@U_CAPTION_DATA@@@std@@@std@@SAXAEAV?$allocator@U_CAPTION_DATA@@@1@PEAU_CAPTION_DATA@@AEAU3@@Z
	DD	020H
	DD	00H
	DD	01H
CONST	ENDS
;	COMDAT xdata
xdata	SEGMENT
$unwind$??$construct@U_CAPTION_DATA@@AEAU1@@?$allocator_traits@V?$allocator@U_CAPTION_DATA@@@std@@@std@@SAXAEAV?$allocator@U_CAPTION_DATA@@@1@PEAU_CAPTION_DATA@@AEAU3@@Z DD 041d11H
	DD	0a341dH
	DD	0700b520fH
	DD	imagerel __CxxFrameHandler3
	DD	imagerel $cppxdata$??$construct@U_CAPTION_DATA@@AEAU1@@?$allocator_traits@V?$allocator@U_CAPTION_DATA@@@std@@@std@@SAXAEAV?$allocator@U_CAPTION_DATA@@@1@PEAU_CAPTION_DATA@@AEAU3@@Z
xdata	ENDS
;	COMDAT xdata
xdata	SEGMENT
$unwind$??$_Uninitialized_move@PEAU_CAPTION_CHAR_DATA@@PEAU1@U?$_Wrap_alloc@V?$allocator@U_CAPTION_CHAR_DATA@@@std@@@std@@@std@@YAPEAU_CAPTION_CHAR_DATA@@PEAU1@00AEAU?$_Wrap_alloc@V?$allocator@U_CAPTION_CHAR_DATA@@@std@@@0@@Z DD 010401H
	DD	06204H
xdata	ENDS
;	COMDAT xdata
xdata	SEGMENT
$unwind$??$_Uninitialized_move@PEAU_LANG_TAG_INFO@@PEAU1@U?$_Wrap_alloc@V?$allocator@U_LANG_TAG_INFO@@@std@@@std@@@std@@YAPEAU_LANG_TAG_INFO@@PEAU1@00AEAU?$_Wrap_alloc@V?$allocator@U_LANG_TAG_INFO@@@std@@@0@@Z DD 010401H
	DD	06204H
xdata	ENDS
;	COMDAT xdata
xdata	SEGMENT
$unwind$??$_Uninitialized_move@PEAU_CAPTION_DATA@@PEAU1@U?$_Wrap_alloc@V?$allocator@U_CAPTION_DATA@@@std@@@std@@@std@@YAPEAU_CAPTION_DATA@@PEAU1@00AEAU?$_Wrap_alloc@V?$allocator@U_CAPTION_DATA@@@std@@@0@@Z DD 010401H
	DD	06204H
xdata	ENDS
;	COMDAT xdata
xdata	SEGMENT
$unwind$?dtor$0@?0??construct@?$allocator@U_CAPTION_CHAR_DATA@@@std@@QEAAXPEAU_CAPTION_CHAR_DATA@@AEBU3@@Z@4HA DD 020601H
	DD	050023206H
xdata	ENDS
;	COMDAT xdata
xdata	SEGMENT
$ip2state$?construct@?$allocator@U_CAPTION_CHAR_DATA@@@std@@QEAAXPEAU_CAPTION_CHAR_DATA@@AEBU3@@Z DD imagerel ?construct@?$allocator@U_CAPTION_CHAR_DATA@@@std@@QEAAXPEAU_CAPTION_CHAR_DATA@@AEBU3@@Z
	DD	0ffffffffH
	DD	imagerel ?construct@?$allocator@U_CAPTION_CHAR_DATA@@@std@@QEAAXPEAU_CAPTION_CHAR_DATA@@AEBU3@@Z+31
	DD	00H
	DD	imagerel ?construct@?$allocator@U_CAPTION_CHAR_DATA@@@std@@QEAAXPEAU_CAPTION_CHAR_DATA@@AEBU3@@Z+48
	DD	0ffffffffH
xdata	ENDS
;	COMDAT xdata
xdata	SEGMENT
$stateUnwindMap$?construct@?$allocator@U_CAPTION_CHAR_DATA@@@std@@QEAAXPEAU_CAPTION_CHAR_DATA@@AEBU3@@Z DD 0ffffffffH
	DD	imagerel ?dtor$0@?0??construct@?$allocator@U_CAPTION_CHAR_DATA@@@std@@QEAAXPEAU_CAPTION_CHAR_DATA@@AEBU3@@Z@4HA
xdata	ENDS
;	COMDAT CONST
CONST	SEGMENT
$cppxdata$?construct@?$allocator@U_CAPTION_CHAR_DATA@@@std@@QEAAXPEAU_CAPTION_CHAR_DATA@@AEBU3@@Z DD 019930522H
	DD	01H
	DD	imagerel $stateUnwindMap$?construct@?$allocator@U_CAPTION_CHAR_DATA@@@std@@QEAAXPEAU_CAPTION_CHAR_DATA@@AEBU3@@Z
	DD	00H
	DD	00H
	DD	03H
	DD	imagerel $ip2state$?construct@?$allocator@U_CAPTION_CHAR_DATA@@@std@@QEAAXPEAU_CAPTION_CHAR_DATA@@AEBU3@@Z
	DD	020H
	DD	00H
	DD	01H
CONST	ENDS
;	COMDAT xdata
xdata	SEGMENT
$unwind$?construct@?$allocator@U_CAPTION_CHAR_DATA@@@std@@QEAAXPEAU_CAPTION_CHAR_DATA@@AEBU3@@Z DD 011711H
	DD	0620eH
	DD	imagerel __CxxFrameHandler3
	DD	imagerel $cppxdata$?construct@?$allocator@U_CAPTION_CHAR_DATA@@@std@@QEAAXPEAU_CAPTION_CHAR_DATA@@AEBU3@@Z
xdata	ENDS
;	COMDAT xdata
xdata	SEGMENT
$unwind$?dtor$0@?0??construct@?$allocator@U_CAPTION_DATA@@@std@@QEAAXPEAU_CAPTION_DATA@@AEBU3@@Z@4HA DD 020601H
	DD	050023206H
xdata	ENDS
;	COMDAT xdata
xdata	SEGMENT
$ip2state$?construct@?$allocator@U_CAPTION_DATA@@@std@@QEAAXPEAU_CAPTION_DATA@@AEBU3@@Z DD imagerel ?construct@?$allocator@U_CAPTION_DATA@@@std@@QEAAXPEAU_CAPTION_DATA@@AEBU3@@Z
	DD	0ffffffffH
	DD	imagerel ?construct@?$allocator@U_CAPTION_DATA@@@std@@QEAAXPEAU_CAPTION_DATA@@AEBU3@@Z+40
	DD	00H
	DD	imagerel ?construct@?$allocator@U_CAPTION_DATA@@@std@@QEAAXPEAU_CAPTION_DATA@@AEBU3@@Z+132
	DD	0ffffffffH
xdata	ENDS
;	COMDAT xdata
xdata	SEGMENT
$stateUnwindMap$?construct@?$allocator@U_CAPTION_DATA@@@std@@QEAAXPEAU_CAPTION_DATA@@AEBU3@@Z DD 0ffffffffH
	DD	imagerel ?dtor$0@?0??construct@?$allocator@U_CAPTION_DATA@@@std@@QEAAXPEAU_CAPTION_DATA@@AEBU3@@Z@4HA
xdata	ENDS
;	COMDAT CONST
CONST	SEGMENT
$cppxdata$?construct@?$allocator@U_CAPTION_DATA@@@std@@QEAAXPEAU_CAPTION_DATA@@AEBU3@@Z DD 019930522H
	DD	01H
	DD	imagerel $stateUnwindMap$?construct@?$allocator@U_CAPTION_DATA@@@std@@QEAAXPEAU_CAPTION_DATA@@AEBU3@@Z
	DD	00H
	DD	00H
	DD	03H
	DD	imagerel $ip2state$?construct@?$allocator@U_CAPTION_DATA@@@std@@QEAAXPEAU_CAPTION_DATA@@AEBU3@@Z
	DD	020H
	DD	00H
	DD	01H
CONST	ENDS
;	COMDAT xdata
xdata	SEGMENT
$unwind$?construct@?$allocator@U_CAPTION_DATA@@@std@@QEAAXPEAU_CAPTION_DATA@@AEBU3@@Z DD 041d11H
	DD	0a341dH
	DD	0700b520fH
	DD	imagerel __CxxFrameHandler3
	DD	imagerel $cppxdata$?construct@?$allocator@U_CAPTION_DATA@@@std@@QEAAXPEAU_CAPTION_DATA@@AEBU3@@Z
xdata	ENDS
;	COMDAT xdata
xdata	SEGMENT
$unwind$??0_CAPTION_CHAR_DATA@@QEAA@AEBU0@@Z DD 040a01H
	DD	06340aH
	DD	07006320aH
xdata	ENDS
;	COMDAT xdata
xdata	SEGMENT
$unwind$??0_CAPTION_DATA@@QEAA@AEBU0@@Z DD 040a01H
	DD	06340aH
	DD	07006320aH
xdata	ENDS
;	COMDAT xdata
xdata	SEGMENT
$unwind$?catch$0@?0???0?$vector@U_CAPTION_CHAR_DATA@@V?$allocator@U_CAPTION_CHAR_DATA@@@std@@@std@@QEAA@AEBV01@@Z@4HA DD 020a19H
	DD	05006520aH
	DD	imagerel __CxxFrameHandler3
	DD	imagerel $cppxdata$??0?$vector@U_CAPTION_CHAR_DATA@@V?$allocator@U_CAPTION_CHAR_DATA@@@std@@@std@@QEAA@AEBV01@@Z
xdata	ENDS
;	COMDAT xdata
xdata	SEGMENT
$ip2state$??0?$vector@U_CAPTION_CHAR_DATA@@V?$allocator@U_CAPTION_CHAR_DATA@@@std@@@std@@QEAA@AEBV01@@Z DD imagerel ??0?$vector@U_CAPTION_CHAR_DATA@@V?$allocator@U_CAPTION_CHAR_DATA@@@std@@@std@@QEAA@AEBV01@@Z
	DD	0ffffffffH
	DD	imagerel ??0?$vector@U_CAPTION_CHAR_DATA@@V?$allocator@U_CAPTION_CHAR_DATA@@@std@@@std@@QEAA@AEBV01@@Z+161
	DD	00H
	DD	imagerel ??0?$vector@U_CAPTION_CHAR_DATA@@V?$allocator@U_CAPTION_CHAR_DATA@@@std@@@std@@QEAA@AEBV01@@Z+180
	DD	0ffffffffH
	DD	imagerel ?catch$0@?0???0?$vector@U_CAPTION_CHAR_DATA@@V?$allocator@U_CAPTION_CHAR_DATA@@@std@@@std@@QEAA@AEBV01@@Z@4HA
	DD	00H
	DD	imagerel ?catch$0@?0???0?$vector@U_CAPTION_CHAR_DATA@@V?$allocator@U_CAPTION_CHAR_DATA@@@std@@@std@@QEAA@AEBV01@@Z@4HA+13
	DD	01H
xdata	ENDS
;	COMDAT xdata
xdata	SEGMENT
$handlerMap$0$??0?$vector@U_CAPTION_CHAR_DATA@@V?$allocator@U_CAPTION_CHAR_DATA@@@std@@@std@@QEAA@AEBV01@@Z DD 040H
	DD	00H
	DD	00H
	DD	imagerel ?catch$0@?0???0?$vector@U_CAPTION_CHAR_DATA@@V?$allocator@U_CAPTION_CHAR_DATA@@@std@@@std@@QEAA@AEBV01@@Z@4HA
	DD	048H
xdata	ENDS
;	COMDAT xdata
xdata	SEGMENT
$tryMap$??0?$vector@U_CAPTION_CHAR_DATA@@V?$allocator@U_CAPTION_CHAR_DATA@@@std@@@std@@QEAA@AEBV01@@Z DD 00H
	DD	00H
	DD	01H
	DD	01H
	DD	imagerel $handlerMap$0$??0?$vector@U_CAPTION_CHAR_DATA@@V?$allocator@U_CAPTION_CHAR_DATA@@@std@@@std@@QEAA@AEBV01@@Z
xdata	ENDS
;	COMDAT xdata
xdata	SEGMENT
$stateUnwindMap$??0?$vector@U_CAPTION_CHAR_DATA@@V?$allocator@U_CAPTION_CHAR_DATA@@@std@@@std@@QEAA@AEBV01@@Z DD 0ffffffffH
	DD	00H
	DD	0ffffffffH
	DD	00H
xdata	ENDS
;	COMDAT CONST
CONST	SEGMENT
$cppxdata$??0?$vector@U_CAPTION_CHAR_DATA@@V?$allocator@U_CAPTION_CHAR_DATA@@@std@@@std@@QEAA@AEBV01@@Z DD 019930522H
	DD	02H
	DD	imagerel $stateUnwindMap$??0?$vector@U_CAPTION_CHAR_DATA@@V?$allocator@U_CAPTION_CHAR_DATA@@@std@@@std@@QEAA@AEBV01@@Z
	DD	01H
	DD	imagerel $tryMap$??0?$vector@U_CAPTION_CHAR_DATA@@V?$allocator@U_CAPTION_CHAR_DATA@@@std@@@std@@QEAA@AEBV01@@Z
	DD	05H
	DD	imagerel $ip2state$??0?$vector@U_CAPTION_CHAR_DATA@@V?$allocator@U_CAPTION_CHAR_DATA@@@std@@@std@@QEAA@AEBV01@@Z
	DD	030H
	DD	00H
	DD	01H
CONST	ENDS
;	COMDAT xdata
xdata	SEGMENT
$unwind$??0?$vector@U_CAPTION_CHAR_DATA@@V?$allocator@U_CAPTION_CHAR_DATA@@@std@@@std@@QEAA@AEBV01@@Z DD 061d19H
	DD	0c641dH
	DD	0b3418H
	DD	07006720aH
	DD	imagerel __CxxFrameHandler3
	DD	imagerel $cppxdata$??0?$vector@U_CAPTION_CHAR_DATA@@V?$allocator@U_CAPTION_CHAR_DATA@@@std@@@std@@QEAA@AEBV01@@Z
xdata	ENDS
;	COMDAT xdata
xdata	SEGMENT
$unwind$?dtor$0@?0???$construct@U_CAPTION_CHAR_DATA@@AEAU1@@?$allocator@U_CAPTION_CHAR_DATA@@@std@@QEAAXPEAU_CAPTION_CHAR_DATA@@AEAU2@@Z@4HA DD 020601H
	DD	050023206H
xdata	ENDS
;	COMDAT xdata
xdata	SEGMENT
$ip2state$??$construct@U_CAPTION_CHAR_DATA@@AEAU1@@?$allocator@U_CAPTION_CHAR_DATA@@@std@@QEAAXPEAU_CAPTION_CHAR_DATA@@AEAU2@@Z DD imagerel ??$construct@U_CAPTION_CHAR_DATA@@AEAU1@@?$allocator@U_CAPTION_CHAR_DATA@@@std@@QEAAXPEAU_CAPTION_CHAR_DATA@@AEAU2@@Z
	DD	0ffffffffH
	DD	imagerel ??$construct@U_CAPTION_CHAR_DATA@@AEAU1@@?$allocator@U_CAPTION_CHAR_DATA@@@std@@QEAAXPEAU_CAPTION_CHAR_DATA@@AEAU2@@Z+31
	DD	00H
	DD	imagerel ??$construct@U_CAPTION_CHAR_DATA@@AEAU1@@?$allocator@U_CAPTION_CHAR_DATA@@@std@@QEAAXPEAU_CAPTION_CHAR_DATA@@AEAU2@@Z+48
	DD	0ffffffffH
xdata	ENDS
;	COMDAT xdata
xdata	SEGMENT
$stateUnwindMap$??$construct@U_CAPTION_CHAR_DATA@@AEAU1@@?$allocator@U_CAPTION_CHAR_DATA@@@std@@QEAAXPEAU_CAPTION_CHAR_DATA@@AEAU2@@Z DD 0ffffffffH
	DD	imagerel ?dtor$0@?0???$construct@U_CAPTION_CHAR_DATA@@AEAU1@@?$allocator@U_CAPTION_CHAR_DATA@@@std@@QEAAXPEAU_CAPTION_CHAR_DATA@@AEAU2@@Z@4HA
xdata	ENDS
;	COMDAT CONST
CONST	SEGMENT
$cppxdata$??$construct@U_CAPTION_CHAR_DATA@@AEAU1@@?$allocator@U_CAPTION_CHAR_DATA@@@std@@QEAAXPEAU_CAPTION_CHAR_DATA@@AEAU2@@Z DD 019930522H
	DD	01H
	DD	imagerel $stateUnwindMap$??$construct@U_CAPTION_CHAR_DATA@@AEAU1@@?$allocator@U_CAPTION_CHAR_DATA@@@std@@QEAAXPEAU_CAPTION_CHAR_DATA@@AEAU2@@Z
	DD	00H
	DD	00H
	DD	03H
	DD	imagerel $ip2state$??$construct@U_CAPTION_CHAR_DATA@@AEAU1@@?$allocator@U_CAPTION_CHAR_DATA@@@std@@QEAAXPEAU_CAPTION_CHAR_DATA@@AEAU2@@Z
	DD	020H
	DD	00H
	DD	01H
CONST	ENDS
;	COMDAT xdata
xdata	SEGMENT
$unwind$??$construct@U_CAPTION_CHAR_DATA@@AEAU1@@?$allocator@U_CAPTION_CHAR_DATA@@@std@@QEAAXPEAU_CAPTION_CHAR_DATA@@AEAU2@@Z DD 011711H
	DD	0620eH
	DD	imagerel __CxxFrameHandler3
	DD	imagerel $cppxdata$??$construct@U_CAPTION_CHAR_DATA@@AEAU1@@?$allocator@U_CAPTION_CHAR_DATA@@@std@@QEAAXPEAU_CAPTION_CHAR_DATA@@AEAU2@@Z
xdata	ENDS
;	COMDAT xdata
xdata	SEGMENT
$unwind$?dtor$0@?0???$construct@U_CAPTION_DATA@@AEAU1@@?$allocator@U_CAPTION_DATA@@@std@@QEAAXPEAU_CAPTION_DATA@@AEAU2@@Z@4HA DD 020601H
	DD	050023206H
xdata	ENDS
;	COMDAT xdata
xdata	SEGMENT
$ip2state$??$construct@U_CAPTION_DATA@@AEAU1@@?$allocator@U_CAPTION_DATA@@@std@@QEAAXPEAU_CAPTION_DATA@@AEAU2@@Z DD imagerel ??$construct@U_CAPTION_DATA@@AEAU1@@?$allocator@U_CAPTION_DATA@@@std@@QEAAXPEAU_CAPTION_DATA@@AEAU2@@Z
	DD	0ffffffffH
	DD	imagerel ??$construct@U_CAPTION_DATA@@AEAU1@@?$allocator@U_CAPTION_DATA@@@std@@QEAAXPEAU_CAPTION_DATA@@AEAU2@@Z+40
	DD	00H
	DD	imagerel ??$construct@U_CAPTION_DATA@@AEAU1@@?$allocator@U_CAPTION_DATA@@@std@@QEAAXPEAU_CAPTION_DATA@@AEAU2@@Z+132
	DD	0ffffffffH
xdata	ENDS
;	COMDAT xdata
xdata	SEGMENT
$stateUnwindMap$??$construct@U_CAPTION_DATA@@AEAU1@@?$allocator@U_CAPTION_DATA@@@std@@QEAAXPEAU_CAPTION_DATA@@AEAU2@@Z DD 0ffffffffH
	DD	imagerel ?dtor$0@?0???$construct@U_CAPTION_DATA@@AEAU1@@?$allocator@U_CAPTION_DATA@@@std@@QEAAXPEAU_CAPTION_DATA@@AEAU2@@Z@4HA
xdata	ENDS
;	COMDAT CONST
CONST	SEGMENT
$cppxdata$??$construct@U_CAPTION_DATA@@AEAU1@@?$allocator@U_CAPTION_DATA@@@std@@QEAAXPEAU_CAPTION_DATA@@AEAU2@@Z DD 019930522H
	DD	01H
	DD	imagerel $stateUnwindMap$??$construct@U_CAPTION_DATA@@AEAU1@@?$allocator@U_CAPTION_DATA@@@std@@QEAAXPEAU_CAPTION_DATA@@AEAU2@@Z
	DD	00H
	DD	00H
	DD	03H
	DD	imagerel $ip2state$??$construct@U_CAPTION_DATA@@AEAU1@@?$allocator@U_CAPTION_DATA@@@std@@QEAAXPEAU_CAPTION_DATA@@AEAU2@@Z
	DD	020H
	DD	00H
	DD	01H
CONST	ENDS
;	COMDAT xdata
xdata	SEGMENT
$unwind$??$construct@U_CAPTION_DATA@@AEAU1@@?$allocator@U_CAPTION_DATA@@@std@@QEAAXPEAU_CAPTION_DATA@@AEAU2@@Z DD 041d11H
	DD	0a341dH
	DD	0700b520fH
	DD	imagerel __CxxFrameHandler3
	DD	imagerel $cppxdata$??$construct@U_CAPTION_DATA@@AEAU1@@?$allocator@U_CAPTION_DATA@@@std@@QEAAXPEAU_CAPTION_DATA@@AEAU2@@Z
xdata	ENDS
;	COMDAT xdata
xdata	SEGMENT
$unwind$?catch$0@?0???$_Uninit_move@PEAU_CAPTION_CHAR_DATA@@PEAU1@V?$allocator@U_CAPTION_CHAR_DATA@@@std@@U1@@std@@YAPEAU_CAPTION_CHAR_DATA@@PEAU1@00AEAU?$_Wrap_alloc@V?$allocator@U_CAPTION_CHAR_DATA@@@std@@@0@0U_Nonscalar_ptr_iterator_tag@0@@Z@4HA DD 040c19H
	DD	07008320cH
	DD	030065007H
	DD	imagerel __CxxFrameHandler3
	DD	imagerel $cppxdata$??$_Uninit_move@PEAU_CAPTION_CHAR_DATA@@PEAU1@V?$allocator@U_CAPTION_CHAR_DATA@@@std@@U1@@std@@YAPEAU_CAPTION_CHAR_DATA@@PEAU1@00AEAU?$_Wrap_alloc@V?$allocator@U_CAPTION_CHAR_DATA@@@std@@@0@0U_Nonscalar_ptr_iterator_tag@0@@Z
xdata	ENDS
;	COMDAT xdata
xdata	SEGMENT
$unwind$?dtor$0@?0???$_Uninit_move@PEAU_CAPTION_CHAR_DATA@@PEAU1@V?$allocator@U_CAPTION_CHAR_DATA@@@std@@U1@@std@@YAPEAU_CAPTION_CHAR_DATA@@PEAU1@00AEAU?$_Wrap_alloc@V?$allocator@U_CAPTION_CHAR_DATA@@@std@@@0@0U_Nonscalar_ptr_iterator_tag@0@@Z@4HA DD 020601H
	DD	050023206H
xdata	ENDS
;	COMDAT xdata
xdata	SEGMENT
$ip2state$??$_Uninit_move@PEAU_CAPTION_CHAR_DATA@@PEAU1@V?$allocator@U_CAPTION_CHAR_DATA@@@std@@U1@@std@@YAPEAU_CAPTION_CHAR_DATA@@PEAU1@00AEAU?$_Wrap_alloc@V?$allocator@U_CAPTION_CHAR_DATA@@@std@@@0@0U_Nonscalar_ptr_iterator_tag@0@@Z DD imagerel ??$_Uninit_move@PEAU_CAPTION_CHAR_DATA@@PEAU1@V?$allocator@U_CAPTION_CHAR_DATA@@@std@@U1@@std@@YAPEAU_CAPTION_CHAR_DATA@@PEAU1@00AEAU?$_Wrap_alloc@V?$allocator@U_CAPTION_CHAR_DATA@@@std@@@0@0U_Nonscalar_ptr_iterator_tag@0@@Z
	DD	0ffffffffH
	DD	imagerel ??$_Uninit_move@PEAU_CAPTION_CHAR_DATA@@PEAU1@V?$allocator@U_CAPTION_CHAR_DATA@@@std@@U1@@std@@YAPEAU_CAPTION_CHAR_DATA@@PEAU1@00AEAU?$_Wrap_alloc@V?$allocator@U_CAPTION_CHAR_DATA@@@std@@@0@0U_Nonscalar_ptr_iterator_tag@0@@Z+46
	DD	00H
	DD	imagerel ??$_Uninit_move@PEAU_CAPTION_CHAR_DATA@@PEAU1@V?$allocator@U_CAPTION_CHAR_DATA@@@std@@U1@@std@@YAPEAU_CAPTION_CHAR_DATA@@PEAU1@00AEAU?$_Wrap_alloc@V?$allocator@U_CAPTION_CHAR_DATA@@@std@@@0@0U_Nonscalar_ptr_iterator_tag@0@@Z+63
	DD	01H
	DD	imagerel ??$_Uninit_move@PEAU_CAPTION_CHAR_DATA@@PEAU1@V?$allocator@U_CAPTION_CHAR_DATA@@@std@@U1@@std@@YAPEAU_CAPTION_CHAR_DATA@@PEAU1@00AEAU?$_Wrap_alloc@V?$allocator@U_CAPTION_CHAR_DATA@@@std@@@0@0U_Nonscalar_ptr_iterator_tag@0@@Z+195
	DD	00H
	DD	imagerel ??$_Uninit_move@PEAU_CAPTION_CHAR_DATA@@PEAU1@V?$allocator@U_CAPTION_CHAR_DATA@@@std@@U1@@std@@YAPEAU_CAPTION_CHAR_DATA@@PEAU1@00AEAU?$_Wrap_alloc@V?$allocator@U_CAPTION_CHAR_DATA@@@std@@@0@0U_Nonscalar_ptr_iterator_tag@0@@Z+213
	DD	0ffffffffH
	DD	imagerel ?catch$0@?0???$_Uninit_move@PEAU_CAPTION_CHAR_DATA@@PEAU1@V?$allocator@U_CAPTION_CHAR_DATA@@@std@@U1@@std@@YAPEAU_CAPTION_CHAR_DATA@@PEAU1@00AEAU?$_Wrap_alloc@V?$allocator@U_CAPTION_CHAR_DATA@@@std@@@0@0U_Nonscalar_ptr_iterator_tag@0@@Z@4HA
	DD	00H
	DD	imagerel ?catch$0@?0???$_Uninit_move@PEAU_CAPTION_CHAR_DATA@@PEAU1@V?$allocator@U_CAPTION_CHAR_DATA@@@std@@U1@@std@@YAPEAU_CAPTION_CHAR_DATA@@PEAU1@00AEAU?$_Wrap_alloc@V?$allocator@U_CAPTION_CHAR_DATA@@@std@@@0@0U_Nonscalar_ptr_iterator_tag@0@@Z@4HA+15
	DD	02H
xdata	ENDS
;	COMDAT xdata
xdata	SEGMENT
$handlerMap$0$??$_Uninit_move@PEAU_CAPTION_CHAR_DATA@@PEAU1@V?$allocator@U_CAPTION_CHAR_DATA@@@std@@U1@@std@@YAPEAU_CAPTION_CHAR_DATA@@PEAU1@00AEAU?$_Wrap_alloc@V?$allocator@U_CAPTION_CHAR_DATA@@@std@@@0@0U_Nonscalar_ptr_iterator_tag@0@@Z DD 040H
	DD	00H
	DD	00H
	DD	imagerel ?catch$0@?0???$_Uninit_move@PEAU_CAPTION_CHAR_DATA@@PEAU1@V?$allocator@U_CAPTION_CHAR_DATA@@@std@@U1@@std@@YAPEAU_CAPTION_CHAR_DATA@@PEAU1@00AEAU?$_Wrap_alloc@V?$allocator@U_CAPTION_CHAR_DATA@@@std@@@0@0U_Nonscalar_ptr_iterator_tag@0@@Z@4HA
	DD	048H
xdata	ENDS
;	COMDAT xdata
xdata	SEGMENT
$tryMap$??$_Uninit_move@PEAU_CAPTION_CHAR_DATA@@PEAU1@V?$allocator@U_CAPTION_CHAR_DATA@@@std@@U1@@std@@YAPEAU_CAPTION_CHAR_DATA@@PEAU1@00AEAU?$_Wrap_alloc@V?$allocator@U_CAPTION_CHAR_DATA@@@std@@@0@0U_Nonscalar_ptr_iterator_tag@0@@Z DD 00H
	DD	01H
	DD	02H
	DD	01H
	DD	imagerel $handlerMap$0$??$_Uninit_move@PEAU_CAPTION_CHAR_DATA@@PEAU1@V?$allocator@U_CAPTION_CHAR_DATA@@@std@@U1@@std@@YAPEAU_CAPTION_CHAR_DATA@@PEAU1@00AEAU?$_Wrap_alloc@V?$allocator@U_CAPTION_CHAR_DATA@@@std@@@0@0U_Nonscalar_ptr_iterator_tag@0@@Z
xdata	ENDS
;	COMDAT xdata
xdata	SEGMENT
$stateUnwindMap$??$_Uninit_move@PEAU_CAPTION_CHAR_DATA@@PEAU1@V?$allocator@U_CAPTION_CHAR_DATA@@@std@@U1@@std@@YAPEAU_CAPTION_CHAR_DATA@@PEAU1@00AEAU?$_Wrap_alloc@V?$allocator@U_CAPTION_CHAR_DATA@@@std@@@0@0U_Nonscalar_ptr_iterator_tag@0@@Z DD 0ffffffffH
	DD	00H
	DD	00H
	DD	imagerel ?dtor$0@?0???$_Uninit_move@PEAU_CAPTION_CHAR_DATA@@PEAU1@V?$allocator@U_CAPTION_CHAR_DATA@@@std@@U1@@std@@YAPEAU_CAPTION_CHAR_DATA@@PEAU1@00AEAU?$_Wrap_alloc@V?$allocator@U_CAPTION_CHAR_DATA@@@std@@@0@0U_Nonscalar_ptr_iterator_tag@0@@Z@4HA
	DD	0ffffffffH
	DD	00H
xdata	ENDS
;	COMDAT CONST
CONST	SEGMENT
$cppxdata$??$_Uninit_move@PEAU_CAPTION_CHAR_DATA@@PEAU1@V?$allocator@U_CAPTION_CHAR_DATA@@@std@@U1@@std@@YAPEAU_CAPTION_CHAR_DATA@@PEAU1@00AEAU?$_Wrap_alloc@V?$allocator@U_CAPTION_CHAR_DATA@@@std@@@0@0U_Nonscalar_ptr_iterator_tag@0@@Z DD 019930522H
	DD	03H
	DD	imagerel $stateUnwindMap$??$_Uninit_move@PEAU_CAPTION_CHAR_DATA@@PEAU1@V?$allocator@U_CAPTION_CHAR_DATA@@@std@@U1@@std@@YAPEAU_CAPTION_CHAR_DATA@@PEAU1@00AEAU?$_Wrap_alloc@V?$allocator@U_CAPTION_CHAR_DATA@@@std@@@0@0U_Nonscalar_ptr_iterator_tag@0@@Z
	DD	01H
	DD	imagerel $tryMap$??$_Uninit_move@PEAU_CAPTION_CHAR_DATA@@PEAU1@V?$allocator@U_CAPTION_CHAR_DATA@@@std@@U1@@std@@YAPEAU_CAPTION_CHAR_DATA@@PEAU1@00AEAU?$_Wrap_alloc@V?$allocator@U_CAPTION_CHAR_DATA@@@std@@@0@0U_Nonscalar_ptr_iterator_tag@0@@Z
	DD	07H
	DD	imagerel $ip2state$??$_Uninit_move@PEAU_CAPTION_CHAR_DATA@@PEAU1@V?$allocator@U_CAPTION_CHAR_DATA@@@std@@U1@@std@@YAPEAU_CAPTION_CHAR_DATA@@PEAU1@00AEAU?$_Wrap_alloc@V?$allocator@U_CAPTION_CHAR_DATA@@@std@@@0@0U_Nonscalar_ptr_iterator_tag@0@@Z
	DD	020H
	DD	00H
	DD	01H
CONST	ENDS
;	COMDAT xdata
xdata	SEGMENT
$unwind$??$_Uninit_move@PEAU_CAPTION_CHAR_DATA@@PEAU1@V?$allocator@U_CAPTION_CHAR_DATA@@@std@@U1@@std@@YAPEAU_CAPTION_CHAR_DATA@@PEAU1@00AEAU?$_Wrap_alloc@V?$allocator@U_CAPTION_CHAR_DATA@@@std@@@0@0U_Nonscalar_ptr_iterator_tag@0@@Z DD 062019H
	DD	0b3420H
	DD	0e00e5212H
	DD	0600b700cH
	DD	imagerel __CxxFrameHandler3
	DD	imagerel $cppxdata$??$_Uninit_move@PEAU_CAPTION_CHAR_DATA@@PEAU1@V?$allocator@U_CAPTION_CHAR_DATA@@@std@@U1@@std@@YAPEAU_CAPTION_CHAR_DATA@@PEAU1@00AEAU?$_Wrap_alloc@V?$allocator@U_CAPTION_CHAR_DATA@@@std@@@0@0U_Nonscalar_ptr_iterator_tag@0@@Z
xdata	ENDS
;	COMDAT xdata
xdata	SEGMENT
$unwind$?catch$0@?0???$_Uninit_move@PEAU_CAPTION_DATA@@PEAU1@V?$allocator@U_CAPTION_DATA@@@std@@U1@@std@@YAPEAU_CAPTION_DATA@@PEAU1@00AEAU?$_Wrap_alloc@V?$allocator@U_CAPTION_DATA@@@std@@@0@0U_Nonscalar_ptr_iterator_tag@0@@Z@4HA DD 040c19H
	DD	07008320cH
	DD	030065007H
	DD	imagerel __CxxFrameHandler3
	DD	imagerel $cppxdata$??$_Uninit_move@PEAU_CAPTION_DATA@@PEAU1@V?$allocator@U_CAPTION_DATA@@@std@@U1@@std@@YAPEAU_CAPTION_DATA@@PEAU1@00AEAU?$_Wrap_alloc@V?$allocator@U_CAPTION_DATA@@@std@@@0@0U_Nonscalar_ptr_iterator_tag@0@@Z
xdata	ENDS
;	COMDAT xdata
xdata	SEGMENT
$unwind$?dtor$0@?0???$_Uninit_move@PEAU_CAPTION_DATA@@PEAU1@V?$allocator@U_CAPTION_DATA@@@std@@U1@@std@@YAPEAU_CAPTION_DATA@@PEAU1@00AEAU?$_Wrap_alloc@V?$allocator@U_CAPTION_DATA@@@std@@@0@0U_Nonscalar_ptr_iterator_tag@0@@Z@4HA DD 020601H
	DD	050023206H
xdata	ENDS
;	COMDAT xdata
xdata	SEGMENT
$ip2state$??$_Uninit_move@PEAU_CAPTION_DATA@@PEAU1@V?$allocator@U_CAPTION_DATA@@@std@@U1@@std@@YAPEAU_CAPTION_DATA@@PEAU1@00AEAU?$_Wrap_alloc@V?$allocator@U_CAPTION_DATA@@@std@@@0@0U_Nonscalar_ptr_iterator_tag@0@@Z DD imagerel ??$_Uninit_move@PEAU_CAPTION_DATA@@PEAU1@V?$allocator@U_CAPTION_DATA@@@std@@U1@@std@@YAPEAU_CAPTION_DATA@@PEAU1@00AEAU?$_Wrap_alloc@V?$allocator@U_CAPTION_DATA@@@std@@@0@0U_Nonscalar_ptr_iterator_tag@0@@Z
	DD	0ffffffffH
	DD	imagerel ??$_Uninit_move@PEAU_CAPTION_DATA@@PEAU1@V?$allocator@U_CAPTION_DATA@@@std@@U1@@std@@YAPEAU_CAPTION_DATA@@PEAU1@00AEAU?$_Wrap_alloc@V?$allocator@U_CAPTION_DATA@@@std@@@0@0U_Nonscalar_ptr_iterator_tag@0@@Z+40
	DD	00H
	DD	imagerel ??$_Uninit_move@PEAU_CAPTION_DATA@@PEAU1@V?$allocator@U_CAPTION_DATA@@@std@@U1@@std@@YAPEAU_CAPTION_DATA@@PEAU1@00AEAU?$_Wrap_alloc@V?$allocator@U_CAPTION_DATA@@@std@@@0@0U_Nonscalar_ptr_iterator_tag@0@@Z+50
	DD	01H
	DD	imagerel ??$_Uninit_move@PEAU_CAPTION_DATA@@PEAU1@V?$allocator@U_CAPTION_DATA@@@std@@U1@@std@@YAPEAU_CAPTION_DATA@@PEAU1@00AEAU?$_Wrap_alloc@V?$allocator@U_CAPTION_DATA@@@std@@@0@0U_Nonscalar_ptr_iterator_tag@0@@Z+134
	DD	00H
	DD	imagerel ??$_Uninit_move@PEAU_CAPTION_DATA@@PEAU1@V?$allocator@U_CAPTION_DATA@@@std@@U1@@std@@YAPEAU_CAPTION_DATA@@PEAU1@00AEAU?$_Wrap_alloc@V?$allocator@U_CAPTION_DATA@@@std@@@0@0U_Nonscalar_ptr_iterator_tag@0@@Z+149
	DD	0ffffffffH
	DD	imagerel ?catch$0@?0???$_Uninit_move@PEAU_CAPTION_DATA@@PEAU1@V?$allocator@U_CAPTION_DATA@@@std@@U1@@std@@YAPEAU_CAPTION_DATA@@PEAU1@00AEAU?$_Wrap_alloc@V?$allocator@U_CAPTION_DATA@@@std@@@0@0U_Nonscalar_ptr_iterator_tag@0@@Z@4HA
	DD	00H
	DD	imagerel ?catch$0@?0???$_Uninit_move@PEAU_CAPTION_DATA@@PEAU1@V?$allocator@U_CAPTION_DATA@@@std@@U1@@std@@YAPEAU_CAPTION_DATA@@PEAU1@00AEAU?$_Wrap_alloc@V?$allocator@U_CAPTION_DATA@@@std@@@0@0U_Nonscalar_ptr_iterator_tag@0@@Z@4HA+15
	DD	02H
xdata	ENDS
;	COMDAT xdata
xdata	SEGMENT
$handlerMap$0$??$_Uninit_move@PEAU_CAPTION_DATA@@PEAU1@V?$allocator@U_CAPTION_DATA@@@std@@U1@@std@@YAPEAU_CAPTION_DATA@@PEAU1@00AEAU?$_Wrap_alloc@V?$allocator@U_CAPTION_DATA@@@std@@@0@0U_Nonscalar_ptr_iterator_tag@0@@Z DD 040H
	DD	00H
	DD	00H
	DD	imagerel ?catch$0@?0???$_Uninit_move@PEAU_CAPTION_DATA@@PEAU1@V?$allocator@U_CAPTION_DATA@@@std@@U1@@std@@YAPEAU_CAPTION_DATA@@PEAU1@00AEAU?$_Wrap_alloc@V?$allocator@U_CAPTION_DATA@@@std@@@0@0U_Nonscalar_ptr_iterator_tag@0@@Z@4HA
	DD	048H
xdata	ENDS
;	COMDAT xdata
xdata	SEGMENT
$tryMap$??$_Uninit_move@PEAU_CAPTION_DATA@@PEAU1@V?$allocator@U_CAPTION_DATA@@@std@@U1@@std@@YAPEAU_CAPTION_DATA@@PEAU1@00AEAU?$_Wrap_alloc@V?$allocator@U_CAPTION_DATA@@@std@@@0@0U_Nonscalar_ptr_iterator_tag@0@@Z DD 00H
	DD	01H
	DD	02H
	DD	01H
	DD	imagerel $handlerMap$0$??$_Uninit_move@PEAU_CAPTION_DATA@@PEAU1@V?$allocator@U_CAPTION_DATA@@@std@@U1@@std@@YAPEAU_CAPTION_DATA@@PEAU1@00AEAU?$_Wrap_alloc@V?$allocator@U_CAPTION_DATA@@@std@@@0@0U_Nonscalar_ptr_iterator_tag@0@@Z
xdata	ENDS
;	COMDAT xdata
xdata	SEGMENT
$stateUnwindMap$??$_Uninit_move@PEAU_CAPTION_DATA@@PEAU1@V?$allocator@U_CAPTION_DATA@@@std@@U1@@std@@YAPEAU_CAPTION_DATA@@PEAU1@00AEAU?$_Wrap_alloc@V?$allocator@U_CAPTION_DATA@@@std@@@0@0U_Nonscalar_ptr_iterator_tag@0@@Z DD 0ffffffffH
	DD	00H
	DD	00H
	DD	imagerel ?dtor$0@?0???$_Uninit_move@PEAU_CAPTION_DATA@@PEAU1@V?$allocator@U_CAPTION_DATA@@@std@@U1@@std@@YAPEAU_CAPTION_DATA@@PEAU1@00AEAU?$_Wrap_alloc@V?$allocator@U_CAPTION_DATA@@@std@@@0@0U_Nonscalar_ptr_iterator_tag@0@@Z@4HA
	DD	0ffffffffH
	DD	00H
xdata	ENDS
;	COMDAT CONST
CONST	SEGMENT
$cppxdata$??$_Uninit_move@PEAU_CAPTION_DATA@@PEAU1@V?$allocator@U_CAPTION_DATA@@@std@@U1@@std@@YAPEAU_CAPTION_DATA@@PEAU1@00AEAU?$_Wrap_alloc@V?$allocator@U_CAPTION_DATA@@@std@@@0@0U_Nonscalar_ptr_iterator_tag@0@@Z DD 019930522H
	DD	03H
	DD	imagerel $stateUnwindMap$??$_Uninit_move@PEAU_CAPTION_DATA@@PEAU1@V?$allocator@U_CAPTION_DATA@@@std@@U1@@std@@YAPEAU_CAPTION_DATA@@PEAU1@00AEAU?$_Wrap_alloc@V?$allocator@U_CAPTION_DATA@@@std@@@0@0U_Nonscalar_ptr_iterator_tag@0@@Z
	DD	01H
	DD	imagerel $tryMap$??$_Uninit_move@PEAU_CAPTION_DATA@@PEAU1@V?$allocator@U_CAPTION_DATA@@@std@@U1@@std@@YAPEAU_CAPTION_DATA@@PEAU1@00AEAU?$_Wrap_alloc@V?$allocator@U_CAPTION_DATA@@@std@@@0@0U_Nonscalar_ptr_iterator_tag@0@@Z
	DD	07H
	DD	imagerel $ip2state$??$_Uninit_move@PEAU_CAPTION_DATA@@PEAU1@V?$allocator@U_CAPTION_DATA@@@std@@U1@@std@@YAPEAU_CAPTION_DATA@@PEAU1@00AEAU?$_Wrap_alloc@V?$allocator@U_CAPTION_DATA@@@std@@@0@0U_Nonscalar_ptr_iterator_tag@0@@Z
	DD	020H
	DD	00H
	DD	01H
CONST	ENDS
;	COMDAT xdata
xdata	SEGMENT
$unwind$??$_Uninit_move@PEAU_CAPTION_DATA@@PEAU1@V?$allocator@U_CAPTION_DATA@@@std@@U1@@std@@YAPEAU_CAPTION_DATA@@PEAU1@00AEAU?$_Wrap_alloc@V?$allocator@U_CAPTION_DATA@@@std@@@0@0U_Nonscalar_ptr_iterator_tag@0@@Z DD 041a19H
	DD	0700d5211H
	DD	0300b600cH
	DD	imagerel __CxxFrameHandler3
	DD	imagerel $cppxdata$??$_Uninit_move@PEAU_CAPTION_DATA@@PEAU1@V?$allocator@U_CAPTION_DATA@@@std@@U1@@std@@YAPEAU_CAPTION_DATA@@PEAU1@00AEAU?$_Wrap_alloc@V?$allocator@U_CAPTION_DATA@@@std@@@0@0U_Nonscalar_ptr_iterator_tag@0@@Z
xdata	ENDS
;	COMDAT xdata
xdata	SEGMENT
$unwind$??$_Ucopy@V?$_Vector_const_iterator@V?$_Vector_val@U?$_Simple_types@U_CAPTION_CHAR_DATA@@@std@@@std@@@std@@@?$vector@U_CAPTION_CHAR_DATA@@V?$allocator@U_CAPTION_CHAR_DATA@@@std@@@std@@IEAAPEAU_CAPTION_CHAR_DATA@@V?$_Vector_const_iterator@V?$_Vector_val@U?$_Simple_types@U_CAPTION_CHAR_DATA@@@std@@@std@@@1@0PEAU2@@Z DD 010401H
	DD	06204H
xdata	ENDS
;	COMDAT xdata
xdata	SEGMENT
$unwind$?dtor$0@?0???$construct@U_CAPTION_CHAR_DATA@@U1@@?$_Wrap_alloc@V?$allocator@U_CAPTION_CHAR_DATA@@@std@@@std@@QEAAXPEAU_CAPTION_CHAR_DATA@@$$QEAU2@@Z@4HA DD 020601H
	DD	050023206H
xdata	ENDS
;	COMDAT xdata
xdata	SEGMENT
$ip2state$??$construct@U_CAPTION_CHAR_DATA@@U1@@?$_Wrap_alloc@V?$allocator@U_CAPTION_CHAR_DATA@@@std@@@std@@QEAAXPEAU_CAPTION_CHAR_DATA@@$$QEAU2@@Z DD imagerel ??$construct@U_CAPTION_CHAR_DATA@@U1@@?$_Wrap_alloc@V?$allocator@U_CAPTION_CHAR_DATA@@@std@@@std@@QEAAXPEAU_CAPTION_CHAR_DATA@@$$QEAU2@@Z
	DD	0ffffffffH
	DD	imagerel ??$construct@U_CAPTION_CHAR_DATA@@U1@@?$_Wrap_alloc@V?$allocator@U_CAPTION_CHAR_DATA@@@std@@@std@@QEAAXPEAU_CAPTION_CHAR_DATA@@$$QEAU2@@Z+31
	DD	00H
	DD	imagerel ??$construct@U_CAPTION_CHAR_DATA@@U1@@?$_Wrap_alloc@V?$allocator@U_CAPTION_CHAR_DATA@@@std@@@std@@QEAAXPEAU_CAPTION_CHAR_DATA@@$$QEAU2@@Z+48
	DD	0ffffffffH
xdata	ENDS
;	COMDAT xdata
xdata	SEGMENT
$stateUnwindMap$??$construct@U_CAPTION_CHAR_DATA@@U1@@?$_Wrap_alloc@V?$allocator@U_CAPTION_CHAR_DATA@@@std@@@std@@QEAAXPEAU_CAPTION_CHAR_DATA@@$$QEAU2@@Z DD 0ffffffffH
	DD	imagerel ?dtor$0@?0???$construct@U_CAPTION_CHAR_DATA@@U1@@?$_Wrap_alloc@V?$allocator@U_CAPTION_CHAR_DATA@@@std@@@std@@QEAAXPEAU_CAPTION_CHAR_DATA@@$$QEAU2@@Z@4HA
xdata	ENDS
;	COMDAT CONST
CONST	SEGMENT
$cppxdata$??$construct@U_CAPTION_CHAR_DATA@@U1@@?$_Wrap_alloc@V?$allocator@U_CAPTION_CHAR_DATA@@@std@@@std@@QEAAXPEAU_CAPTION_CHAR_DATA@@$$QEAU2@@Z DD 019930522H
	DD	01H
	DD	imagerel $stateUnwindMap$??$construct@U_CAPTION_CHAR_DATA@@U1@@?$_Wrap_alloc@V?$allocator@U_CAPTION_CHAR_DATA@@@std@@@std@@QEAAXPEAU_CAPTION_CHAR_DATA@@$$QEAU2@@Z
	DD	00H
	DD	00H
	DD	03H
	DD	imagerel $ip2state$??$construct@U_CAPTION_CHAR_DATA@@U1@@?$_Wrap_alloc@V?$allocator@U_CAPTION_CHAR_DATA@@@std@@@std@@QEAAXPEAU_CAPTION_CHAR_DATA@@$$QEAU2@@Z
	DD	020H
	DD	00H
	DD	01H
CONST	ENDS
;	COMDAT xdata
xdata	SEGMENT
$unwind$??$construct@U_CAPTION_CHAR_DATA@@U1@@?$_Wrap_alloc@V?$allocator@U_CAPTION_CHAR_DATA@@@std@@@std@@QEAAXPEAU_CAPTION_CHAR_DATA@@$$QEAU2@@Z DD 011711H
	DD	0620eH
	DD	imagerel __CxxFrameHandler3
	DD	imagerel $cppxdata$??$construct@U_CAPTION_CHAR_DATA@@U1@@?$_Wrap_alloc@V?$allocator@U_CAPTION_CHAR_DATA@@@std@@@std@@QEAAXPEAU_CAPTION_CHAR_DATA@@$$QEAU2@@Z
xdata	ENDS
;	COMDAT xdata
xdata	SEGMENT
$unwind$?dtor$0@?0???$construct@U_CAPTION_DATA@@U1@@?$_Wrap_alloc@V?$allocator@U_CAPTION_DATA@@@std@@@std@@QEAAXPEAU_CAPTION_DATA@@$$QEAU2@@Z@4HA DD 020601H
	DD	050023206H
xdata	ENDS
;	COMDAT xdata
xdata	SEGMENT
$ip2state$??$construct@U_CAPTION_DATA@@U1@@?$_Wrap_alloc@V?$allocator@U_CAPTION_DATA@@@std@@@std@@QEAAXPEAU_CAPTION_DATA@@$$QEAU2@@Z DD imagerel ??$construct@U_CAPTION_DATA@@U1@@?$_Wrap_alloc@V?$allocator@U_CAPTION_DATA@@@std@@@std@@QEAAXPEAU_CAPTION_DATA@@$$QEAU2@@Z
	DD	0ffffffffH
	DD	imagerel ??$construct@U_CAPTION_DATA@@U1@@?$_Wrap_alloc@V?$allocator@U_CAPTION_DATA@@@std@@@std@@QEAAXPEAU_CAPTION_DATA@@$$QEAU2@@Z+40
	DD	00H
	DD	imagerel ??$construct@U_CAPTION_DATA@@U1@@?$_Wrap_alloc@V?$allocator@U_CAPTION_DATA@@@std@@@std@@QEAAXPEAU_CAPTION_DATA@@$$QEAU2@@Z+132
	DD	0ffffffffH
xdata	ENDS
;	COMDAT xdata
xdata	SEGMENT
$stateUnwindMap$??$construct@U_CAPTION_DATA@@U1@@?$_Wrap_alloc@V?$allocator@U_CAPTION_DATA@@@std@@@std@@QEAAXPEAU_CAPTION_DATA@@$$QEAU2@@Z DD 0ffffffffH
	DD	imagerel ?dtor$0@?0???$construct@U_CAPTION_DATA@@U1@@?$_Wrap_alloc@V?$allocator@U_CAPTION_DATA@@@std@@@std@@QEAAXPEAU_CAPTION_DATA@@$$QEAU2@@Z@4HA
xdata	ENDS
;	COMDAT CONST
CONST	SEGMENT
$cppxdata$??$construct@U_CAPTION_DATA@@U1@@?$_Wrap_alloc@V?$allocator@U_CAPTION_DATA@@@std@@@std@@QEAAXPEAU_CAPTION_DATA@@$$QEAU2@@Z DD 019930522H
	DD	01H
	DD	imagerel $stateUnwindMap$??$construct@U_CAPTION_DATA@@U1@@?$_Wrap_alloc@V?$allocator@U_CAPTION_DATA@@@std@@@std@@QEAAXPEAU_CAPTION_DATA@@$$QEAU2@@Z
	DD	00H
	DD	00H
	DD	03H
	DD	imagerel $ip2state$??$construct@U_CAPTION_DATA@@U1@@?$_Wrap_alloc@V?$allocator@U_CAPTION_DATA@@@std@@@std@@QEAAXPEAU_CAPTION_DATA@@$$QEAU2@@Z
	DD	020H
	DD	00H
	DD	01H
CONST	ENDS
;	COMDAT xdata
xdata	SEGMENT
$unwind$??$construct@U_CAPTION_DATA@@U1@@?$_Wrap_alloc@V?$allocator@U_CAPTION_DATA@@@std@@@std@@QEAAXPEAU_CAPTION_DATA@@$$QEAU2@@Z DD 041d11H
	DD	0a341dH
	DD	0700b520fH
	DD	imagerel __CxxFrameHandler3
	DD	imagerel $cppxdata$??$construct@U_CAPTION_DATA@@U1@@?$_Wrap_alloc@V?$allocator@U_CAPTION_DATA@@@std@@@std@@QEAAXPEAU_CAPTION_DATA@@$$QEAU2@@Z
xdata	ENDS
;	COMDAT xdata
xdata	SEGMENT
$unwind$??$_Uninitialized_copy@V?$_Vector_const_iterator@V?$_Vector_val@U?$_Simple_types@U_CAPTION_CHAR_DATA@@@std@@@std@@@std@@PEAU_CAPTION_CHAR_DATA@@U?$_Wrap_alloc@V?$allocator@U_CAPTION_CHAR_DATA@@@std@@@2@@std@@YAPEAU_CAPTION_CHAR_DATA@@V?$_Vector_const_iterator@V?$_Vector_val@U?$_Simple_types@U_CAPTION_CHAR_DATA@@@std@@@std@@@0@0PEAU1@AEAU?$_Wrap_alloc@V?$allocator@U_CAPTION_CHAR_DATA@@@std@@@0@@Z DD 010401H
	DD	06204H
xdata	ENDS
;	COMDAT xdata
xdata	SEGMENT
$unwind$?dtor$0@?0???$construct@U_CAPTION_CHAR_DATA@@U1@@?$allocator_traits@V?$allocator@U_CAPTION_CHAR_DATA@@@std@@@std@@SAXAEAV?$allocator@U_CAPTION_CHAR_DATA@@@1@PEAU_CAPTION_CHAR_DATA@@$$QEAU3@@Z@4HA DD 020601H
	DD	050023206H
xdata	ENDS
;	COMDAT xdata
xdata	SEGMENT
$ip2state$??$construct@U_CAPTION_CHAR_DATA@@U1@@?$allocator_traits@V?$allocator@U_CAPTION_CHAR_DATA@@@std@@@std@@SAXAEAV?$allocator@U_CAPTION_CHAR_DATA@@@1@PEAU_CAPTION_CHAR_DATA@@$$QEAU3@@Z DD imagerel ??$construct@U_CAPTION_CHAR_DATA@@U1@@?$allocator_traits@V?$allocator@U_CAPTION_CHAR_DATA@@@std@@@std@@SAXAEAV?$allocator@U_CAPTION_CHAR_DATA@@@1@PEAU_CAPTION_CHAR_DATA@@$$QEAU3@@Z
	DD	0ffffffffH
	DD	imagerel ??$construct@U_CAPTION_CHAR_DATA@@U1@@?$allocator_traits@V?$allocator@U_CAPTION_CHAR_DATA@@@std@@@std@@SAXAEAV?$allocator@U_CAPTION_CHAR_DATA@@@1@PEAU_CAPTION_CHAR_DATA@@$$QEAU3@@Z+31
	DD	00H
	DD	imagerel ??$construct@U_CAPTION_CHAR_DATA@@U1@@?$allocator_traits@V?$allocator@U_CAPTION_CHAR_DATA@@@std@@@std@@SAXAEAV?$allocator@U_CAPTION_CHAR_DATA@@@1@PEAU_CAPTION_CHAR_DATA@@$$QEAU3@@Z+48
	DD	0ffffffffH
xdata	ENDS
;	COMDAT xdata
xdata	SEGMENT
$stateUnwindMap$??$construct@U_CAPTION_CHAR_DATA@@U1@@?$allocator_traits@V?$allocator@U_CAPTION_CHAR_DATA@@@std@@@std@@SAXAEAV?$allocator@U_CAPTION_CHAR_DATA@@@1@PEAU_CAPTION_CHAR_DATA@@$$QEAU3@@Z DD 0ffffffffH
	DD	imagerel ?dtor$0@?0???$construct@U_CAPTION_CHAR_DATA@@U1@@?$allocator_traits@V?$allocator@U_CAPTION_CHAR_DATA@@@std@@@std@@SAXAEAV?$allocator@U_CAPTION_CHAR_DATA@@@1@PEAU_CAPTION_CHAR_DATA@@$$QEAU3@@Z@4HA
xdata	ENDS
;	COMDAT CONST
CONST	SEGMENT
$cppxdata$??$construct@U_CAPTION_CHAR_DATA@@U1@@?$allocator_traits@V?$allocator@U_CAPTION_CHAR_DATA@@@std@@@std@@SAXAEAV?$allocator@U_CAPTION_CHAR_DATA@@@1@PEAU_CAPTION_CHAR_DATA@@$$QEAU3@@Z DD 019930522H
	DD	01H
	DD	imagerel $stateUnwindMap$??$construct@U_CAPTION_CHAR_DATA@@U1@@?$allocator_traits@V?$allocator@U_CAPTION_CHAR_DATA@@@std@@@std@@SAXAEAV?$allocator@U_CAPTION_CHAR_DATA@@@1@PEAU_CAPTION_CHAR_DATA@@$$QEAU3@@Z
	DD	00H
	DD	00H
	DD	03H
	DD	imagerel $ip2state$??$construct@U_CAPTION_CHAR_DATA@@U1@@?$allocator_traits@V?$allocator@U_CAPTION_CHAR_DATA@@@std@@@std@@SAXAEAV?$allocator@U_CAPTION_CHAR_DATA@@@1@PEAU_CAPTION_CHAR_DATA@@$$QEAU3@@Z
	DD	020H
	DD	00H
	DD	01H
CONST	ENDS
;	COMDAT xdata
xdata	SEGMENT
$unwind$??$construct@U_CAPTION_CHAR_DATA@@U1@@?$allocator_traits@V?$allocator@U_CAPTION_CHAR_DATA@@@std@@@std@@SAXAEAV?$allocator@U_CAPTION_CHAR_DATA@@@1@PEAU_CAPTION_CHAR_DATA@@$$QEAU3@@Z DD 011711H
	DD	0620eH
	DD	imagerel __CxxFrameHandler3
	DD	imagerel $cppxdata$??$construct@U_CAPTION_CHAR_DATA@@U1@@?$allocator_traits@V?$allocator@U_CAPTION_CHAR_DATA@@@std@@@std@@SAXAEAV?$allocator@U_CAPTION_CHAR_DATA@@@1@PEAU_CAPTION_CHAR_DATA@@$$QEAU3@@Z
xdata	ENDS
;	COMDAT xdata
xdata	SEGMENT
$unwind$?dtor$0@?0???$construct@U_CAPTION_DATA@@U1@@?$allocator_traits@V?$allocator@U_CAPTION_DATA@@@std@@@std@@SAXAEAV?$allocator@U_CAPTION_DATA@@@1@PEAU_CAPTION_DATA@@$$QEAU3@@Z@4HA DD 020601H
	DD	050023206H
xdata	ENDS
;	COMDAT xdata
xdata	SEGMENT
$ip2state$??$construct@U_CAPTION_DATA@@U1@@?$allocator_traits@V?$allocator@U_CAPTION_DATA@@@std@@@std@@SAXAEAV?$allocator@U_CAPTION_DATA@@@1@PEAU_CAPTION_DATA@@$$QEAU3@@Z DD imagerel ??$construct@U_CAPTION_DATA@@U1@@?$allocator_traits@V?$allocator@U_CAPTION_DATA@@@std@@@std@@SAXAEAV?$allocator@U_CAPTION_DATA@@@1@PEAU_CAPTION_DATA@@$$QEAU3@@Z
	DD	0ffffffffH
	DD	imagerel ??$construct@U_CAPTION_DATA@@U1@@?$allocator_traits@V?$allocator@U_CAPTION_DATA@@@std@@@std@@SAXAEAV?$allocator@U_CAPTION_DATA@@@1@PEAU_CAPTION_DATA@@$$QEAU3@@Z+40
	DD	00H
	DD	imagerel ??$construct@U_CAPTION_DATA@@U1@@?$allocator_traits@V?$allocator@U_CAPTION_DATA@@@std@@@std@@SAXAEAV?$allocator@U_CAPTION_DATA@@@1@PEAU_CAPTION_DATA@@$$QEAU3@@Z+132
	DD	0ffffffffH
xdata	ENDS
;	COMDAT xdata
xdata	SEGMENT
$stateUnwindMap$??$construct@U_CAPTION_DATA@@U1@@?$allocator_traits@V?$allocator@U_CAPTION_DATA@@@std@@@std@@SAXAEAV?$allocator@U_CAPTION_DATA@@@1@PEAU_CAPTION_DATA@@$$QEAU3@@Z DD 0ffffffffH
	DD	imagerel ?dtor$0@?0???$construct@U_CAPTION_DATA@@U1@@?$allocator_traits@V?$allocator@U_CAPTION_DATA@@@std@@@std@@SAXAEAV?$allocator@U_CAPTION_DATA@@@1@PEAU_CAPTION_DATA@@$$QEAU3@@Z@4HA
xdata	ENDS
;	COMDAT CONST
CONST	SEGMENT
$cppxdata$??$construct@U_CAPTION_DATA@@U1@@?$allocator_traits@V?$allocator@U_CAPTION_DATA@@@std@@@std@@SAXAEAV?$allocator@U_CAPTION_DATA@@@1@PEAU_CAPTION_DATA@@$$QEAU3@@Z DD 019930522H
	DD	01H
	DD	imagerel $stateUnwindMap$??$construct@U_CAPTION_DATA@@U1@@?$allocator_traits@V?$allocator@U_CAPTION_DATA@@@std@@@std@@SAXAEAV?$allocator@U_CAPTION_DATA@@@1@PEAU_CAPTION_DATA@@$$QEAU3@@Z
	DD	00H
	DD	00H
	DD	03H
	DD	imagerel $ip2state$??$construct@U_CAPTION_DATA@@U1@@?$allocator_traits@V?$allocator@U_CAPTION_DATA@@@std@@@std@@SAXAEAV?$allocator@U_CAPTION_DATA@@@1@PEAU_CAPTION_DATA@@$$QEAU3@@Z
	DD	020H
	DD	00H
	DD	01H
CONST	ENDS
;	COMDAT xdata
xdata	SEGMENT
$unwind$??$construct@U_CAPTION_DATA@@U1@@?$allocator_traits@V?$allocator@U_CAPTION_DATA@@@std@@@std@@SAXAEAV?$allocator@U_CAPTION_DATA@@@1@PEAU_CAPTION_DATA@@$$QEAU3@@Z DD 041d11H
	DD	0a341dH
	DD	0700b520fH
	DD	imagerel __CxxFrameHandler3
	DD	imagerel $cppxdata$??$construct@U_CAPTION_DATA@@U1@@?$allocator_traits@V?$allocator@U_CAPTION_DATA@@@std@@@std@@SAXAEAV?$allocator@U_CAPTION_DATA@@@1@PEAU_CAPTION_DATA@@$$QEAU3@@Z
xdata	ENDS
;	COMDAT xdata
xdata	SEGMENT
$unwind$?catch$0@?0???$_Uninit_copy@V?$_Vector_const_iterator@V?$_Vector_val@U?$_Simple_types@U_CAPTION_CHAR_DATA@@@std@@@std@@@std@@PEAU_CAPTION_CHAR_DATA@@V?$allocator@U_CAPTION_CHAR_DATA@@@2@@std@@YAPEAU_CAPTION_CHAR_DATA@@V?$_Vector_const_iterator@V?$_Vector_val@U?$_Simple_types@U_CAPTION_CHAR_DATA@@@std@@@std@@@0@0PEAU1@AEAU?$_Wrap_alloc@V?$allocator@U_CAPTION_CHAR_DATA@@@std@@@0@U_Nonscalar_ptr_iterator_tag@0@@Z@4HA DD 040c19H
	DD	07008320cH
	DD	030065007H
	DD	imagerel __CxxFrameHandler3
	DD	imagerel $cppxdata$??$_Uninit_copy@V?$_Vector_const_iterator@V?$_Vector_val@U?$_Simple_types@U_CAPTION_CHAR_DATA@@@std@@@std@@@std@@PEAU_CAPTION_CHAR_DATA@@V?$allocator@U_CAPTION_CHAR_DATA@@@2@@std@@YAPEAU_CAPTION_CHAR_DATA@@V?$_Vector_const_iterator@V?$_Vector_val@U?$_Simple_types@U_CAPTION_CHAR_DATA@@@std@@@std@@@0@0PEAU1@AEAU?$_Wrap_alloc@V?$allocator@U_CAPTION_CHAR_DATA@@@std@@@0@U_Nonscalar_ptr_iterator_tag@0@@Z
xdata	ENDS
;	COMDAT xdata
xdata	SEGMENT
$unwind$?dtor$0@?0???$_Uninit_copy@V?$_Vector_const_iterator@V?$_Vector_val@U?$_Simple_types@U_CAPTION_CHAR_DATA@@@std@@@std@@@std@@PEAU_CAPTION_CHAR_DATA@@V?$allocator@U_CAPTION_CHAR_DATA@@@2@@std@@YAPEAU_CAPTION_CHAR_DATA@@V?$_Vector_const_iterator@V?$_Vector_val@U?$_Simple_types@U_CAPTION_CHAR_DATA@@@std@@@std@@@0@0PEAU1@AEAU?$_Wrap_alloc@V?$allocator@U_CAPTION_CHAR_DATA@@@std@@@0@U_Nonscalar_ptr_iterator_tag@0@@Z@4HA DD 020601H
	DD	050023206H
xdata	ENDS
;	COMDAT xdata
xdata	SEGMENT
$ip2state$??$_Uninit_copy@V?$_Vector_const_iterator@V?$_Vector_val@U?$_Simple_types@U_CAPTION_CHAR_DATA@@@std@@@std@@@std@@PEAU_CAPTION_CHAR_DATA@@V?$allocator@U_CAPTION_CHAR_DATA@@@2@@std@@YAPEAU_CAPTION_CHAR_DATA@@V?$_Vector_const_iterator@V?$_Vector_val@U?$_Simple_types@U_CAPTION_CHAR_DATA@@@std@@@std@@@0@0PEAU1@AEAU?$_Wrap_alloc@V?$allocator@U_CAPTION_CHAR_DATA@@@std@@@0@U_Nonscalar_ptr_iterator_tag@0@@Z DD imagerel ??$_Uninit_copy@V?$_Vector_const_iterator@V?$_Vector_val@U?$_Simple_types@U_CAPTION_CHAR_DATA@@@std@@@std@@@std@@PEAU_CAPTION_CHAR_DATA@@V?$allocator@U_CAPTION_CHAR_DATA@@@2@@std@@YAPEAU_CAPTION_CHAR_DATA@@V?$_Vector_const_iterator@V?$_Vector_val@U?$_Simple_types@U_CAPTION_CHAR_DATA@@@std@@@std@@@0@0PEAU1@AEAU?$_Wrap_alloc@V?$allocator@U_CAPTION_CHAR_DATA@@@std@@@0@U_Nonscalar_ptr_iterator_tag@0@@Z
	DD	0ffffffffH
	DD	imagerel ??$_Uninit_copy@V?$_Vector_const_iterator@V?$_Vector_val@U?$_Simple_types@U_CAPTION_CHAR_DATA@@@std@@@std@@@std@@PEAU_CAPTION_CHAR_DATA@@V?$allocator@U_CAPTION_CHAR_DATA@@@2@@std@@YAPEAU_CAPTION_CHAR_DATA@@V?$_Vector_const_iterator@V?$_Vector_val@U?$_Simple_types@U_CAPTION_CHAR_DATA@@@std@@@std@@@0@0PEAU1@AEAU?$_Wrap_alloc@V?$allocator@U_CAPTION_CHAR_DATA@@@std@@@0@U_Nonscalar_ptr_iterator_tag@0@@Z+47
	DD	00H
	DD	imagerel ??$_Uninit_copy@V?$_Vector_const_iterator@V?$_Vector_val@U?$_Simple_types@U_CAPTION_CHAR_DATA@@@std@@@std@@@std@@PEAU_CAPTION_CHAR_DATA@@V?$allocator@U_CAPTION_CHAR_DATA@@@2@@std@@YAPEAU_CAPTION_CHAR_DATA@@V?$_Vector_const_iterator@V?$_Vector_val@U?$_Simple_types@U_CAPTION_CHAR_DATA@@@std@@@std@@@0@0PEAU1@AEAU?$_Wrap_alloc@V?$allocator@U_CAPTION_CHAR_DATA@@@std@@@0@U_Nonscalar_ptr_iterator_tag@0@@Z+63
	DD	01H
	DD	imagerel ??$_Uninit_copy@V?$_Vector_const_iterator@V?$_Vector_val@U?$_Simple_types@U_CAPTION_CHAR_DATA@@@std@@@std@@@std@@PEAU_CAPTION_CHAR_DATA@@V?$allocator@U_CAPTION_CHAR_DATA@@@2@@std@@YAPEAU_CAPTION_CHAR_DATA@@V?$_Vector_const_iterator@V?$_Vector_val@U?$_Simple_types@U_CAPTION_CHAR_DATA@@@std@@@std@@@0@0PEAU1@AEAU?$_Wrap_alloc@V?$allocator@U_CAPTION_CHAR_DATA@@@std@@@0@U_Nonscalar_ptr_iterator_tag@0@@Z+209
	DD	00H
	DD	imagerel ??$_Uninit_copy@V?$_Vector_const_iterator@V?$_Vector_val@U?$_Simple_types@U_CAPTION_CHAR_DATA@@@std@@@std@@@std@@PEAU_CAPTION_CHAR_DATA@@V?$allocator@U_CAPTION_CHAR_DATA@@@2@@std@@YAPEAU_CAPTION_CHAR_DATA@@V?$_Vector_const_iterator@V?$_Vector_val@U?$_Simple_types@U_CAPTION_CHAR_DATA@@@std@@@std@@@0@0PEAU1@AEAU?$_Wrap_alloc@V?$allocator@U_CAPTION_CHAR_DATA@@@std@@@0@U_Nonscalar_ptr_iterator_tag@0@@Z+232
	DD	0ffffffffH
	DD	imagerel ?catch$0@?0???$_Uninit_copy@V?$_Vector_const_iterator@V?$_Vector_val@U?$_Simple_types@U_CAPTION_CHAR_DATA@@@std@@@std@@@std@@PEAU_CAPTION_CHAR_DATA@@V?$allocator@U_CAPTION_CHAR_DATA@@@2@@std@@YAPEAU_CAPTION_CHAR_DATA@@V?$_Vector_const_iterator@V?$_Vector_val@U?$_Simple_types@U_CAPTION_CHAR_DATA@@@std@@@std@@@0@0PEAU1@AEAU?$_Wrap_alloc@V?$allocator@U_CAPTION_CHAR_DATA@@@std@@@0@U_Nonscalar_ptr_iterator_tag@0@@Z@4HA
	DD	00H
	DD	imagerel ?catch$0@?0???$_Uninit_copy@V?$_Vector_const_iterator@V?$_Vector_val@U?$_Simple_types@U_CAPTION_CHAR_DATA@@@std@@@std@@@std@@PEAU_CAPTION_CHAR_DATA@@V?$allocator@U_CAPTION_CHAR_DATA@@@2@@std@@YAPEAU_CAPTION_CHAR_DATA@@V?$_Vector_const_iterator@V?$_Vector_val@U?$_Simple_types@U_CAPTION_CHAR_DATA@@@std@@@std@@@0@0PEAU1@AEAU?$_Wrap_alloc@V?$allocator@U_CAPTION_CHAR_DATA@@@std@@@0@U_Nonscalar_ptr_iterator_tag@0@@Z@4HA+15
	DD	02H
xdata	ENDS
;	COMDAT xdata
xdata	SEGMENT
$handlerMap$0$??$_Uninit_copy@V?$_Vector_const_iterator@V?$_Vector_val@U?$_Simple_types@U_CAPTION_CHAR_DATA@@@std@@@std@@@std@@PEAU_CAPTION_CHAR_DATA@@V?$allocator@U_CAPTION_CHAR_DATA@@@2@@std@@YAPEAU_CAPTION_CHAR_DATA@@V?$_Vector_const_iterator@V?$_Vector_val@U?$_Simple_types@U_CAPTION_CHAR_DATA@@@std@@@std@@@0@0PEAU1@AEAU?$_Wrap_alloc@V?$allocator@U_CAPTION_CHAR_DATA@@@std@@@0@U_Nonscalar_ptr_iterator_tag@0@@Z DD 040H
	DD	00H
	DD	00H
	DD	imagerel ?catch$0@?0???$_Uninit_copy@V?$_Vector_const_iterator@V?$_Vector_val@U?$_Simple_types@U_CAPTION_CHAR_DATA@@@std@@@std@@@std@@PEAU_CAPTION_CHAR_DATA@@V?$allocator@U_CAPTION_CHAR_DATA@@@2@@std@@YAPEAU_CAPTION_CHAR_DATA@@V?$_Vector_const_iterator@V?$_Vector_val@U?$_Simple_types@U_CAPTION_CHAR_DATA@@@std@@@std@@@0@0PEAU1@AEAU?$_Wrap_alloc@V?$allocator@U_CAPTION_CHAR_DATA@@@std@@@0@U_Nonscalar_ptr_iterator_tag@0@@Z@4HA
	DD	048H
xdata	ENDS
;	COMDAT xdata
xdata	SEGMENT
$tryMap$??$_Uninit_copy@V?$_Vector_const_iterator@V?$_Vector_val@U?$_Simple_types@U_CAPTION_CHAR_DATA@@@std@@@std@@@std@@PEAU_CAPTION_CHAR_DATA@@V?$allocator@U_CAPTION_CHAR_DATA@@@2@@std@@YAPEAU_CAPTION_CHAR_DATA@@V?$_Vector_const_iterator@V?$_Vector_val@U?$_Simple_types@U_CAPTION_CHAR_DATA@@@std@@@std@@@0@0PEAU1@AEAU?$_Wrap_alloc@V?$allocator@U_CAPTION_CHAR_DATA@@@std@@@0@U_Nonscalar_ptr_iterator_tag@0@@Z DD 00H
	DD	01H
	DD	02H
	DD	01H
	DD	imagerel $handlerMap$0$??$_Uninit_copy@V?$_Vector_const_iterator@V?$_Vector_val@U?$_Simple_types@U_CAPTION_CHAR_DATA@@@std@@@std@@@std@@PEAU_CAPTION_CHAR_DATA@@V?$allocator@U_CAPTION_CHAR_DATA@@@2@@std@@YAPEAU_CAPTION_CHAR_DATA@@V?$_Vector_const_iterator@V?$_Vector_val@U?$_Simple_types@U_CAPTION_CHAR_DATA@@@std@@@std@@@0@0PEAU1@AEAU?$_Wrap_alloc@V?$allocator@U_CAPTION_CHAR_DATA@@@std@@@0@U_Nonscalar_ptr_iterator_tag@0@@Z
xdata	ENDS
;	COMDAT xdata
xdata	SEGMENT
$stateUnwindMap$??$_Uninit_copy@V?$_Vector_const_iterator@V?$_Vector_val@U?$_Simple_types@U_CAPTION_CHAR_DATA@@@std@@@std@@@std@@PEAU_CAPTION_CHAR_DATA@@V?$allocator@U_CAPTION_CHAR_DATA@@@2@@std@@YAPEAU_CAPTION_CHAR_DATA@@V?$_Vector_const_iterator@V?$_Vector_val@U?$_Simple_types@U_CAPTION_CHAR_DATA@@@std@@@std@@@0@0PEAU1@AEAU?$_Wrap_alloc@V?$allocator@U_CAPTION_CHAR_DATA@@@std@@@0@U_Nonscalar_ptr_iterator_tag@0@@Z DD 0ffffffffH
	DD	00H
	DD	00H
	DD	imagerel ?dtor$0@?0???$_Uninit_copy@V?$_Vector_const_iterator@V?$_Vector_val@U?$_Simple_types@U_CAPTION_CHAR_DATA@@@std@@@std@@@std@@PEAU_CAPTION_CHAR_DATA@@V?$allocator@U_CAPTION_CHAR_DATA@@@2@@std@@YAPEAU_CAPTION_CHAR_DATA@@V?$_Vector_const_iterator@V?$_Vector_val@U?$_Simple_types@U_CAPTION_CHAR_DATA@@@std@@@std@@@0@0PEAU1@AEAU?$_Wrap_alloc@V?$allocator@U_CAPTION_CHAR_DATA@@@std@@@0@U_Nonscalar_ptr_iterator_tag@0@@Z@4HA
	DD	0ffffffffH
	DD	00H
xdata	ENDS
;	COMDAT CONST
CONST	SEGMENT
$cppxdata$??$_Uninit_copy@V?$_Vector_const_iterator@V?$_Vector_val@U?$_Simple_types@U_CAPTION_CHAR_DATA@@@std@@@std@@@std@@PEAU_CAPTION_CHAR_DATA@@V?$allocator@U_CAPTION_CHAR_DATA@@@2@@std@@YAPEAU_CAPTION_CHAR_DATA@@V?$_Vector_const_iterator@V?$_Vector_val@U?$_Simple_types@U_CAPTION_CHAR_DATA@@@std@@@std@@@0@0PEAU1@AEAU?$_Wrap_alloc@V?$allocator@U_CAPTION_CHAR_DATA@@@std@@@0@U_Nonscalar_ptr_iterator_tag@0@@Z DD 019930522H
	DD	03H
	DD	imagerel $stateUnwindMap$??$_Uninit_copy@V?$_Vector_const_iterator@V?$_Vector_val@U?$_Simple_types@U_CAPTION_CHAR_DATA@@@std@@@std@@@std@@PEAU_CAPTION_CHAR_DATA@@V?$allocator@U_CAPTION_CHAR_DATA@@@2@@std@@YAPEAU_CAPTION_CHAR_DATA@@V?$_Vector_const_iterator@V?$_Vector_val@U?$_Simple_types@U_CAPTION_CHAR_DATA@@@std@@@std@@@0@0PEAU1@AEAU?$_Wrap_alloc@V?$allocator@U_CAPTION_CHAR_DATA@@@std@@@0@U_Nonscalar_ptr_iterator_tag@0@@Z
	DD	01H
	DD	imagerel $tryMap$??$_Uninit_copy@V?$_Vector_const_iterator@V?$_Vector_val@U?$_Simple_types@U_CAPTION_CHAR_DATA@@@std@@@std@@@std@@PEAU_CAPTION_CHAR_DATA@@V?$allocator@U_CAPTION_CHAR_DATA@@@2@@std@@YAPEAU_CAPTION_CHAR_DATA@@V?$_Vector_const_iterator@V?$_Vector_val@U?$_Simple_types@U_CAPTION_CHAR_DATA@@@std@@@std@@@0@0PEAU1@AEAU?$_Wrap_alloc@V?$allocator@U_CAPTION_CHAR_DATA@@@std@@@0@U_Nonscalar_ptr_iterator_tag@0@@Z
	DD	07H
	DD	imagerel $ip2state$??$_Uninit_copy@V?$_Vector_const_iterator@V?$_Vector_val@U?$_Simple_types@U_CAPTION_CHAR_DATA@@@std@@@std@@@std@@PEAU_CAPTION_CHAR_DATA@@V?$allocator@U_CAPTION_CHAR_DATA@@@2@@std@@YAPEAU_CAPTION_CHAR_DATA@@V?$_Vector_const_iterator@V?$_Vector_val@U?$_Simple_types@U_CAPTION_CHAR_DATA@@@std@@@std@@@0@0PEAU1@AEAU?$_Wrap_alloc@V?$allocator@U_CAPTION_CHAR_DATA@@@std@@@0@U_Nonscalar_ptr_iterator_tag@0@@Z
	DD	020H
	DD	00H
	DD	01H
CONST	ENDS
;	COMDAT xdata
xdata	SEGMENT
$unwind$??$_Uninit_copy@V?$_Vector_const_iterator@V?$_Vector_val@U?$_Simple_types@U_CAPTION_CHAR_DATA@@@std@@@std@@@std@@PEAU_CAPTION_CHAR_DATA@@V?$allocator@U_CAPTION_CHAR_DATA@@@2@@std@@YAPEAU_CAPTION_CHAR_DATA@@V?$_Vector_const_iterator@V?$_Vector_val@U?$_Simple_types@U_CAPTION_CHAR_DATA@@@std@@@std@@@0@0PEAU1@AEAU?$_Wrap_alloc@V?$allocator@U_CAPTION_CHAR_DATA@@@std@@@0@U_Nonscalar_ptr_iterator_tag@0@@Z DD 042419H
	DD	07017521bH
	DD	030156016H
	DD	imagerel __CxxFrameHandler3
	DD	imagerel $cppxdata$??$_Uninit_copy@V?$_Vector_const_iterator@V?$_Vector_val@U?$_Simple_types@U_CAPTION_CHAR_DATA@@@std@@@std@@@std@@PEAU_CAPTION_CHAR_DATA@@V?$allocator@U_CAPTION_CHAR_DATA@@@2@@std@@YAPEAU_CAPTION_CHAR_DATA@@V?$_Vector_const_iterator@V?$_Vector_val@U?$_Simple_types@U_CAPTION_CHAR_DATA@@@std@@@std@@@0@0PEAU1@AEAU?$_Wrap_alloc@V?$allocator@U_CAPTION_CHAR_DATA@@@std@@@0@U_Nonscalar_ptr_iterator_tag@0@@Z
xdata	ENDS
;	COMDAT xdata
xdata	SEGMENT
$unwind$?dtor$0@?0???$construct@U_CAPTION_CHAR_DATA@@U1@@?$allocator@U_CAPTION_CHAR_DATA@@@std@@QEAAXPEAU_CAPTION_CHAR_DATA@@$$QEAU2@@Z@4HA DD 020601H
	DD	050023206H
xdata	ENDS
;	COMDAT xdata
xdata	SEGMENT
$ip2state$??$construct@U_CAPTION_CHAR_DATA@@U1@@?$allocator@U_CAPTION_CHAR_DATA@@@std@@QEAAXPEAU_CAPTION_CHAR_DATA@@$$QEAU2@@Z DD imagerel ??$construct@U_CAPTION_CHAR_DATA@@U1@@?$allocator@U_CAPTION_CHAR_DATA@@@std@@QEAAXPEAU_CAPTION_CHAR_DATA@@$$QEAU2@@Z
	DD	0ffffffffH
	DD	imagerel ??$construct@U_CAPTION_CHAR_DATA@@U1@@?$allocator@U_CAPTION_CHAR_DATA@@@std@@QEAAXPEAU_CAPTION_CHAR_DATA@@$$QEAU2@@Z+31
	DD	00H
	DD	imagerel ??$construct@U_CAPTION_CHAR_DATA@@U1@@?$allocator@U_CAPTION_CHAR_DATA@@@std@@QEAAXPEAU_CAPTION_CHAR_DATA@@$$QEAU2@@Z+48
	DD	0ffffffffH
xdata	ENDS
;	COMDAT xdata
xdata	SEGMENT
$stateUnwindMap$??$construct@U_CAPTION_CHAR_DATA@@U1@@?$allocator@U_CAPTION_CHAR_DATA@@@std@@QEAAXPEAU_CAPTION_CHAR_DATA@@$$QEAU2@@Z DD 0ffffffffH
	DD	imagerel ?dtor$0@?0???$construct@U_CAPTION_CHAR_DATA@@U1@@?$allocator@U_CAPTION_CHAR_DATA@@@std@@QEAAXPEAU_CAPTION_CHAR_DATA@@$$QEAU2@@Z@4HA
xdata	ENDS
;	COMDAT CONST
CONST	SEGMENT
$cppxdata$??$construct@U_CAPTION_CHAR_DATA@@U1@@?$allocator@U_CAPTION_CHAR_DATA@@@std@@QEAAXPEAU_CAPTION_CHAR_DATA@@$$QEAU2@@Z DD 019930522H
	DD	01H
	DD	imagerel $stateUnwindMap$??$construct@U_CAPTION_CHAR_DATA@@U1@@?$allocator@U_CAPTION_CHAR_DATA@@@std@@QEAAXPEAU_CAPTION_CHAR_DATA@@$$QEAU2@@Z
	DD	00H
	DD	00H
	DD	03H
	DD	imagerel $ip2state$??$construct@U_CAPTION_CHAR_DATA@@U1@@?$allocator@U_CAPTION_CHAR_DATA@@@std@@QEAAXPEAU_CAPTION_CHAR_DATA@@$$QEAU2@@Z
	DD	020H
	DD	00H
	DD	01H
CONST	ENDS
;	COMDAT xdata
xdata	SEGMENT
$unwind$??$construct@U_CAPTION_CHAR_DATA@@U1@@?$allocator@U_CAPTION_CHAR_DATA@@@std@@QEAAXPEAU_CAPTION_CHAR_DATA@@$$QEAU2@@Z DD 011711H
	DD	0620eH
	DD	imagerel __CxxFrameHandler3
	DD	imagerel $cppxdata$??$construct@U_CAPTION_CHAR_DATA@@U1@@?$allocator@U_CAPTION_CHAR_DATA@@@std@@QEAAXPEAU_CAPTION_CHAR_DATA@@$$QEAU2@@Z
xdata	ENDS
;	COMDAT xdata
xdata	SEGMENT
$unwind$?dtor$0@?0???$construct@U_CAPTION_DATA@@U1@@?$allocator@U_CAPTION_DATA@@@std@@QEAAXPEAU_CAPTION_DATA@@$$QEAU2@@Z@4HA DD 020601H
	DD	050023206H
xdata	ENDS
;	COMDAT xdata
xdata	SEGMENT
$ip2state$??$construct@U_CAPTION_DATA@@U1@@?$allocator@U_CAPTION_DATA@@@std@@QEAAXPEAU_CAPTION_DATA@@$$QEAU2@@Z DD imagerel ??$construct@U_CAPTION_DATA@@U1@@?$allocator@U_CAPTION_DATA@@@std@@QEAAXPEAU_CAPTION_DATA@@$$QEAU2@@Z
	DD	0ffffffffH
	DD	imagerel ??$construct@U_CAPTION_DATA@@U1@@?$allocator@U_CAPTION_DATA@@@std@@QEAAXPEAU_CAPTION_DATA@@$$QEAU2@@Z+40
	DD	00H
	DD	imagerel ??$construct@U_CAPTION_DATA@@U1@@?$allocator@U_CAPTION_DATA@@@std@@QEAAXPEAU_CAPTION_DATA@@$$QEAU2@@Z+132
	DD	0ffffffffH
xdata	ENDS
;	COMDAT xdata
xdata	SEGMENT
$stateUnwindMap$??$construct@U_CAPTION_DATA@@U1@@?$allocator@U_CAPTION_DATA@@@std@@QEAAXPEAU_CAPTION_DATA@@$$QEAU2@@Z DD 0ffffffffH
	DD	imagerel ?dtor$0@?0???$construct@U_CAPTION_DATA@@U1@@?$allocator@U_CAPTION_DATA@@@std@@QEAAXPEAU_CAPTION_DATA@@$$QEAU2@@Z@4HA
xdata	ENDS
;	COMDAT CONST
CONST	SEGMENT
$cppxdata$??$construct@U_CAPTION_DATA@@U1@@?$allocator@U_CAPTION_DATA@@@std@@QEAAXPEAU_CAPTION_DATA@@$$QEAU2@@Z DD 019930522H
	DD	01H
	DD	imagerel $stateUnwindMap$??$construct@U_CAPTION_DATA@@U1@@?$allocator@U_CAPTION_DATA@@@std@@QEAAXPEAU_CAPTION_DATA@@$$QEAU2@@Z
	DD	00H
	DD	00H
	DD	03H
	DD	imagerel $ip2state$??$construct@U_CAPTION_DATA@@U1@@?$allocator@U_CAPTION_DATA@@@std@@QEAAXPEAU_CAPTION_DATA@@$$QEAU2@@Z
	DD	020H
	DD	00H
	DD	01H
CONST	ENDS
;	COMDAT xdata
xdata	SEGMENT
$unwind$??$construct@U_CAPTION_DATA@@U1@@?$allocator@U_CAPTION_DATA@@@std@@QEAAXPEAU_CAPTION_DATA@@$$QEAU2@@Z DD 041d11H
	DD	0a341dH
	DD	0700b520fH
	DD	imagerel __CxxFrameHandler3
	DD	imagerel $cppxdata$??$construct@U_CAPTION_DATA@@U1@@?$allocator@U_CAPTION_DATA@@@std@@QEAAXPEAU_CAPTION_DATA@@$$QEAU2@@Z
; Function compile flags: /Ogtpy
;	COMDAT ??0CCaptionDllUtil@@QEAA@XZ
_TEXT	SEGMENT
this$ = 8
??0CCaptionDllUtil@@QEAA@XZ PROC			; CCaptionDllUtil::CCaptionDllUtil, COMDAT
; File e:\project\other\caption2ass-master\caption2ass_pcr\captiondllutil.cpp
; Line 12
	mov	QWORD PTR [rcx], 0
; Line 13
	mov	rax, rcx
	ret	0
??0CCaptionDllUtil@@QEAA@XZ ENDP			; CCaptionDllUtil::CCaptionDllUtil
_TEXT	ENDS
; Function compile flags: /Ogtpy
;	COMDAT ??1CCaptionDllUtil@@QEAA@XZ
_TEXT	SEGMENT
this$ = 48
??1CCaptionDllUtil@@QEAA@XZ PROC			; CCaptionDllUtil::~CCaptionDllUtil, COMDAT
; File e:\project\other\caption2ass-master\caption2ass_pcr\captiondllutil.cpp
; Line 16
$LN8:
	push	rbx
	sub	rsp, 32					; 00000020H
; Line 65
	cmp	QWORD PTR [rcx], 0
; Line 16
	mov	rbx, rcx
; Line 65
	je	SHORT $LN6@CCaptionDl
; Line 66
	call	QWORD PTR [rcx+24]
; Line 67
	mov	rcx, QWORD PTR [rbx]
	call	QWORD PTR __imp_FreeLibrary
; Line 69
	mov	QWORD PTR [rbx], 0
; Line 18
	add	rsp, 32					; 00000020H
	pop	rbx
	ret	0
$LN6@CCaptionDl:
; Line 69
	mov	QWORD PTR [rcx], 0
; Line 18
	add	rsp, 32					; 00000020H
	pop	rbx
	ret	0
??1CCaptionDllUtil@@QEAA@XZ ENDP			; CCaptionDllUtil::~CCaptionDllUtil
_TEXT	ENDS
; Function compile flags: /Ogtpy
;	COMDAT ?Initialize@CCaptionDllUtil@@QEAAKXZ
_TEXT	SEGMENT
this$ = 8
?Initialize@CCaptionDllUtil@@QEAAKXZ PROC		; CCaptionDllUtil::Initialize, COMDAT
; File e:\project\other\caption2ass-master\caption2ass_pcr\captiondllutil.cpp
; Line 94
	mov	rax, QWORD PTR [rcx+8]
	test	rax, rax
	jne	SHORT $LN1@Initialize
; Line 95
	mov	eax, 10
; Line 97
	ret	0
$LN1@Initialize:
; Line 96
	rex_jmp	rax
?Initialize@CCaptionDllUtil@@QEAAKXZ ENDP		; CCaptionDllUtil::Initialize
_TEXT	ENDS
; Function compile flags: /Ogtpy
;	COMDAT ?CheckUNICODE@CCaptionDllUtil@@QEAAHXZ
_TEXT	SEGMENT
this$ = 48
?CheckUNICODE@CCaptionDllUtil@@QEAAHXZ PROC		; CCaptionDllUtil::CheckUNICODE, COMDAT
; File e:\project\other\caption2ass-master\caption2ass_pcr\captiondllutil.cpp
; Line 74
$LN7:
	mov	QWORD PTR [rsp+8], rbx
	push	rdi
	sub	rsp, 32					; 00000020H
; Line 75
	xor	edi, edi
	mov	rbx, rcx
	mov	QWORD PTR [rcx+16], rdi
; Line 76
	cmp	QWORD PTR [rcx], rdi
	jne	SHORT $LN2@CheckUNICO
; Line 77
	call	?LoadDll@CCaptionDllUtil@@IEAAHXZ	; CCaptionDllUtil::LoadDll
	test	eax, eax
	jne	SHORT $LN2@CheckUNICO
; Line 84
	mov	rbx, QWORD PTR [rsp+48]
	add	rsp, 32					; 00000020H
	pop	rdi
	ret	0
$LN2@CheckUNICO:
; Line 80
	mov	rcx, QWORD PTR [rbx]
	lea	rdx, OFFSET FLAT:??_C@_0BC@IHBNLMIB@InitializeUNICODE?$AA@
	call	QWORD PTR __imp_GetProcAddress
; Line 81
	test	rax, rax
	mov	QWORD PTR [rbx+16], rax
; Line 84
	mov	rbx, QWORD PTR [rsp+48]
	setne	dil
	mov	eax, edi
	add	rsp, 32					; 00000020H
	pop	rdi
	ret	0
?CheckUNICODE@CCaptionDllUtil@@QEAAHXZ ENDP		; CCaptionDllUtil::CheckUNICODE
_TEXT	ENDS
; Function compile flags: /Ogtpy
;	COMDAT ?InitializeUNICODE@CCaptionDllUtil@@QEAAKXZ
_TEXT	SEGMENT
this$ = 8
?InitializeUNICODE@CCaptionDllUtil@@QEAAKXZ PROC	; CCaptionDllUtil::InitializeUNICODE, COMDAT
; File e:\project\other\caption2ass-master\caption2ass_pcr\captiondllutil.cpp
; Line 87
	mov	rax, QWORD PTR [rcx+16]
	test	rax, rax
	jne	SHORT $LN1@Initialize
; Line 88
	mov	eax, 10
; Line 90
	ret	0
$LN1@Initialize:
; Line 89
	rex_jmp	rax
?InitializeUNICODE@CCaptionDllUtil@@QEAAKXZ ENDP	; CCaptionDllUtil::InitializeUNICODE
_TEXT	ENDS
; Function compile flags: /Ogtpy
;	COMDAT ?AddTSPacket@CCaptionDllUtil@@QEAAKPEAE@Z
_TEXT	SEGMENT
this$ = 8
pbPacket$ = 16
?AddTSPacket@CCaptionDllUtil@@QEAAKPEAE@Z PROC		; CCaptionDllUtil::AddTSPacket, COMDAT
; File e:\project\other\caption2ass-master\caption2ass_pcr\captiondllutil.cpp
; Line 110
	cmp	QWORD PTR [rcx], 0
	mov	rax, rcx
	jne	SHORT $LN1@AddTSPacke
; Line 111
	mov	eax, 10
; Line 113
	ret	0
$LN1@AddTSPacke:
; Line 112
	mov	rcx, rdx
	rex_jmp	QWORD PTR [rax+32]
?AddTSPacket@CCaptionDllUtil@@QEAAKPEAE@Z ENDP		; CCaptionDllUtil::AddTSPacket
_TEXT	ENDS
; Function compile flags: /Ogtpy
;	COMDAT ?GetTagInfo@CCaptionDllUtil@@QEAAKPEAV?$vector@U_LANG_TAG_INFO@@V?$allocator@U_LANG_TAG_INFO@@@std@@@std@@@Z
_TEXT	SEGMENT
dwListCount$ = 32
pListDll$ = 40
Item$1 = 48
__$ArrayPad$ = 64
this$ = 112
pList$ = 120
?GetTagInfo@CCaptionDllUtil@@QEAAKPEAV?$vector@U_LANG_TAG_INFO@@V?$allocator@U_LANG_TAG_INFO@@@std@@@std@@@Z PROC ; CCaptionDllUtil::GetTagInfo, COMDAT
; File e:\project\other\caption2ass-master\caption2ass_pcr\captiondllutil.cpp
; Line 137
$LN73:
	push	rbx
	push	rbp
	sub	rsp, 88					; 00000058H
	mov	rax, QWORD PTR __security_cookie
	xor	rax, rsp
	mov	QWORD PTR __$ArrayPad$[rsp], rax
	mov	rbx, rdx
	mov	rax, rcx
; Line 144
	lea	rdx, QWORD PTR dwListCount$[rsp]
	lea	rcx, QWORD PTR pListDll$[rsp]
	call	QWORD PTR [rax+48]
	mov	ebp, eax
; Line 145
	cmp	eax, 1
	jne	$LN1@GetTagInfo
; Line 146
	mov	QWORD PTR [rsp+128], rsi
	xor	esi, esi
	cmp	DWORD PTR dwListCount$[rsp], esi
	jbe	$LN70@GetTagInfo
	mov	QWORD PTR [rsp+80], r14
	mov	r14, 7378697629483820647		; 6666666666666667H
	mov	QWORD PTR [rsp+136], rdi
	npad	1
$LL3@GetTagInfo:
; Line 148
	mov	rax, QWORD PTR pListDll$[rsp]
; File e:\software\develop\vs2012\vc\include\vector
; Line 1496
	mov	r8, QWORD PTR [rbx+8]
; File e:\project\other\caption2ass-master\caption2ass_pcr\captiondllutil.cpp
; Line 148
	lea	rdx, QWORD PTR [rsi+rsi*4]
	lea	rcx, QWORD PTR [rax+rdx*2]
	movzx	eax, BYTE PTR [rax+rdx*2]
	mov	BYTE PTR Item$1[rsp], al
; Line 149
	movzx	eax, BYTE PTR [rcx+1]
	mov	BYTE PTR Item$1[rsp+1], al
; Line 150
	movzx	eax, BYTE PTR [rcx+2]
	mov	BYTE PTR Item$1[rsp+2], al
; Line 151
	mov	eax, DWORD PTR [rcx+3]
	mov	DWORD PTR Item$1[rsp+3], eax
; Line 152
	movzx	eax, BYTE PTR [rcx+7]
	mov	BYTE PTR Item$1[rsp+7], al
; Line 153
	movzx	eax, BYTE PTR [rcx+8]
	mov	BYTE PTR Item$1[rsp+8], al
; Line 154
	movzx	eax, BYTE PTR [rcx+9]
	mov	BYTE PTR Item$1[rsp+9], al
; File e:\software\develop\vs2012\vc\include\vector
; Line 1496
	lea	rax, QWORD PTR Item$1[rsp]
	cmp	rax, r8
	jae	SHORT $LN15@GetTagInfo
	mov	rax, QWORD PTR [rbx]
	lea	rcx, QWORD PTR Item$1[rsp]
	cmp	rax, rcx
	ja	SHORT $LN15@GetTagInfo
; Line 1187
	lea	rcx, QWORD PTR Item$1[rsp]
	sub	rcx, rax
	mov	rax, r14
	imul	rcx
	mov	rdi, rdx
	sar	rdi, 2
	mov	rax, rdi
	shr	rax, 63					; 0000003fH
	add	rdi, rax
; Line 1188
	cmp	r8, QWORD PTR [rbx+16]
	jne	SHORT $LN14@GetTagInfo
; Line 1189
	mov	rcx, rbx
	call	?_Reserve@?$vector@U_LANG_TAG_INFO@@V?$allocator@U_LANG_TAG_INFO@@@std@@@std@@IEAAX_K@Z ; std::vector<_LANG_TAG_INFO,std::allocator<_LANG_TAG_INFO> >::_Reserve
$LN14@GetTagInfo:
; Line 1192
	mov	rax, QWORD PTR [rbx]
	lea	rcx, QWORD PTR [rdi+rdi*4]
	lea	rdx, QWORD PTR [rax+rcx*2]
; File e:\software\develop\vs2012\vc\include\xmemory0
; Line 617
	mov	rcx, QWORD PTR [rbx+8]
	test	rcx, rcx
	je	SHORT $LN60@GetTagInfo
	mov	rax, QWORD PTR [rdx]
	mov	QWORD PTR [rcx], rax
	movzx	eax, WORD PTR [rdx+8]
; File e:\software\develop\vs2012\vc\include\vector
; Line 1195
	jmp	SHORT $LN71@GetTagInfo
$LN15@GetTagInfo:
; Line 1197
	cmp	r8, QWORD PTR [rbx+16]
	jne	SHORT $LN12@GetTagInfo
; Line 1198
	mov	rcx, rbx
	call	?_Reserve@?$vector@U_LANG_TAG_INFO@@V?$allocator@U_LANG_TAG_INFO@@@std@@@std@@IEAAX_K@Z ; std::vector<_LANG_TAG_INFO,std::allocator<_LANG_TAG_INFO> >::_Reserve
$LN12@GetTagInfo:
; File e:\software\develop\vs2012\vc\include\xmemory0
; Line 606
	mov	rcx, QWORD PTR [rbx+8]
	test	rcx, rcx
	je	SHORT $LN60@GetTagInfo
	mov	rax, QWORD PTR Item$1[rsp]
	mov	QWORD PTR [rcx], rax
	movzx	eax, WORD PTR Item$1[rsp+8]
$LN71@GetTagInfo:
	mov	WORD PTR [rcx+8], ax
$LN60@GetTagInfo:
; File e:\software\develop\vs2012\vc\include\vector
; Line 1202
	add	QWORD PTR [rbx+8], 10
; File e:\project\other\caption2ass-master\caption2ass_pcr\captiondllutil.cpp
; Line 146
	inc	esi
	cmp	esi, DWORD PTR dwListCount$[rsp]
	jb	$LL3@GetTagInfo
; Line 158
	mov	r14, QWORD PTR [rsp+80]
	mov	rdi, QWORD PTR [rsp+136]
	mov	eax, ebp
$LN70@GetTagInfo:
	mov	rsi, QWORD PTR [rsp+128]
$LN1@GetTagInfo:
; Line 159
	mov	rcx, QWORD PTR __$ArrayPad$[rsp]
	xor	rcx, rsp
	call	__security_check_cookie
	add	rsp, 88					; 00000058H
	pop	rbp
	pop	rbx
	ret	0
?GetTagInfo@CCaptionDllUtil@@QEAAKPEAV?$vector@U_LANG_TAG_INFO@@V?$allocator@U_LANG_TAG_INFO@@@std@@@std@@@Z ENDP ; CCaptionDllUtil::GetTagInfo
_TEXT	ENDS
; Function compile flags: /Ogtpy
;	COMDAT ?GetCaptionData@CCaptionDllUtil@@QEAAKEPEAV?$vector@U_CAPTION_DATA@@V?$allocator@U_CAPTION_DATA@@@std@@@std@@@Z
_TEXT	SEGMENT
dwListCount$ = 32
pListDll$ = 40
dwRet$1$ = 48
Item$1 = 56
pList$GSCopy$1$ = 112
$T2 = 120
$T3 = 120
$T4 = 128
$T5 = 128
$T6 = 136
ItemChar$7 = 144
__$ArrayPad$ = 224
this$ = 304
pList$ = 312
?GetCaptionData@CCaptionDllUtil@@QEAAKEPEAV?$vector@U_CAPTION_DATA@@V?$allocator@U_CAPTION_DATA@@@std@@@std@@@Z PROC ; CCaptionDllUtil::GetCaptionData, COMDAT
; File e:\project\other\caption2ass-master\caption2ass_pcr\captiondllutil.cpp
; Line 162
$LN421:
	push	rbp
	push	rsi
	push	rdi
	push	r12
	push	r13
	push	r14
	push	r15
	lea	rbp, QWORD PTR [rsp-39]
	sub	rsp, 240				; 000000f0H
	mov	QWORD PTR $T6[rbp-201], -2
	mov	QWORD PTR [rsp+320], rbx
	mov	rax, QWORD PTR __security_cookie
	xor	rax, rsp
	mov	QWORD PTR __$ArrayPad$[rbp-201], rax
	mov	QWORD PTR pList$GSCopy$1$[rbp-201], rdx
	mov	rax, rcx
; Line 167
	mov	DWORD PTR dwListCount$[rsp], 0
; Line 169
	lea	r8, QWORD PTR dwListCount$[rsp]
	lea	rdx, QWORD PTR pListDll$[rsp]
	xor	ecx, ecx
	call	QWORD PTR [rax+56]
	mov	DWORD PTR dwRet$1$[rsp], eax
; Line 170
	cmp	eax, 1
	jne	$LN417@GetCaption
; Line 171
	xor	r13d, r13d
	cmp	DWORD PTR dwListCount$[rsp], r13d
	jbe	$LN417@GetCaption
	npad	1
$LL6@GetCaption:
; File e:\software\develop\vs2012\vc\include\vector
; Line 486
	xor	r14d, r14d
	mov	QWORD PTR Item$1[rbp-177], r14
; Line 487
	xor	edi, edi
	mov	QWORD PTR Item$1[rbp-169], rdi
; Line 488
	xor	esi, esi
	mov	QWORD PTR Item$1[rbp-161], rsi
; File e:\project\other\caption2ass-master\caption2ass_pcr\captiondllutil.cpp
; Line 173
	lea	rcx, QWORD PTR [r13*4]
	add	rcx, r13
	lea	r12, QWORD PTR [rcx*8]
	mov	rcx, QWORD PTR pListDll$[rsp]
	add	rcx, r12
	mov	eax, DWORD PTR [rcx]
	mov	DWORD PTR Item$1[rsp], eax
; Line 174
	movzx	eax, WORD PTR [rcx+4]
	mov	WORD PTR Item$1[rsp+4], ax
; Line 175
	movzx	eax, WORD PTR [rcx+6]
	mov	WORD PTR Item$1[rsp+6], ax
; Line 176
	movzx	eax, WORD PTR [rcx+8]
	mov	WORD PTR Item$1[rsp+8], ax
; Line 177
	movzx	eax, WORD PTR [rcx+10]
	mov	WORD PTR Item$1[rsp+10], ax
; Line 178
	movzx	eax, WORD PTR [rcx+12]
	mov	WORD PTR Item$1[rsp+12], ax
; Line 179
	movzx	eax, WORD PTR [rcx+14]
	mov	WORD PTR Item$1[rsp+14], ax
; Line 180
	movzx	eax, WORD PTR [rcx+16]
	mov	WORD PTR Item$1[rsp+16], ax
; Line 181
	mov	eax, DWORD PTR [rcx+32]
	mov	DWORD PTR Item$1[rbp-153], eax
; Line 182
	xor	r15d, r15d
	cmp	DWORD PTR [rcx+20], r15d
	jbe	$LN1@GetCaption
	npad	10
$LL3@GetCaption:
; File e:\software\develop\vs2012\vc\include\xstring
; Line 2265
	mov	QWORD PTR ItemChar$7[rbp-177], 15
; Line 2218
	mov	QWORD PTR ItemChar$7[rbp-185], 0
; File e:\software\develop\vs2012\vc\include\iosfwd
; Line 564
	mov	BYTE PTR ItemChar$7[rbp-201], 0
; File e:\project\other\caption2ass-master\caption2ass_pcr\captiondllutil.cpp
; Line 184
	mov	ebx, r15d
	imul	rbx, 56					; 00000038H
	mov	rax, QWORD PTR pListDll$[rsp]
	mov	rcx, QWORD PTR [r12+rax+24]
	mov	rdx, QWORD PTR [rbx+rcx]
; File e:\software\develop\vs2012\vc\include\iosfwd
; Line 523
	cmp	BYTE PTR [rdx], 0
	jne	SHORT $LN73@GetCaption
	xor	r8d, r8d
	jmp	SHORT $LN74@GetCaption
$LN73@GetCaption:
	or	r8, -1
	npad	9
$LL416@GetCaption:
	inc	r8
	cmp	BYTE PTR [rdx+r8], 0
	jne	SHORT $LL416@GetCaption
$LN74@GetCaption:
; File e:\software\develop\vs2012\vc\include\xstring
; Line 1144
	lea	rcx, QWORD PTR ItemChar$7[rbp-201]
	call	?assign@?$basic_string@DU?$char_traits@D@std@@V?$allocator@D@2@@std@@QEAAAEAV12@PEBD_K@Z ; std::basic_string<char,std::char_traits<char>,std::allocator<char> >::assign
; File e:\project\other\caption2ass-master\caption2ass_pcr\captiondllutil.cpp
; Line 185
	mov	rdx, QWORD PTR pListDll$[rsp]
	add	rdx, r12
	mov	rax, QWORD PTR [rdx+24]
	mov	ecx, DWORD PTR [rbx+rax+8]
	mov	DWORD PTR ItemChar$7[rbp-169], ecx
; Line 186
	mov	rax, QWORD PTR [rdx+24]
	movzx	ecx, BYTE PTR [rbx+rax+15]
	mov	BYTE PTR ItemChar$7[rbp-162], cl
; Line 187
	mov	rax, QWORD PTR [rdx+24]
	movzx	ecx, BYTE PTR [rbx+rax+14]
	mov	BYTE PTR ItemChar$7[rbp-163], cl
; Line 188
	mov	rax, QWORD PTR [rdx+24]
	movzx	ecx, BYTE PTR [rbx+rax+13]
	mov	BYTE PTR ItemChar$7[rbp-164], cl
; Line 189
	mov	rax, QWORD PTR [rdx+24]
	movzx	ecx, BYTE PTR [rbx+rax+12]
	mov	BYTE PTR ItemChar$7[rbp-165], cl
; Line 190
	mov	rax, QWORD PTR [rdx+24]
	movzx	ecx, BYTE PTR [rbx+rax+19]
	mov	BYTE PTR ItemChar$7[rbp-158], cl
; Line 191
	mov	rax, QWORD PTR [rdx+24]
	movzx	ecx, BYTE PTR [rbx+rax+18]
	mov	BYTE PTR ItemChar$7[rbp-159], cl
; Line 192
	mov	rax, QWORD PTR [rdx+24]
	movzx	ecx, BYTE PTR [rbx+rax+17]
	mov	BYTE PTR ItemChar$7[rbp-160], cl
; Line 193
	mov	rax, QWORD PTR [rdx+24]
	movzx	ecx, BYTE PTR [rbx+rax+16]
	mov	BYTE PTR ItemChar$7[rbp-161], cl
; Line 194
	mov	rax, QWORD PTR [rdx+24]
	movzx	ecx, BYTE PTR [rbx+rax+23]
	mov	BYTE PTR ItemChar$7[rbp-154], cl
; Line 195
	mov	rax, QWORD PTR [rdx+24]
	movzx	ecx, BYTE PTR [rbx+rax+22]
	mov	BYTE PTR ItemChar$7[rbp-155], cl
; Line 196
	mov	rax, QWORD PTR [rdx+24]
	movzx	ecx, BYTE PTR [rbx+rax+21]
	mov	BYTE PTR ItemChar$7[rbp-156], cl
; Line 197
	mov	rax, QWORD PTR [rdx+24]
	movzx	ecx, BYTE PTR [rbx+rax+20]
	mov	BYTE PTR ItemChar$7[rbp-157], cl
; Line 198
	mov	rax, QWORD PTR [rdx+24]
	mov	ecx, DWORD PTR [rbx+rax+24]
	mov	DWORD PTR ItemChar$7[rbp-153], ecx
; Line 199
	mov	rax, QWORD PTR [rdx+24]
	mov	ecx, DWORD PTR [rbx+rax+28]
	mov	DWORD PTR ItemChar$7[rbp-149], ecx
; Line 200
	mov	rax, QWORD PTR [rdx+24]
	mov	ecx, DWORD PTR [rbx+rax+32]
	mov	DWORD PTR ItemChar$7[rbp-145], ecx
; Line 201
	mov	rax, QWORD PTR [rdx+24]
	mov	ecx, DWORD PTR [rbx+rax+36]
	mov	DWORD PTR ItemChar$7[rbp-141], ecx
; Line 202
	mov	rax, QWORD PTR [rdx+24]
	movzx	ecx, BYTE PTR [rbx+rax+40]
	mov	BYTE PTR ItemChar$7[rbp-137], cl
; Line 203
	mov	rax, QWORD PTR [rdx+24]
	movzx	ecx, BYTE PTR [rbx+rax+41]
	mov	BYTE PTR ItemChar$7[rbp-136], cl
; Line 204
	mov	rax, QWORD PTR [rdx+24]
	movzx	ecx, WORD PTR [rbx+rax+42]
	mov	WORD PTR ItemChar$7[rbp-135], cx
; Line 205
	mov	rax, QWORD PTR [rdx+24]
	movzx	ecx, WORD PTR [rbx+rax+44]
	mov	WORD PTR ItemChar$7[rbp-133], cx
; Line 206
	mov	rax, QWORD PTR [rdx+24]
	movzx	ecx, WORD PTR [rbx+rax+46]
	mov	WORD PTR ItemChar$7[rbp-131], cx
; Line 207
	mov	rax, QWORD PTR [rdx+24]
	movzx	ecx, WORD PTR [rbx+rax+48]
	mov	WORD PTR ItemChar$7[rbp-129], cx
; File e:\software\develop\vs2012\vc\include\vector
; Line 1496
	lea	rax, QWORD PTR ItemChar$7[rbp-201]
	cmp	rax, rdi
	jae	$LN78@GetCaption
	lea	rax, QWORD PTR ItemChar$7[rbp-201]
	cmp	r14, rax
	ja	$LN78@GetCaption
; Line 1187
	lea	rcx, QWORD PTR ItemChar$7[rbp-201]
	sub	rcx, r14
	mov	r9, 7378697629483820647			; 6666666666666667H
	mov	rax, r9
	imul	rcx
	mov	rbx, rdx
	sar	rbx, 5
	mov	rax, rbx
	shr	rax, 63					; 0000003fH
	add	rbx, rax
; Line 1188
	cmp	rdi, rsi
	jne	$LN90@GetCaption
; Line 972
	mov	rcx, rsi
	sub	rcx, rdi
	mov	rax, r9
	imul	rcx
	sar	rdx, 5
	mov	rax, rdx
	shr	rax, 63					; 0000003fH
	add	rdx, rax
; Line 1526
	cmp	rdx, 1
	jae	$LN90@GetCaption
; Line 1087
	sub	rdi, r14
	mov	rax, r9
	imul	rdi
	sar	rdx, 5
	mov	rax, rdx
	shr	rax, 63					; 0000003fH
	add	rdx, rax
; Line 1528
	mov	r10, 230584300921369395			; 0333333333333333H
	mov	rax, r10
	sub	rax, rdx
	cmp	rax, 1
	jb	$LN407@GetCaption
; Line 1530
	lea	r8, QWORD PTR [rdx+1]
; Line 967
	sub	rsi, r14
	mov	rax, r9
	imul	rsi
	sar	rdx, 5
	mov	rax, rdx
	shr	rax, 63					; 0000003fH
	add	rdx, rax
; Line 1488
	mov	rcx, rdx
	shr	rcx, 1
	mov	rax, r10
	sub	rax, rcx
	cmp	rax, rdx
	jae	SHORT $LN115@GetCaption
	xor	edx, edx
	jmp	SHORT $LN116@GetCaption
$LN115@GetCaption:
	add	rdx, rcx
$LN116@GetCaption:
; Line 1489
	cmp	rdx, r8
	cmovb	rdx, r8
; Line 1530
	lea	rcx, QWORD PTR Item$1[rbp-177]
	call	?_Reallocate@?$vector@U_CAPTION_CHAR_DATA@@V?$allocator@U_CAPTION_CHAR_DATA@@@std@@@std@@IEAAX_K@Z ; std::vector<_CAPTION_CHAR_DATA,std::allocator<_CAPTION_CHAR_DATA> >::_Reallocate
	mov	rsi, QWORD PTR Item$1[rbp-161]
	mov	rdi, QWORD PTR Item$1[rbp-169]
	mov	r14, QWORD PTR Item$1[rbp-177]
$LN90@GetCaption:
; Line 1192
	lea	rbx, QWORD PTR [rbx+rbx*4]
	shl	rbx, 4
	add	rbx, r14
	mov	QWORD PTR $T3[rbp-201], rdi
; File e:\software\develop\vs2012\vc\include\xmemory0
; Line 617
	mov	QWORD PTR $T4[rbp-201], rdi
	test	rdi, rdi
	je	$LN144@GetCaption
; File e:\software\develop\vs2012\vc\include\xstring
; Line 2265
	mov	QWORD PTR [rdi+24], 15
; Line 2218
	mov	QWORD PTR [rdi+16], 0
; File e:\software\develop\vs2012\vc\include\iosfwd
; Line 564
	mov	BYTE PTR [rdi], 0
; File e:\software\develop\vs2012\vc\include\xstring
; Line 735
	or	r9, -1
	xor	r8d, r8d
	mov	rdx, rbx
	mov	rcx, rdi
	call	?assign@?$basic_string@DU?$char_traits@D@std@@V?$allocator@D@2@@std@@QEAAAEAV12@AEBV12@_K1@Z ; std::basic_string<char,std::char_traits<char>,std::allocator<char> >::assign
	mov	eax, DWORD PTR [rbx+32]
	mov	DWORD PTR [rdi+32], eax
	mov	eax, DWORD PTR [rbx+36]
	mov	DWORD PTR [rdi+36], eax
	mov	eax, DWORD PTR [rbx+40]
	mov	DWORD PTR [rdi+40], eax
	mov	eax, DWORD PTR [rbx+44]
	mov	DWORD PTR [rdi+44], eax
	mov	eax, DWORD PTR [rbx+48]
	mov	DWORD PTR [rdi+48], eax
	mov	eax, DWORD PTR [rbx+52]
	mov	DWORD PTR [rdi+52], eax
	mov	eax, DWORD PTR [rbx+56]
	mov	DWORD PTR [rdi+56], eax
	mov	eax, DWORD PTR [rbx+60]
	mov	DWORD PTR [rdi+60], eax
	movzx	eax, BYTE PTR [rbx+64]
	mov	BYTE PTR [rdi+64], al
	movzx	eax, BYTE PTR [rbx+65]
	mov	BYTE PTR [rdi+65], al
	movzx	eax, WORD PTR [rbx+66]
	mov	WORD PTR [rdi+66], ax
	movzx	eax, WORD PTR [rbx+68]
	mov	WORD PTR [rdi+68], ax
	movzx	eax, WORD PTR [rbx+70]
	mov	WORD PTR [rdi+70], ax
	movzx	eax, WORD PTR [rbx+72]
	mov	WORD PTR [rdi+72], ax
$LN144@GetCaption:
; File e:\software\develop\vs2012\vc\include\vector
; Line 1195
	jmp	$LN420@GetCaption
$LN78@GetCaption:
; Line 1197
	cmp	rdi, rsi
	jne	$LN197@GetCaption
; Line 972
	mov	rcx, rsi
	sub	rcx, rdi
	mov	r9, 7378697629483820647			; 6666666666666667H
	mov	rax, r9
	imul	rcx
	sar	rdx, 5
	mov	rax, rdx
	shr	rax, 63					; 0000003fH
	add	rdx, rax
; Line 1526
	cmp	rdx, 1
	jae	$LN197@GetCaption
; Line 1087
	sub	rdi, r14
	mov	rax, r9
	imul	rdi
	sar	rdx, 5
	mov	rax, rdx
	shr	rax, 63					; 0000003fH
	add	rdx, rax
; Line 1528
	mov	r10, 230584300921369395			; 0333333333333333H
	mov	rax, r10
	sub	rax, rdx
	cmp	rax, 1
	jb	$LN408@GetCaption
; Line 1530
	lea	r8, QWORD PTR [rdx+1]
; Line 967
	sub	rsi, r14
	mov	rax, r9
	imul	rsi
	sar	rdx, 5
	mov	rax, rdx
	shr	rax, 63					; 0000003fH
	add	rdx, rax
; Line 1488
	mov	rcx, rdx
	shr	rcx, 1
	mov	rax, r10
	sub	rax, rcx
	cmp	rax, rdx
	jae	SHORT $LN222@GetCaption
	xor	edx, edx
	jmp	SHORT $LN223@GetCaption
$LN222@GetCaption:
	add	rdx, rcx
$LN223@GetCaption:
; Line 1489
	cmp	rdx, r8
	cmovb	rdx, r8
; Line 1530
	lea	rcx, QWORD PTR Item$1[rbp-177]
	call	?_Reallocate@?$vector@U_CAPTION_CHAR_DATA@@V?$allocator@U_CAPTION_CHAR_DATA@@@std@@@std@@IEAAX_K@Z ; std::vector<_CAPTION_CHAR_DATA,std::allocator<_CAPTION_CHAR_DATA> >::_Reallocate
	mov	rsi, QWORD PTR Item$1[rbp-161]
	mov	rdi, QWORD PTR Item$1[rbp-169]
	mov	r14, QWORD PTR Item$1[rbp-177]
$LN197@GetCaption:
; Line 1201
	mov	QWORD PTR $T5[rbp-201], rdi
; File e:\software\develop\vs2012\vc\include\xmemory0
; Line 606
	mov	QWORD PTR $T2[rbp-201], rdi
	test	rdi, rdi
	je	$LN250@GetCaption
; File e:\software\develop\vs2012\vc\include\xstring
; Line 2265
	mov	QWORD PTR [rdi+24], 15
; Line 2218
	mov	QWORD PTR [rdi+16], 0
; File e:\software\develop\vs2012\vc\include\iosfwd
; Line 564
	mov	BYTE PTR [rdi], 0
; File e:\software\develop\vs2012\vc\include\xstring
; Line 735
	or	r9, -1
	xor	r8d, r8d
	lea	rdx, QWORD PTR ItemChar$7[rbp-201]
	mov	rcx, rdi
	call	?assign@?$basic_string@DU?$char_traits@D@std@@V?$allocator@D@2@@std@@QEAAAEAV12@AEBV12@_K1@Z ; std::basic_string<char,std::char_traits<char>,std::allocator<char> >::assign
	mov	eax, DWORD PTR ItemChar$7[rbp-169]
	mov	DWORD PTR [rdi+32], eax
	mov	eax, DWORD PTR ItemChar$7[rbp-165]
	mov	DWORD PTR [rdi+36], eax
	mov	eax, DWORD PTR ItemChar$7[rbp-161]
	mov	DWORD PTR [rdi+40], eax
	mov	eax, DWORD PTR ItemChar$7[rbp-157]
	mov	DWORD PTR [rdi+44], eax
	mov	eax, DWORD PTR ItemChar$7[rbp-153]
	mov	DWORD PTR [rdi+48], eax
	mov	eax, DWORD PTR ItemChar$7[rbp-149]
	mov	DWORD PTR [rdi+52], eax
	mov	eax, DWORD PTR ItemChar$7[rbp-145]
	mov	DWORD PTR [rdi+56], eax
	mov	eax, DWORD PTR ItemChar$7[rbp-141]
	mov	DWORD PTR [rdi+60], eax
	movzx	eax, BYTE PTR ItemChar$7[rbp-137]
	mov	BYTE PTR [rdi+64], al
	movzx	eax, BYTE PTR ItemChar$7[rbp-136]
	mov	BYTE PTR [rdi+65], al
	movzx	eax, WORD PTR ItemChar$7[rbp-135]
	mov	WORD PTR [rdi+66], ax
	movzx	eax, WORD PTR ItemChar$7[rbp-133]
	mov	WORD PTR [rdi+68], ax
	movzx	eax, WORD PTR ItemChar$7[rbp-131]
	mov	WORD PTR [rdi+70], ax
	movzx	eax, WORD PTR ItemChar$7[rbp-129]
	mov	WORD PTR [rdi+72], ax
$LN250@GetCaption:
$LN420@GetCaption:
; File e:\software\develop\vs2012\vc\include\vector
; Line 1202
	add	rdi, 80					; 00000050H
	mov	QWORD PTR Item$1[rbp-169], rdi
; File e:\software\develop\vs2012\vc\include\xstring
; Line 2256
	cmp	QWORD PTR ItemChar$7[rbp-177], 16
	jb	SHORT $LN323@GetCaption
; File e:\software\develop\vs2012\vc\include\xmemory0
; Line 586
	mov	rcx, QWORD PTR ItemChar$7[rbp-201]
	call	QWORD PTR __imp_??3@YAXPEAX@Z
$LN323@GetCaption:
; File e:\project\other\caption2ass-master\caption2ass_pcr\captiondllutil.cpp
; Line 182
	inc	r15d
	mov	rax, QWORD PTR pListDll$[rsp]
	cmp	r15d, DWORD PTR [r12+rax+20]
	jb	$LL3@GetCaption
$LN1@GetCaption:
; Line 210
	lea	rdx, QWORD PTR Item$1[rsp]
	mov	rcx, QWORD PTR pList$GSCopy$1$[rbp-201]
	call	?push_back@?$vector@U_CAPTION_DATA@@V?$allocator@U_CAPTION_DATA@@@std@@@std@@QEAAXAEBU_CAPTION_DATA@@@Z ; std::vector<_CAPTION_DATA,std::allocator<_CAPTION_DATA> >::push_back
	npad	1
; File e:\software\develop\vs2012\vc\include\vector
; Line 1536
	mov	rsi, QWORD PTR Item$1[rbp-177]
	test	rsi, rsi
	je	SHORT $LN5@GetCaption
; File e:\software\develop\vs2012\vc\include\xmemory0
; Line 80
	mov	rbx, rsi
; Line 88
	mov	rdi, QWORD PTR Item$1[rbp-169]
	cmp	rsi, rdi
	je	SHORT $LN350@GetCaption
	npad	3
$LL352@GetCaption:
; File e:\software\develop\vs2012\vc\include\xstring
; Line 2256
	cmp	QWORD PTR [rbx+24], 16
	jb	SHORT $LN386@GetCaption
; File e:\software\develop\vs2012\vc\include\xmemory0
; Line 586
	mov	rcx, QWORD PTR [rbx]
	call	QWORD PTR __imp_??3@YAXPEAX@Z
$LN386@GetCaption:
; File e:\software\develop\vs2012\vc\include\xstring
; Line 2265
	mov	QWORD PTR [rbx+24], 15
; Line 2218
	mov	QWORD PTR [rbx+16], 0
; File e:\software\develop\vs2012\vc\include\iosfwd
; Line 564
	mov	BYTE PTR [rbx], 0
; File e:\software\develop\vs2012\vc\include\xmemory0
; Line 88
	add	rbx, 80					; 00000050H
	cmp	rbx, rdi
	jne	SHORT $LL352@GetCaption
$LN350@GetCaption:
; Line 586
	mov	rcx, rsi
	call	QWORD PTR __imp_??3@YAXPEAX@Z
$LN5@GetCaption:
; File e:\project\other\caption2ass-master\caption2ass_pcr\captiondllutil.cpp
; Line 171
	inc	r13d
	cmp	r13d, DWORD PTR dwListCount$[rsp]
	jae	SHORT $LN418@GetCaption
	jmp	$LL6@GetCaption
$LN407@GetCaption:
; File e:\software\develop\vs2012\vc\include\vector
; Line 1667
	lea	rcx, OFFSET FLAT:??_C@_0BD@OLBABOEK@vector?$DMT?$DO?5too?5long?$AA@
	call	QWORD PTR __imp_?_Xlength_error@std@@YAXPEBD@Z
	int	3
$LN408@GetCaption:
	lea	rcx, OFFSET FLAT:??_C@_0BD@OLBABOEK@vector?$DMT?$DO?5too?5long?$AA@
	call	QWORD PTR __imp_?_Xlength_error@std@@YAXPEBD@Z
	npad	1
$LN418@GetCaption:
	mov	eax, DWORD PTR dwRet$1$[rsp]
$LN417@GetCaption:
; File e:\project\other\caption2ass-master\caption2ass_pcr\captiondllutil.cpp
; Line 214
	mov	rcx, QWORD PTR __$ArrayPad$[rbp-201]
	xor	rcx, rsp
	call	__security_check_cookie
	mov	rbx, QWORD PTR [rsp+320]
	add	rsp, 240				; 000000f0H
	pop	r15
	pop	r14
	pop	r13
	pop	r12
	pop	rdi
	pop	rsi
	pop	rbp
	ret	0
$LN419@GetCaption:
?GetCaptionData@CCaptionDllUtil@@QEAAKEPEAV?$vector@U_CAPTION_DATA@@V?$allocator@U_CAPTION_DATA@@@std@@@std@@@Z ENDP ; CCaptionDllUtil::GetCaptionData
_TEXT	ENDS
; Function compile flags: /Ogtpy
;	COMDAT text$x
text$x	SEGMENT
dwListCount$ = 32
pListDll$ = 40
dwRet$1$ = 48
Item$1 = 56
pList$GSCopy$1$ = 112
$T2 = 120
$T3 = 120
$T4 = 128
$T5 = 128
$T6 = 136
ItemChar$7 = 144
__$ArrayPad$ = 224
this$ = 304
pList$ = 312
?dtor$0@?0??GetCaptionData@CCaptionDllUtil@@QEAAKEPEAV?$vector@U_CAPTION_DATA@@V?$allocator@U_CAPTION_DATA@@@std@@@std@@@Z@4HA PROC ; `CCaptionDllUtil::GetCaptionData'::`1'::dtor$0
	lea	rcx, QWORD PTR Item$1[rdx]
	jmp	??1_CAPTION_DATA@@QEAA@XZ
?dtor$0@?0??GetCaptionData@CCaptionDllUtil@@QEAAKEPEAV?$vector@U_CAPTION_DATA@@V?$allocator@U_CAPTION_DATA@@@std@@@std@@@Z@4HA ENDP ; `CCaptionDllUtil::GetCaptionData'::`1'::dtor$0
text$x	ENDS
; Function compile flags: /Ogtpy
;	COMDAT text$x
text$x	SEGMENT
dwListCount$ = 32
pListDll$ = 40
dwRet$1$ = 48
Item$1 = 56
pList$GSCopy$1$ = 112
$T2 = 120
$T3 = 120
$T4 = 128
$T5 = 128
$T6 = 136
ItemChar$7 = 144
__$ArrayPad$ = 224
this$ = 304
pList$ = 312
?dtor$1@?0??GetCaptionData@CCaptionDllUtil@@QEAAKEPEAV?$vector@U_CAPTION_DATA@@V?$allocator@U_CAPTION_DATA@@@std@@@std@@@Z@4HA PROC ; `CCaptionDllUtil::GetCaptionData'::`1'::dtor$1
	lea	rcx, QWORD PTR ItemChar$7[rdx]
	jmp	??1_CAPTION_CHAR_DATA@@QEAA@XZ
?dtor$1@?0??GetCaptionData@CCaptionDllUtil@@QEAAKEPEAV?$vector@U_CAPTION_DATA@@V?$allocator@U_CAPTION_DATA@@@std@@@std@@@Z@4HA ENDP ; `CCaptionDllUtil::GetCaptionData'::`1'::dtor$1
text$x	ENDS
; Function compile flags: /Ogtpy
;	COMDAT text$x
text$x	SEGMENT
dwListCount$ = 32
pListDll$ = 40
dwRet$1$ = 48
Item$1 = 56
pList$GSCopy$1$ = 112
$T2 = 120
$T3 = 120
$T4 = 128
$T5 = 128
$T6 = 136
ItemChar$7 = 144
__$ArrayPad$ = 224
this$ = 304
pList$ = 312
?dtor$2@?0??GetCaptionData@CCaptionDllUtil@@QEAAKEPEAV?$vector@U_CAPTION_DATA@@V?$allocator@U_CAPTION_DATA@@@std@@@std@@@Z@4HA PROC ; `CCaptionDllUtil::GetCaptionData'::`1'::dtor$2
	push	rbp
	sub	rsp, 32					; 00000020H
	mov	rbp, rdx
	mov	rdx, QWORD PTR $T3[rbp]
	mov	rcx, QWORD PTR $T4[rbp]
	call	??3@YAXPEAX0@Z				; operator delete
	add	rsp, 32					; 00000020H
	pop	rbp
	ret	0
?dtor$2@?0??GetCaptionData@CCaptionDllUtil@@QEAAKEPEAV?$vector@U_CAPTION_DATA@@V?$allocator@U_CAPTION_DATA@@@std@@@std@@@Z@4HA ENDP ; `CCaptionDllUtil::GetCaptionData'::`1'::dtor$2
text$x	ENDS
; Function compile flags: /Ogtpy
;	COMDAT text$x
text$x	SEGMENT
dwListCount$ = 32
pListDll$ = 40
dwRet$1$ = 48
Item$1 = 56
pList$GSCopy$1$ = 112
$T2 = 120
$T3 = 120
$T4 = 128
$T5 = 128
$T6 = 136
ItemChar$7 = 144
__$ArrayPad$ = 224
this$ = 304
pList$ = 312
?dtor$4@?0??GetCaptionData@CCaptionDllUtil@@QEAAKEPEAV?$vector@U_CAPTION_DATA@@V?$allocator@U_CAPTION_DATA@@@std@@@std@@@Z@4HA PROC ; `CCaptionDllUtil::GetCaptionData'::`1'::dtor$4
	push	rbp
	sub	rsp, 32					; 00000020H
	mov	rbp, rdx
	mov	rdx, QWORD PTR $T5[rbp]
	mov	rcx, QWORD PTR $T2[rbp]
	call	??3@YAXPEAX0@Z				; operator delete
	add	rsp, 32					; 00000020H
	pop	rbp
	ret	0
?dtor$4@?0??GetCaptionData@CCaptionDllUtil@@QEAAKEPEAV?$vector@U_CAPTION_DATA@@V?$allocator@U_CAPTION_DATA@@@std@@@std@@@Z@4HA ENDP ; `CCaptionDllUtil::GetCaptionData'::`1'::dtor$4
text$x	ENDS
; Function compile flags: /Ogtpy
;	COMDAT ?LoadDll@CCaptionDllUtil@@IEAAHXZ
_TEXT	SEGMENT
this$ = 48
?LoadDll@CCaptionDllUtil@@IEAAHXZ PROC			; CCaptionDllUtil::LoadDll, COMDAT
; File e:\project\other\caption2ass-master\caption2ass_pcr\captiondllutil.cpp
; Line 21
$LN38:
	push	rbx
	sub	rsp, 32					; 00000020H
; Line 22
	cmp	QWORD PTR [rcx], 0
	mov	rbx, rcx
	je	SHORT $LN32@LoadDll
; Line 23
	xor	eax, eax
; Line 61
	add	rsp, 32					; 00000020H
	pop	rbx
	ret	0
$LN32@LoadDll:
	mov	QWORD PTR [rsp+48], rdi
; Line 25
	xor	edi, edi
	mov	QWORD PTR [rcx+8], rdi
; Line 26
	mov	QWORD PTR [rcx+24], rdi
; Line 27
	mov	QWORD PTR [rcx+32], rdi
; Line 28
	mov	QWORD PTR [rcx+40], rdi
; Line 29
	mov	QWORD PTR [rcx+48], rdi
; Line 30
	mov	QWORD PTR [rcx+56], rdi
; Line 33
	lea	rcx, OFFSET FLAT:??_C@_1CA@LGNJKIOH@?$AAC?$AAa?$AAp?$AAt?$AAi?$AAo?$AAn?$AA_?$AAx?$AA6?$AA4?$AA?4?$AAd?$AAl?$AAl?$AA?$AA@
	call	QWORD PTR __imp_LoadLibraryW
	mov	QWORD PTR [rbx], rax
; Line 37
	test	rax, rax
	je	$LN36@LoadDll
; Line 46
	lea	rdx, OFFSET FLAT:??_C@_0N@CHFKGODM@InitializeCP?$AA@
	mov	rcx, rax
	call	QWORD PTR __imp_GetProcAddress
	mov	QWORD PTR [rbx+8], rax
	test	rax, rax
	je	$ERR_END$39
; Line 47
	mov	rcx, QWORD PTR [rbx]
	lea	rdx, OFFSET FLAT:??_C@_0P@FKFKLEJ@UnInitializeCP?$AA@
	call	QWORD PTR __imp_GetProcAddress
	mov	QWORD PTR [rbx+24], rax
	test	rax, rax
	je	SHORT $ERR_END$39
; Line 48
	mov	rcx, QWORD PTR [rbx]
	lea	rdx, OFFSET FLAT:??_C@_0O@EGDOANGE@AddTSPacketCP?$AA@
	call	QWORD PTR __imp_GetProcAddress
	mov	QWORD PTR [rbx+32], rax
	test	rax, rax
	je	SHORT $ERR_END$39
; Line 49
	mov	rcx, QWORD PTR [rbx]
	lea	rdx, OFFSET FLAT:??_C@_07IEODAFMH@ClearCP?$AA@
	call	QWORD PTR __imp_GetProcAddress
	mov	QWORD PTR [rbx+40], rax
	test	rax, rax
	je	SHORT $ERR_END$39
; Line 50
	mov	rcx, QWORD PTR [rbx]
	lea	rdx, OFFSET FLAT:??_C@_0N@LBILFLGF@GetTagInfoCP?$AA@
	call	QWORD PTR __imp_GetProcAddress
	mov	QWORD PTR [rbx+48], rax
	test	rax, rax
	je	SHORT $ERR_END$39
; Line 51
	mov	rcx, QWORD PTR [rbx]
	lea	rdx, OFFSET FLAT:??_C@_0BB@FPPKGPKA@GetCaptionDataCP?$AA@
	call	QWORD PTR __imp_GetProcAddress
	mov	QWORD PTR [rbx+56], rax
	test	rax, rax
	je	SHORT $ERR_END$39
; Line 54
	lea	eax, QWORD PTR [rdi+1]
	mov	rdi, QWORD PTR [rsp+48]
; Line 61
	add	rsp, 32					; 00000020H
	pop	rbx
	ret	0
$ERR_END$39:
; Line 57
	mov	rcx, QWORD PTR [rbx]
	call	QWORD PTR __imp_FreeLibrary
; Line 58
	mov	QWORD PTR [rbx], rdi
$LN36@LoadDll:
; Line 60
	xor	eax, eax
	mov	rdi, QWORD PTR [rsp+48]
; Line 61
	add	rsp, 32					; 00000020H
	pop	rbx
	ret	0
?LoadDll@CCaptionDllUtil@@IEAAHXZ ENDP			; CCaptionDllUtil::LoadDll
_TEXT	ENDS
; Function compile flags: /Ogtpy
;	COMDAT ?UnLoadDll@CCaptionDllUtil@@IEAAHXZ
_TEXT	SEGMENT
this$ = 48
?UnLoadDll@CCaptionDllUtil@@IEAAHXZ PROC		; CCaptionDllUtil::UnLoadDll, COMDAT
; File e:\project\other\caption2ass-master\caption2ass_pcr\captiondllutil.cpp
; Line 64
$LN7:
	push	rbx
	sub	rsp, 32					; 00000020H
; Line 65
	cmp	QWORD PTR [rcx], 0
	mov	rbx, rcx
	je	SHORT $LN4@UnLoadDll
; Line 66
	call	QWORD PTR [rcx+24]
; Line 67
	mov	rcx, QWORD PTR [rbx]
	call	QWORD PTR __imp_FreeLibrary
; Line 69
	mov	QWORD PTR [rbx], 0
; Line 70
	mov	eax, 1
; Line 71
	add	rsp, 32					; 00000020H
	pop	rbx
	ret	0
$LN4@UnLoadDll:
; Line 69
	mov	QWORD PTR [rcx], 0
; Line 70
	mov	eax, 1
; Line 71
	add	rsp, 32					; 00000020H
	pop	rbx
	ret	0
?UnLoadDll@CCaptionDllUtil@@IEAAHXZ ENDP		; CCaptionDllUtil::UnLoadDll
_TEXT	ENDS
; Function compile flags: /Ogtpy
;	COMDAT ??0_CAPTION_DATA@@QEAA@XZ
_TEXT	SEGMENT
this$ = 8
??0_CAPTION_DATA@@QEAA@XZ PROC				; _CAPTION_DATA::_CAPTION_DATA, COMDAT
; File e:\software\develop\vs2012\vc\include\vector
; Line 486
	xor	eax, eax
	mov	QWORD PTR [rcx+24], rax
; Line 487
	mov	QWORD PTR [rcx+32], rax
; Line 488
	mov	QWORD PTR [rcx+40], rax
	mov	rax, rcx
	ret	0
??0_CAPTION_DATA@@QEAA@XZ ENDP				; _CAPTION_DATA::_CAPTION_DATA
_TEXT	ENDS
; Function compile flags: /Ogtpy
;	COMDAT ??0_CAPTION_CHAR_DATA@@QEAA@XZ
_TEXT	SEGMENT
this$ = 8
??0_CAPTION_CHAR_DATA@@QEAA@XZ PROC			; _CAPTION_CHAR_DATA::_CAPTION_CHAR_DATA, COMDAT
; File e:\software\develop\vs2012\vc\include\xstring
; Line 2265
	mov	QWORD PTR [rcx+24], 15
; Line 2218
	mov	QWORD PTR [rcx+16], 0
	mov	rax, rcx
; File e:\software\develop\vs2012\vc\include\iosfwd
; Line 564
	mov	BYTE PTR [rcx], 0
	ret	0
??0_CAPTION_CHAR_DATA@@QEAA@XZ ENDP			; _CAPTION_CHAR_DATA::_CAPTION_CHAR_DATA
_TEXT	ENDS
; Function compile flags: /Ogtpy
;	COMDAT ??0?$vector@U_CAPTION_CHAR_DATA@@V?$allocator@U_CAPTION_CHAR_DATA@@@std@@@std@@QEAA@XZ
_TEXT	SEGMENT
this$ = 8
??0?$vector@U_CAPTION_CHAR_DATA@@V?$allocator@U_CAPTION_CHAR_DATA@@@std@@@std@@QEAA@XZ PROC ; std::vector<_CAPTION_CHAR_DATA,std::allocator<_CAPTION_CHAR_DATA> >::vector<_CAPTION_CHAR_DATA,std::allocator<_CAPTION_CHAR_DATA> >, COMDAT
; File e:\software\develop\vs2012\vc\include\vector
; Line 486
	xor	eax, eax
	mov	QWORD PTR [rcx], rax
; Line 487
	mov	QWORD PTR [rcx+8], rax
; Line 488
	mov	QWORD PTR [rcx+16], rax
; Line 686
	mov	rax, rcx
	ret	0
??0?$vector@U_CAPTION_CHAR_DATA@@V?$allocator@U_CAPTION_CHAR_DATA@@@std@@@std@@QEAA@XZ ENDP ; std::vector<_CAPTION_CHAR_DATA,std::allocator<_CAPTION_CHAR_DATA> >::vector<_CAPTION_CHAR_DATA,std::allocator<_CAPTION_CHAR_DATA> >
_TEXT	ENDS
; Function compile flags: /Ogtpy
;	COMDAT ?push_back@?$vector@U_CAPTION_CHAR_DATA@@V?$allocator@U_CAPTION_CHAR_DATA@@@std@@@std@@QEAAXAEBU_CAPTION_CHAR_DATA@@@Z
_TEXT	SEGMENT
$T1 = 32
$T2 = 64
$T3 = 64
this$ = 64
$T4 = 72
$T5 = 72
_Val$ = 72
?push_back@?$vector@U_CAPTION_CHAR_DATA@@V?$allocator@U_CAPTION_CHAR_DATA@@@std@@@std@@QEAAXAEBU_CAPTION_CHAR_DATA@@@Z PROC ; std::vector<_CAPTION_CHAR_DATA,std::allocator<_CAPTION_CHAR_DATA> >::push_back, COMDAT
; File e:\software\develop\vs2012\vc\include\vector
; Line 1184
$LN57:
	push	rdi
	sub	rsp, 48					; 00000030H
	mov	QWORD PTR $T1[rsp], -2
	mov	QWORD PTR [rsp+80], rbx
	mov	rdi, rdx
	mov	rbx, rcx
; Line 1496
	mov	rcx, QWORD PTR [rcx+8]
	cmp	rdx, rcx
	jae	SHORT $LN4@push_back
	mov	rax, QWORD PTR [rbx]
	cmp	rax, rdx
	ja	SHORT $LN4@push_back
; Line 1187
	sub	rdi, rax
	mov	rax, 7378697629483820647		; 6666666666666667H
	imul	rdi
	mov	rdi, rdx
	sar	rdi, 5
	mov	rax, rdi
	shr	rax, 63					; 0000003fH
	add	rdi, rax
; Line 1188
	cmp	rcx, QWORD PTR [rbx+16]
	jne	SHORT $LN3@push_back
; Line 1189
	mov	rcx, rbx
	call	?_Reserve@?$vector@U_CAPTION_CHAR_DATA@@V?$allocator@U_CAPTION_CHAR_DATA@@@std@@@std@@IEAAX_K@Z ; std::vector<_CAPTION_CHAR_DATA,std::allocator<_CAPTION_CHAR_DATA> >::_Reserve
$LN3@push_back:
; Line 1192
	lea	rdx, QWORD PTR [rdi+rdi*4]
	shl	rdx, 4
	add	rdx, QWORD PTR [rbx]
	mov	rcx, QWORD PTR [rbx+8]
	mov	QWORD PTR $T3[rsp], rcx
; File e:\software\develop\vs2012\vc\include\xmemory0
; Line 617
	mov	QWORD PTR $T5[rsp], rcx
	test	rcx, rcx
	je	SHORT $LN29@push_back
	call	??0_CAPTION_CHAR_DATA@@QEAA@AEBU0@@Z
	npad	1
$LN29@push_back:
; File e:\software\develop\vs2012\vc\include\vector
; Line 1195
	jmp	SHORT $LN56@push_back
$LN4@push_back:
; Line 1197
	cmp	rcx, QWORD PTR [rbx+16]
	jne	SHORT $LN1@push_back
; Line 1198
	mov	rcx, rbx
	call	?_Reserve@?$vector@U_CAPTION_CHAR_DATA@@V?$allocator@U_CAPTION_CHAR_DATA@@@std@@@std@@IEAAX_K@Z ; std::vector<_CAPTION_CHAR_DATA,std::allocator<_CAPTION_CHAR_DATA> >::_Reserve
$LN1@push_back:
; Line 1201
	mov	rcx, QWORD PTR [rbx+8]
	mov	QWORD PTR $T2[rsp], rcx
; File e:\software\develop\vs2012\vc\include\xmemory0
; Line 606
	mov	QWORD PTR $T4[rsp], rcx
	test	rcx, rcx
	je	SHORT $LN50@push_back
	mov	rdx, rdi
	call	??0_CAPTION_CHAR_DATA@@QEAA@AEBU0@@Z
	npad	1
$LN50@push_back:
$LN56@push_back:
; File e:\software\develop\vs2012\vc\include\vector
; Line 1202
	add	QWORD PTR [rbx+8], 80			; 00000050H
; Line 1204
	mov	rbx, QWORD PTR [rsp+80]
	add	rsp, 48					; 00000030H
	pop	rdi
	ret	0
?push_back@?$vector@U_CAPTION_CHAR_DATA@@V?$allocator@U_CAPTION_CHAR_DATA@@@std@@@std@@QEAAXAEBU_CAPTION_CHAR_DATA@@@Z ENDP ; std::vector<_CAPTION_CHAR_DATA,std::allocator<_CAPTION_CHAR_DATA> >::push_back
_TEXT	ENDS
; Function compile flags: /Ogtpy
;	COMDAT text$x
text$x	SEGMENT
$T1 = 32
$T2 = 64
$T3 = 64
this$ = 64
$T4 = 72
$T5 = 72
_Val$ = 72
?dtor$0@?0??push_back@?$vector@U_CAPTION_CHAR_DATA@@V?$allocator@U_CAPTION_CHAR_DATA@@@std@@@std@@QEAAXAEBU_CAPTION_CHAR_DATA@@@Z@4HA PROC ; `std::vector<_CAPTION_CHAR_DATA,std::allocator<_CAPTION_CHAR_DATA> >::push_back'::`1'::dtor$0
	push	rbp
	sub	rsp, 32					; 00000020H
	mov	rbp, rdx
	mov	rdx, QWORD PTR $T3[rbp]
	mov	rcx, QWORD PTR $T5[rbp]
	call	??3@YAXPEAX0@Z				; operator delete
	add	rsp, 32					; 00000020H
	pop	rbp
	ret	0
?dtor$0@?0??push_back@?$vector@U_CAPTION_CHAR_DATA@@V?$allocator@U_CAPTION_CHAR_DATA@@@std@@@std@@QEAAXAEBU_CAPTION_CHAR_DATA@@@Z@4HA ENDP ; `std::vector<_CAPTION_CHAR_DATA,std::allocator<_CAPTION_CHAR_DATA> >::push_back'::`1'::dtor$0
text$x	ENDS
; Function compile flags: /Ogtpy
;	COMDAT text$x
text$x	SEGMENT
$T1 = 32
$T2 = 64
$T3 = 64
this$ = 64
$T4 = 72
$T5 = 72
_Val$ = 72
?dtor$1@?0??push_back@?$vector@U_CAPTION_CHAR_DATA@@V?$allocator@U_CAPTION_CHAR_DATA@@@std@@@std@@QEAAXAEBU_CAPTION_CHAR_DATA@@@Z@4HA PROC ; `std::vector<_CAPTION_CHAR_DATA,std::allocator<_CAPTION_CHAR_DATA> >::push_back'::`1'::dtor$1
	push	rbp
	sub	rsp, 32					; 00000020H
	mov	rbp, rdx
	mov	rdx, QWORD PTR $T2[rbp]
	mov	rcx, QWORD PTR $T4[rbp]
	call	??3@YAXPEAX0@Z				; operator delete
	add	rsp, 32					; 00000020H
	pop	rbp
	ret	0
?dtor$1@?0??push_back@?$vector@U_CAPTION_CHAR_DATA@@V?$allocator@U_CAPTION_CHAR_DATA@@@std@@@std@@QEAAXAEBU_CAPTION_CHAR_DATA@@@Z@4HA ENDP ; `std::vector<_CAPTION_CHAR_DATA,std::allocator<_CAPTION_CHAR_DATA> >::push_back'::`1'::dtor$1
text$x	ENDS
; Function compile flags: /Ogtpy
;	COMDAT ?push_back@?$vector@U_LANG_TAG_INFO@@V?$allocator@U_LANG_TAG_INFO@@@std@@@std@@QEAAXAEBU_LANG_TAG_INFO@@@Z
_TEXT	SEGMENT
this$ = 48
_Val$ = 56
?push_back@?$vector@U_LANG_TAG_INFO@@V?$allocator@U_LANG_TAG_INFO@@@std@@@std@@QEAAXAEBU_LANG_TAG_INFO@@@Z PROC ; std::vector<_LANG_TAG_INFO,std::allocator<_LANG_TAG_INFO> >::push_back, COMDAT
; File e:\software\develop\vs2012\vc\include\vector
; Line 1184
$LN56:
	mov	QWORD PTR [rsp+8], rbx
	push	rdi
	sub	rsp, 32					; 00000020H
	mov	rbx, rcx
; Line 1496
	mov	rcx, QWORD PTR [rcx+8]
; Line 1184
	mov	rdi, rdx
; Line 1496
	cmp	rdx, rcx
	jae	SHORT $LN4@push_back
	mov	rax, QWORD PTR [rbx]
	cmp	rax, rdx
	ja	SHORT $LN4@push_back
; Line 1187
	sub	rdi, rax
	mov	rax, 7378697629483820647		; 6666666666666667H
	imul	rdi
	mov	rdi, rdx
	sar	rdi, 2
	mov	rax, rdi
	shr	rax, 63					; 0000003fH
	add	rdi, rax
; Line 1188
	cmp	rcx, QWORD PTR [rbx+16]
	jne	SHORT $LN3@push_back
; Line 1189
	mov	rcx, rbx
	call	?_Reserve@?$vector@U_LANG_TAG_INFO@@V?$allocator@U_LANG_TAG_INFO@@@std@@@std@@IEAAX_K@Z ; std::vector<_LANG_TAG_INFO,std::allocator<_LANG_TAG_INFO> >::_Reserve
$LN3@push_back:
; Line 1192
	mov	rax, QWORD PTR [rbx]
	lea	rcx, QWORD PTR [rdi+rdi*4]
	lea	rdx, QWORD PTR [rax+rcx*2]
; File e:\software\develop\vs2012\vc\include\xmemory0
; Line 617
	mov	rcx, QWORD PTR [rbx+8]
	test	rcx, rcx
	je	SHORT $LN49@push_back
	mov	rax, QWORD PTR [rdx]
	mov	QWORD PTR [rcx], rax
	movzx	eax, WORD PTR [rdx+8]
; File e:\software\develop\vs2012\vc\include\vector
; Line 1195
	jmp	SHORT $LN54@push_back
$LN4@push_back:
; Line 1197
	cmp	rcx, QWORD PTR [rbx+16]
	jne	SHORT $LN1@push_back
; Line 1198
	mov	rcx, rbx
	call	?_Reserve@?$vector@U_LANG_TAG_INFO@@V?$allocator@U_LANG_TAG_INFO@@@std@@@std@@IEAAX_K@Z ; std::vector<_LANG_TAG_INFO,std::allocator<_LANG_TAG_INFO> >::_Reserve
$LN1@push_back:
; File e:\software\develop\vs2012\vc\include\xmemory0
; Line 606
	mov	rcx, QWORD PTR [rbx+8]
	test	rcx, rcx
	je	SHORT $LN49@push_back
	mov	rax, QWORD PTR [rdi]
	mov	QWORD PTR [rcx], rax
	movzx	eax, WORD PTR [rdi+8]
$LN54@push_back:
	mov	WORD PTR [rcx+8], ax
$LN49@push_back:
; File e:\software\develop\vs2012\vc\include\vector
; Line 1202
	add	QWORD PTR [rbx+8], 10
; Line 1204
	mov	rbx, QWORD PTR [rsp+48]
	add	rsp, 32					; 00000020H
	pop	rdi
	ret	0
?push_back@?$vector@U_LANG_TAG_INFO@@V?$allocator@U_LANG_TAG_INFO@@@std@@@std@@QEAAXAEBU_LANG_TAG_INFO@@@Z ENDP ; std::vector<_LANG_TAG_INFO,std::allocator<_LANG_TAG_INFO> >::push_back
_TEXT	ENDS
; Function compile flags: /Ogtpy
;	COMDAT ?push_back@?$vector@U_CAPTION_DATA@@V?$allocator@U_CAPTION_DATA@@@std@@@std@@QEAAXAEBU_CAPTION_DATA@@@Z
_TEXT	SEGMENT
$T1 = 32
$T2 = 64
$T3 = 64
this$ = 64
$T4 = 72
$T5 = 72
_Val$ = 72
?push_back@?$vector@U_CAPTION_DATA@@V?$allocator@U_CAPTION_DATA@@@std@@@std@@QEAAXAEBU_CAPTION_DATA@@@Z PROC ; std::vector<_CAPTION_DATA,std::allocator<_CAPTION_DATA> >::push_back, COMDAT
; File e:\software\develop\vs2012\vc\include\vector
; Line 1184
$LN63:
	push	rdi
	sub	rsp, 48					; 00000030H
	mov	QWORD PTR $T1[rsp], -2
	mov	QWORD PTR [rsp+80], rbx
	mov	QWORD PTR [rsp+88], rsi
	mov	rsi, rdx
	mov	rbx, rcx
; Line 1496
	mov	rcx, QWORD PTR [rcx+8]
	cmp	rdx, rcx
	jae	$LN4@push_back
	mov	rax, QWORD PTR [rbx]
	cmp	rax, rdx
	ja	$LN4@push_back
; Line 1187
	sub	rsi, rax
	mov	rax, 5270498306774157605		; 4924924924924925H
	imul	rsi
	mov	rdi, rdx
	sar	rdi, 4
	mov	rax, rdi
	shr	rax, 63					; 0000003fH
	add	rdi, rax
; Line 1188
	cmp	rcx, QWORD PTR [rbx+16]
	jne	SHORT $LN3@push_back
; Line 1189
	mov	rcx, rbx
	call	?_Reserve@?$vector@U_CAPTION_DATA@@V?$allocator@U_CAPTION_DATA@@@std@@@std@@IEAAX_K@Z ; std::vector<_CAPTION_DATA,std::allocator<_CAPTION_DATA> >::_Reserve
$LN3@push_back:
; Line 1192
	imul	rdi, 56					; 00000038H
	add	rdi, QWORD PTR [rbx]
	mov	rsi, QWORD PTR [rbx+8]
	mov	QWORD PTR $T3[rsp], rsi
; File e:\software\develop\vs2012\vc\include\xmemory0
; Line 617
	mov	QWORD PTR $T5[rsp], rsi
	test	rsi, rsi
	je	SHORT $LN29@push_back
	mov	eax, DWORD PTR [rdi]
	mov	DWORD PTR [rsi], eax
	movzx	eax, WORD PTR [rdi+4]
	mov	WORD PTR [rsi+4], ax
	movzx	eax, WORD PTR [rdi+6]
	mov	WORD PTR [rsi+6], ax
	movzx	eax, WORD PTR [rdi+8]
	mov	WORD PTR [rsi+8], ax
	movzx	eax, WORD PTR [rdi+10]
	mov	WORD PTR [rsi+10], ax
	movzx	eax, WORD PTR [rdi+12]
	mov	WORD PTR [rsi+12], ax
	movzx	eax, WORD PTR [rdi+14]
	mov	WORD PTR [rsi+14], ax
	movzx	eax, WORD PTR [rdi+16]
	mov	WORD PTR [rsi+16], ax
	lea	rdx, QWORD PTR [rdi+24]
	lea	rcx, QWORD PTR [rsi+24]
	call	??0?$vector@U_CAPTION_CHAR_DATA@@V?$allocator@U_CAPTION_CHAR_DATA@@@std@@@std@@QEAA@AEBV01@@Z ; std::vector<_CAPTION_CHAR_DATA,std::allocator<_CAPTION_CHAR_DATA> >::vector<_CAPTION_CHAR_DATA,std::allocator<_CAPTION_CHAR_DATA> >
	mov	eax, DWORD PTR [rdi+48]
	mov	DWORD PTR [rsi+48], eax
$LN29@push_back:
; File e:\software\develop\vs2012\vc\include\vector
; Line 1195
	jmp	SHORT $LN62@push_back
$LN4@push_back:
; Line 1197
	cmp	rcx, QWORD PTR [rbx+16]
	jne	SHORT $LN1@push_back
; Line 1198
	mov	rcx, rbx
	call	?_Reserve@?$vector@U_CAPTION_DATA@@V?$allocator@U_CAPTION_DATA@@@std@@@std@@IEAAX_K@Z ; std::vector<_CAPTION_DATA,std::allocator<_CAPTION_DATA> >::_Reserve
$LN1@push_back:
; Line 1201
	mov	rdi, QWORD PTR [rbx+8]
	mov	QWORD PTR $T2[rsp], rdi
; File e:\software\develop\vs2012\vc\include\xmemory0
; Line 606
	mov	QWORD PTR $T4[rsp], rdi
	test	rdi, rdi
	je	SHORT $LN53@push_back
	mov	eax, DWORD PTR [rsi]
	mov	DWORD PTR [rdi], eax
	movzx	eax, WORD PTR [rsi+4]
	mov	WORD PTR [rdi+4], ax
	movzx	eax, WORD PTR [rsi+6]
	mov	WORD PTR [rdi+6], ax
	movzx	eax, WORD PTR [rsi+8]
	mov	WORD PTR [rdi+8], ax
	movzx	eax, WORD PTR [rsi+10]
	mov	WORD PTR [rdi+10], ax
	movzx	eax, WORD PTR [rsi+12]
	mov	WORD PTR [rdi+12], ax
	movzx	eax, WORD PTR [rsi+14]
	mov	WORD PTR [rdi+14], ax
	movzx	eax, WORD PTR [rsi+16]
	mov	WORD PTR [rdi+16], ax
	lea	rdx, QWORD PTR [rsi+24]
	lea	rcx, QWORD PTR [rdi+24]
	call	??0?$vector@U_CAPTION_CHAR_DATA@@V?$allocator@U_CAPTION_CHAR_DATA@@@std@@@std@@QEAA@AEBV01@@Z ; std::vector<_CAPTION_CHAR_DATA,std::allocator<_CAPTION_CHAR_DATA> >::vector<_CAPTION_CHAR_DATA,std::allocator<_CAPTION_CHAR_DATA> >
	mov	eax, DWORD PTR [rsi+48]
	mov	DWORD PTR [rdi+48], eax
$LN53@push_back:
$LN62@push_back:
; File e:\software\develop\vs2012\vc\include\vector
; Line 1202
	add	QWORD PTR [rbx+8], 56			; 00000038H
; Line 1204
	mov	rbx, QWORD PTR [rsp+80]
	mov	rsi, QWORD PTR [rsp+88]
	add	rsp, 48					; 00000030H
	pop	rdi
	ret	0
?push_back@?$vector@U_CAPTION_DATA@@V?$allocator@U_CAPTION_DATA@@@std@@@std@@QEAAXAEBU_CAPTION_DATA@@@Z ENDP ; std::vector<_CAPTION_DATA,std::allocator<_CAPTION_DATA> >::push_back
_TEXT	ENDS
; Function compile flags: /Ogtpy
;	COMDAT text$x
text$x	SEGMENT
$T1 = 32
$T2 = 64
$T3 = 64
this$ = 64
$T4 = 72
$T5 = 72
_Val$ = 72
?dtor$0@?0??push_back@?$vector@U_CAPTION_DATA@@V?$allocator@U_CAPTION_DATA@@@std@@@std@@QEAAXAEBU_CAPTION_DATA@@@Z@4HA PROC ; `std::vector<_CAPTION_DATA,std::allocator<_CAPTION_DATA> >::push_back'::`1'::dtor$0
	push	rbp
	sub	rsp, 32					; 00000020H
	mov	rbp, rdx
	mov	rdx, QWORD PTR $T3[rbp]
	mov	rcx, QWORD PTR $T5[rbp]
	call	??3@YAXPEAX0@Z				; operator delete
	add	rsp, 32					; 00000020H
	pop	rbp
	ret	0
?dtor$0@?0??push_back@?$vector@U_CAPTION_DATA@@V?$allocator@U_CAPTION_DATA@@@std@@@std@@QEAAXAEBU_CAPTION_DATA@@@Z@4HA ENDP ; `std::vector<_CAPTION_DATA,std::allocator<_CAPTION_DATA> >::push_back'::`1'::dtor$0
text$x	ENDS
; Function compile flags: /Ogtpy
;	COMDAT text$x
text$x	SEGMENT
$T1 = 32
$T2 = 64
$T3 = 64
this$ = 64
$T4 = 72
$T5 = 72
_Val$ = 72
?dtor$2@?0??push_back@?$vector@U_CAPTION_DATA@@V?$allocator@U_CAPTION_DATA@@@std@@@std@@QEAAXAEBU_CAPTION_DATA@@@Z@4HA PROC ; `std::vector<_CAPTION_DATA,std::allocator<_CAPTION_DATA> >::push_back'::`1'::dtor$2
	push	rbp
	sub	rsp, 32					; 00000020H
	mov	rbp, rdx
	mov	rdx, QWORD PTR $T2[rbp]
	mov	rcx, QWORD PTR $T4[rbp]
	call	??3@YAXPEAX0@Z				; operator delete
	add	rsp, 32					; 00000020H
	pop	rbp
	ret	0
?dtor$2@?0??push_back@?$vector@U_CAPTION_DATA@@V?$allocator@U_CAPTION_DATA@@@std@@@std@@QEAAXAEBU_CAPTION_DATA@@@Z@4HA ENDP ; `std::vector<_CAPTION_DATA,std::allocator<_CAPTION_DATA> >::push_back'::`1'::dtor$2
text$x	ENDS
; Function compile flags: /Ogtpy
;	COMDAT ?capacity@?$vector@U_CAPTION_CHAR_DATA@@V?$allocator@U_CAPTION_CHAR_DATA@@@std@@@std@@QEBA_KXZ
_TEXT	SEGMENT
this$ = 8
?capacity@?$vector@U_CAPTION_CHAR_DATA@@V?$allocator@U_CAPTION_CHAR_DATA@@@std@@@std@@QEBA_KXZ PROC ; std::vector<_CAPTION_CHAR_DATA,std::allocator<_CAPTION_CHAR_DATA> >::capacity, COMDAT
; File e:\software\develop\vs2012\vc\include\vector
; Line 967
	mov	rdx, QWORD PTR [rcx+16]
	mov	rax, 7378697629483820647		; 6666666666666667H
	sub	rdx, QWORD PTR [rcx]
	imul	rdx
	sar	rdx, 5
	mov	rax, rdx
	shr	rax, 63					; 0000003fH
	add	rax, rdx
; Line 968
	ret	0
?capacity@?$vector@U_CAPTION_CHAR_DATA@@V?$allocator@U_CAPTION_CHAR_DATA@@@std@@@std@@QEBA_KXZ ENDP ; std::vector<_CAPTION_CHAR_DATA,std::allocator<_CAPTION_CHAR_DATA> >::capacity
_TEXT	ENDS
; Function compile flags: /Ogtpy
;	COMDAT ?_Buy@?$vector@U_CAPTION_CHAR_DATA@@V?$allocator@U_CAPTION_CHAR_DATA@@@std@@@std@@IEAA_N_K@Z
_TEXT	SEGMENT
this$ = 48
_Capacity$ = 56
?_Buy@?$vector@U_CAPTION_CHAR_DATA@@V?$allocator@U_CAPTION_CHAR_DATA@@@std@@@std@@IEAA_N_K@Z PROC ; std::vector<_CAPTION_CHAR_DATA,std::allocator<_CAPTION_CHAR_DATA> >::_Buy, COMDAT
; File e:\software\develop\vs2012\vc\include\vector
; Line 1459
$LN37:
	push	rbx
	sub	rsp, 32					; 00000020H
; Line 1460
	xor	eax, eax
	mov	rbx, rcx
	mov	QWORD PTR [rcx], rax
; Line 1461
	mov	QWORD PTR [rcx+8], rax
; Line 1462
	mov	QWORD PTR [rcx+16], rax
; Line 1464
	test	rdx, rdx
	je	SHORT $LN5@Buy
; Line 1466
	mov	rax, 230584300921369395			; 0333333333333333H
	cmp	rdx, rax
	jbe	SHORT $LN2@Buy
; Line 1667
	lea	rcx, OFFSET FLAT:??_C@_0BD@OLBABOEK@vector?$DMT?$DO?5too?5long?$AA@
	call	QWORD PTR __imp_?_Xlength_error@std@@YAXPEBD@Z
	int	3
$LN2@Buy:
	mov	QWORD PTR [rsp+48], rdi
; File e:\software\develop\vs2012\vc\include\xmemory0
; Line 28
	lea	rdi, QWORD PTR [rdx+rdx*4]
	shl	rdi, 4
	mov	rcx, rdi
	call	QWORD PTR __imp_??2@YAPEAX_K@Z
	test	rax, rax
	je	SHORT $LN26@Buy
; File e:\software\develop\vs2012\vc\include\vector
; Line 1471
	mov	QWORD PTR [rbx], rax
	mov	QWORD PTR [rbx+8], rax
; Line 1472
	add	rax, rdi
	mov	rdi, QWORD PTR [rsp+48]
	mov	QWORD PTR [rbx+16], rax
; Line 1474
	mov	al, 1
$LN5@Buy:
; Line 1475
	add	rsp, 32					; 00000020H
	pop	rbx
	ret	0
$LN26@Buy:
; File e:\software\develop\vs2012\vc\include\xmemory0
; Line 29
	call	QWORD PTR __imp_?_Xbad_alloc@std@@YAXXZ
	int	3
$LN36@Buy:
?_Buy@?$vector@U_CAPTION_CHAR_DATA@@V?$allocator@U_CAPTION_CHAR_DATA@@@std@@@std@@IEAA_N_K@Z ENDP ; std::vector<_CAPTION_CHAR_DATA,std::allocator<_CAPTION_CHAR_DATA> >::_Buy
_TEXT	ENDS
; Function compile flags: /Ogtpy
;	COMDAT ?_Inside@?$vector@U_CAPTION_CHAR_DATA@@V?$allocator@U_CAPTION_CHAR_DATA@@@std@@@std@@IEBA_NPEBU_CAPTION_CHAR_DATA@@@Z
_TEXT	SEGMENT
this$ = 8
_Ptr$ = 16
?_Inside@?$vector@U_CAPTION_CHAR_DATA@@V?$allocator@U_CAPTION_CHAR_DATA@@@std@@@std@@IEBA_NPEBU_CAPTION_CHAR_DATA@@@Z PROC ; std::vector<_CAPTION_CHAR_DATA,std::allocator<_CAPTION_CHAR_DATA> >::_Inside, COMDAT
; File e:\software\develop\vs2012\vc\include\vector
; Line 1496
	cmp	rdx, QWORD PTR [rcx+8]
	jae	SHORT $LN3@Inside
	cmp	QWORD PTR [rcx], rdx
	ja	SHORT $LN3@Inside
	mov	al, 1
; Line 1497
	ret	0
$LN3@Inside:
; Line 1496
	xor	al, al
; Line 1497
	ret	0
?_Inside@?$vector@U_CAPTION_CHAR_DATA@@V?$allocator@U_CAPTION_CHAR_DATA@@@std@@@std@@IEBA_NPEBU_CAPTION_CHAR_DATA@@@Z ENDP ; std::vector<_CAPTION_CHAR_DATA,std::allocator<_CAPTION_CHAR_DATA> >::_Inside
_TEXT	ENDS
; Function compile flags: /Ogtpy
;	COMDAT ?_Reserve@?$vector@U_CAPTION_CHAR_DATA@@V?$allocator@U_CAPTION_CHAR_DATA@@@std@@@std@@IEAAX_K@Z
_TEXT	SEGMENT
this$ = 48
_Count$dead$ = 56
?_Reserve@?$vector@U_CAPTION_CHAR_DATA@@V?$allocator@U_CAPTION_CHAR_DATA@@@std@@@std@@IEAAX_K@Z PROC ; std::vector<_CAPTION_CHAR_DATA,std::allocator<_CAPTION_CHAR_DATA> >::_Reserve, COMDAT
; File e:\software\develop\vs2012\vc\include\vector
; Line 1525
$LN43:
	push	rbx
	sub	rsp, 32					; 00000020H
; Line 972
	mov	r9, QWORD PTR [rcx+16]
	mov	r8, QWORD PTR [rcx+8]
	mov	rbx, 7378697629483820647		; 6666666666666667H
	mov	rdx, r9
	mov	rax, rbx
	sub	rdx, r8
	imul	rdx
	sar	rdx, 5
	mov	rax, rdx
	shr	rax, 63					; 0000003fH
	add	rdx, rax
; Line 1526
	cmp	rdx, 1
	jae	$LN2@Reserve
; Line 1087
	mov	r11, QWORD PTR [rcx]
	mov	rax, rbx
; Line 1528
	mov	r10, 230584300921369395			; 0333333333333333H
; Line 1087
	sub	r8, r11
	imul	r8
	sar	rdx, 5
	mov	rax, rdx
	shr	rax, 63					; 0000003fH
	add	rdx, rax
; Line 1528
	mov	rax, r10
	sub	rax, rdx
	cmp	rax, 1
	jae	SHORT $LN1@Reserve
; Line 1667
	lea	rcx, OFFSET FLAT:??_C@_0BD@OLBABOEK@vector?$DMT?$DO?5too?5long?$AA@
	call	QWORD PTR __imp_?_Xlength_error@std@@YAXPEBD@Z
	int	3
$LN1@Reserve:
; Line 1530
	lea	r8, QWORD PTR [rdx+1]
; Line 967
	sub	r9, r11
	mov	rax, rbx
	imul	r9
	sar	rdx, 5
	mov	rax, rdx
	shr	rax, 63					; 0000003fH
	add	rdx, rax
; Line 1488
	mov	rax, rdx
	shr	rax, 1
	sub	r10, rax
	cmp	r10, rdx
	jae	SHORT $LN27@Reserve
	xor	edx, edx
; Line 1489
	cmp	rdx, r8
	cmovb	rdx, r8
; Line 1532
	add	rsp, 32					; 00000020H
	pop	rbx
; Line 1530
	jmp	?_Reallocate@?$vector@U_CAPTION_CHAR_DATA@@V?$allocator@U_CAPTION_CHAR_DATA@@@std@@@std@@IEAAX_K@Z ; std::vector<_CAPTION_CHAR_DATA,std::allocator<_CAPTION_CHAR_DATA> >::_Reallocate
$LN27@Reserve:
; Line 1488
	add	rdx, rax
; Line 1489
	cmp	rdx, r8
	cmovb	rdx, r8
; Line 1532
	add	rsp, 32					; 00000020H
	pop	rbx
; Line 1530
	jmp	?_Reallocate@?$vector@U_CAPTION_CHAR_DATA@@V?$allocator@U_CAPTION_CHAR_DATA@@@std@@@std@@IEAAX_K@Z ; std::vector<_CAPTION_CHAR_DATA,std::allocator<_CAPTION_CHAR_DATA> >::_Reallocate
$LN2@Reserve:
; Line 1532
	add	rsp, 32					; 00000020H
	pop	rbx
	ret	0
$LN42@Reserve:
?_Reserve@?$vector@U_CAPTION_CHAR_DATA@@V?$allocator@U_CAPTION_CHAR_DATA@@@std@@@std@@IEAAX_K@Z ENDP ; std::vector<_CAPTION_CHAR_DATA,std::allocator<_CAPTION_CHAR_DATA> >::_Reserve
_TEXT	ENDS
; Function compile flags: /Ogtpy
;	COMDAT ?_Orphan_range@?$vector@U_CAPTION_CHAR_DATA@@V?$allocator@U_CAPTION_CHAR_DATA@@@std@@@std@@IEBAXPEAU_CAPTION_CHAR_DATA@@0@Z
_TEXT	SEGMENT
this$dead$ = 8
__formal$dead$ = 16
__formal$dead$ = 24
?_Orphan_range@?$vector@U_CAPTION_CHAR_DATA@@V?$allocator@U_CAPTION_CHAR_DATA@@@std@@@std@@IEBAXPEAU_CAPTION_CHAR_DATA@@0@Z PROC ; std::vector<_CAPTION_CHAR_DATA,std::allocator<_CAPTION_CHAR_DATA> >::_Orphan_range, COMDAT
; File e:\software\develop\vs2012\vc\include\vector
; Line 1694
	ret	0
?_Orphan_range@?$vector@U_CAPTION_CHAR_DATA@@V?$allocator@U_CAPTION_CHAR_DATA@@@std@@@std@@IEBAXPEAU_CAPTION_CHAR_DATA@@0@Z ENDP ; std::vector<_CAPTION_CHAR_DATA,std::allocator<_CAPTION_CHAR_DATA> >::_Orphan_range
_TEXT	ENDS
; Function compile flags: /Ogtpy
;	COMDAT ??0?$_Vector_alloc@$0A@U?$_Vec_base_types@U_CAPTION_CHAR_DATA@@V?$allocator@U_CAPTION_CHAR_DATA@@@std@@@std@@@std@@QEAA@AEBV?$allocator@U_CAPTION_CHAR_DATA@@@1@@Z
_TEXT	SEGMENT
this$ = 8
__formal$dead$ = 16
??0?$_Vector_alloc@$0A@U?$_Vec_base_types@U_CAPTION_CHAR_DATA@@V?$allocator@U_CAPTION_CHAR_DATA@@@std@@@std@@@std@@QEAA@AEBV?$allocator@U_CAPTION_CHAR_DATA@@@1@@Z PROC ; std::_Vector_alloc<0,std::_Vec_base_types<_CAPTION_CHAR_DATA,std::allocator<_CAPTION_CHAR_DATA> > >::_Vector_alloc<0,std::_Vec_base_types<_CAPTION_CHAR_DATA,std::allocator<_CAPTION_CHAR_DATA> > >, COMDAT
; File e:\software\develop\vs2012\vc\include\vector
; Line 486
	xor	eax, eax
	mov	QWORD PTR [rcx], rax
; Line 487
	mov	QWORD PTR [rcx+8], rax
; Line 488
	mov	QWORD PTR [rcx+16], rax
; Line 595
	mov	rax, rcx
	ret	0
??0?$_Vector_alloc@$0A@U?$_Vec_base_types@U_CAPTION_CHAR_DATA@@V?$allocator@U_CAPTION_CHAR_DATA@@@std@@@std@@@std@@QEAA@AEBV?$allocator@U_CAPTION_CHAR_DATA@@@1@@Z ENDP ; std::_Vector_alloc<0,std::_Vec_base_types<_CAPTION_CHAR_DATA,std::allocator<_CAPTION_CHAR_DATA> > >::_Vector_alloc<0,std::_Vec_base_types<_CAPTION_CHAR_DATA,std::allocator<_CAPTION_CHAR_DATA> > >
_TEXT	ENDS
; Function compile flags: /Ogtpy
;	COMDAT ?_Inside@?$vector@U_LANG_TAG_INFO@@V?$allocator@U_LANG_TAG_INFO@@@std@@@std@@IEBA_NPEBU_LANG_TAG_INFO@@@Z
_TEXT	SEGMENT
this$ = 8
_Ptr$ = 16
?_Inside@?$vector@U_LANG_TAG_INFO@@V?$allocator@U_LANG_TAG_INFO@@@std@@@std@@IEBA_NPEBU_LANG_TAG_INFO@@@Z PROC ; std::vector<_LANG_TAG_INFO,std::allocator<_LANG_TAG_INFO> >::_Inside, COMDAT
; File e:\software\develop\vs2012\vc\include\vector
; Line 1496
	cmp	rdx, QWORD PTR [rcx+8]
	jae	SHORT $LN3@Inside
	cmp	QWORD PTR [rcx], rdx
	ja	SHORT $LN3@Inside
	mov	al, 1
; Line 1497
	ret	0
$LN3@Inside:
; Line 1496
	xor	al, al
; Line 1497
	ret	0
?_Inside@?$vector@U_LANG_TAG_INFO@@V?$allocator@U_LANG_TAG_INFO@@@std@@@std@@IEBA_NPEBU_LANG_TAG_INFO@@@Z ENDP ; std::vector<_LANG_TAG_INFO,std::allocator<_LANG_TAG_INFO> >::_Inside
_TEXT	ENDS
; Function compile flags: /Ogtpy
;	COMDAT ?_Reserve@?$vector@U_LANG_TAG_INFO@@V?$allocator@U_LANG_TAG_INFO@@@std@@@std@@IEAAX_K@Z
_TEXT	SEGMENT
this$ = 48
_Count$dead$ = 56
?_Reserve@?$vector@U_LANG_TAG_INFO@@V?$allocator@U_LANG_TAG_INFO@@@std@@@std@@IEAAX_K@Z PROC ; std::vector<_LANG_TAG_INFO,std::allocator<_LANG_TAG_INFO> >::_Reserve, COMDAT
; File e:\software\develop\vs2012\vc\include\vector
; Line 1525
$LN43:
	push	rbx
	sub	rsp, 32					; 00000020H
; Line 972
	mov	r9, QWORD PTR [rcx+16]
	mov	r8, QWORD PTR [rcx+8]
	mov	rbx, 7378697629483820647		; 6666666666666667H
	mov	rdx, r9
	mov	rax, rbx
	sub	rdx, r8
	imul	rdx
	sar	rdx, 2
	mov	rax, rdx
	shr	rax, 63					; 0000003fH
	add	rdx, rax
; Line 1526
	cmp	rdx, 1
	jae	$LN2@Reserve
; Line 1087
	mov	r11, QWORD PTR [rcx]
	mov	rax, rbx
; Line 1528
	mov	r10, 1844674407370955161		; 1999999999999999H
; Line 1087
	sub	r8, r11
	imul	r8
	sar	rdx, 2
	mov	rax, rdx
	shr	rax, 63					; 0000003fH
	add	rdx, rax
; Line 1528
	mov	rax, r10
	sub	rax, rdx
	cmp	rax, 1
	jae	SHORT $LN1@Reserve
; Line 1667
	lea	rcx, OFFSET FLAT:??_C@_0BD@OLBABOEK@vector?$DMT?$DO?5too?5long?$AA@
	call	QWORD PTR __imp_?_Xlength_error@std@@YAXPEBD@Z
	int	3
$LN1@Reserve:
; Line 1530
	lea	r8, QWORD PTR [rdx+1]
; Line 967
	sub	r9, r11
	mov	rax, rbx
	imul	r9
	sar	rdx, 2
	mov	rax, rdx
	shr	rax, 63					; 0000003fH
	add	rdx, rax
; Line 1488
	mov	rax, rdx
	shr	rax, 1
	sub	r10, rax
	cmp	r10, rdx
	jae	SHORT $LN27@Reserve
	xor	edx, edx
; Line 1489
	cmp	rdx, r8
	cmovb	rdx, r8
; Line 1532
	add	rsp, 32					; 00000020H
	pop	rbx
; Line 1530
	jmp	?_Reallocate@?$vector@U_LANG_TAG_INFO@@V?$allocator@U_LANG_TAG_INFO@@@std@@@std@@IEAAX_K@Z ; std::vector<_LANG_TAG_INFO,std::allocator<_LANG_TAG_INFO> >::_Reallocate
$LN27@Reserve:
; Line 1488
	add	rdx, rax
; Line 1489
	cmp	rdx, r8
	cmovb	rdx, r8
; Line 1532
	add	rsp, 32					; 00000020H
	pop	rbx
; Line 1530
	jmp	?_Reallocate@?$vector@U_LANG_TAG_INFO@@V?$allocator@U_LANG_TAG_INFO@@@std@@@std@@IEAAX_K@Z ; std::vector<_LANG_TAG_INFO,std::allocator<_LANG_TAG_INFO> >::_Reallocate
$LN2@Reserve:
; Line 1532
	add	rsp, 32					; 00000020H
	pop	rbx
	ret	0
$LN42@Reserve:
?_Reserve@?$vector@U_LANG_TAG_INFO@@V?$allocator@U_LANG_TAG_INFO@@@std@@@std@@IEAAX_K@Z ENDP ; std::vector<_LANG_TAG_INFO,std::allocator<_LANG_TAG_INFO> >::_Reserve
_TEXT	ENDS
; Function compile flags: /Ogtpy
;	COMDAT ?_Orphan_range@?$vector@U_LANG_TAG_INFO@@V?$allocator@U_LANG_TAG_INFO@@@std@@@std@@IEBAXPEAU_LANG_TAG_INFO@@0@Z
_TEXT	SEGMENT
this$dead$ = 8
__formal$dead$ = 16
__formal$dead$ = 24
?_Orphan_range@?$vector@U_LANG_TAG_INFO@@V?$allocator@U_LANG_TAG_INFO@@@std@@@std@@IEBAXPEAU_LANG_TAG_INFO@@0@Z PROC ; std::vector<_LANG_TAG_INFO,std::allocator<_LANG_TAG_INFO> >::_Orphan_range, COMDAT
; File e:\software\develop\vs2012\vc\include\vector
; Line 1694
	ret	0
?_Orphan_range@?$vector@U_LANG_TAG_INFO@@V?$allocator@U_LANG_TAG_INFO@@@std@@@std@@IEBAXPEAU_LANG_TAG_INFO@@0@Z ENDP ; std::vector<_LANG_TAG_INFO,std::allocator<_LANG_TAG_INFO> >::_Orphan_range
_TEXT	ENDS
; Function compile flags: /Ogtpy
;	COMDAT ?_Inside@?$vector@U_CAPTION_DATA@@V?$allocator@U_CAPTION_DATA@@@std@@@std@@IEBA_NPEBU_CAPTION_DATA@@@Z
_TEXT	SEGMENT
this$ = 8
_Ptr$ = 16
?_Inside@?$vector@U_CAPTION_DATA@@V?$allocator@U_CAPTION_DATA@@@std@@@std@@IEBA_NPEBU_CAPTION_DATA@@@Z PROC ; std::vector<_CAPTION_DATA,std::allocator<_CAPTION_DATA> >::_Inside, COMDAT
; File e:\software\develop\vs2012\vc\include\vector
; Line 1496
	cmp	rdx, QWORD PTR [rcx+8]
	jae	SHORT $LN3@Inside
	cmp	QWORD PTR [rcx], rdx
	ja	SHORT $LN3@Inside
	mov	al, 1
; Line 1497
	ret	0
$LN3@Inside:
; Line 1496
	xor	al, al
; Line 1497
	ret	0
?_Inside@?$vector@U_CAPTION_DATA@@V?$allocator@U_CAPTION_DATA@@@std@@@std@@IEBA_NPEBU_CAPTION_DATA@@@Z ENDP ; std::vector<_CAPTION_DATA,std::allocator<_CAPTION_DATA> >::_Inside
_TEXT	ENDS
; Function compile flags: /Ogtpy
;	COMDAT ?_Reserve@?$vector@U_CAPTION_DATA@@V?$allocator@U_CAPTION_DATA@@@std@@@std@@IEAAX_K@Z
_TEXT	SEGMENT
this$ = 48
_Count$dead$ = 56
?_Reserve@?$vector@U_CAPTION_DATA@@V?$allocator@U_CAPTION_DATA@@@std@@@std@@IEAAX_K@Z PROC ; std::vector<_CAPTION_DATA,std::allocator<_CAPTION_DATA> >::_Reserve, COMDAT
; File e:\software\develop\vs2012\vc\include\vector
; Line 1525
$LN43:
	push	rbx
	sub	rsp, 32					; 00000020H
; Line 972
	mov	r9, QWORD PTR [rcx+16]
	mov	r8, QWORD PTR [rcx+8]
	mov	rbx, 5270498306774157605		; 4924924924924925H
	mov	rdx, r9
	mov	rax, rbx
	sub	rdx, r8
	imul	rdx
	sar	rdx, 4
	mov	rax, rdx
	shr	rax, 63					; 0000003fH
	add	rdx, rax
; Line 1526
	cmp	rdx, 1
	jae	$LN2@Reserve
; Line 1087
	mov	r11, QWORD PTR [rcx]
	mov	rax, rbx
; Line 1528
	mov	r10, 329406144173384850			; 0492492492492492H
; Line 1087
	sub	r8, r11
	imul	r8
	sar	rdx, 4
	mov	rax, rdx
	shr	rax, 63					; 0000003fH
	add	rdx, rax
; Line 1528
	mov	rax, r10
	sub	rax, rdx
	cmp	rax, 1
	jae	SHORT $LN1@Reserve
; Line 1667
	lea	rcx, OFFSET FLAT:??_C@_0BD@OLBABOEK@vector?$DMT?$DO?5too?5long?$AA@
	call	QWORD PTR __imp_?_Xlength_error@std@@YAXPEBD@Z
	int	3
$LN1@Reserve:
; Line 1530
	lea	r8, QWORD PTR [rdx+1]
; Line 967
	sub	r9, r11
	mov	rax, rbx
	imul	r9
	sar	rdx, 4
	mov	rax, rdx
	shr	rax, 63					; 0000003fH
	add	rdx, rax
; Line 1488
	mov	rax, rdx
	shr	rax, 1
	sub	r10, rax
	cmp	r10, rdx
	jae	SHORT $LN27@Reserve
	xor	edx, edx
; Line 1489
	cmp	rdx, r8
	cmovb	rdx, r8
; Line 1532
	add	rsp, 32					; 00000020H
	pop	rbx
; Line 1530
	jmp	?_Reallocate@?$vector@U_CAPTION_DATA@@V?$allocator@U_CAPTION_DATA@@@std@@@std@@IEAAX_K@Z ; std::vector<_CAPTION_DATA,std::allocator<_CAPTION_DATA> >::_Reallocate
$LN27@Reserve:
; Line 1488
	add	rdx, rax
; Line 1489
	cmp	rdx, r8
	cmovb	rdx, r8
; Line 1532
	add	rsp, 32					; 00000020H
	pop	rbx
; Line 1530
	jmp	?_Reallocate@?$vector@U_CAPTION_DATA@@V?$allocator@U_CAPTION_DATA@@@std@@@std@@IEAAX_K@Z ; std::vector<_CAPTION_DATA,std::allocator<_CAPTION_DATA> >::_Reallocate
$LN2@Reserve:
; Line 1532
	add	rsp, 32					; 00000020H
	pop	rbx
	ret	0
$LN42@Reserve:
?_Reserve@?$vector@U_CAPTION_DATA@@V?$allocator@U_CAPTION_DATA@@@std@@@std@@IEAAX_K@Z ENDP ; std::vector<_CAPTION_DATA,std::allocator<_CAPTION_DATA> >::_Reserve
_TEXT	ENDS
; Function compile flags: /Ogtpy
;	COMDAT ?_Orphan_range@?$vector@U_CAPTION_DATA@@V?$allocator@U_CAPTION_DATA@@@std@@@std@@IEBAXPEAU_CAPTION_DATA@@0@Z
_TEXT	SEGMENT
this$dead$ = 8
__formal$dead$ = 16
__formal$dead$ = 24
?_Orphan_range@?$vector@U_CAPTION_DATA@@V?$allocator@U_CAPTION_DATA@@@std@@@std@@IEBAXPEAU_CAPTION_DATA@@0@Z PROC ; std::vector<_CAPTION_DATA,std::allocator<_CAPTION_DATA> >::_Orphan_range, COMDAT
; File e:\software\develop\vs2012\vc\include\vector
; Line 1694
	ret	0
?_Orphan_range@?$vector@U_CAPTION_DATA@@V?$allocator@U_CAPTION_DATA@@@std@@@std@@IEBAXPEAU_CAPTION_DATA@@0@Z ENDP ; std::vector<_CAPTION_DATA,std::allocator<_CAPTION_DATA> >::_Orphan_range
_TEXT	ENDS
; Function compile flags: /Ogtpy
;	COMDAT ?_Unused_capacity@?$vector@U_CAPTION_CHAR_DATA@@V?$allocator@U_CAPTION_CHAR_DATA@@@std@@@std@@QEBA_KXZ
_TEXT	SEGMENT
this$ = 8
?_Unused_capacity@?$vector@U_CAPTION_CHAR_DATA@@V?$allocator@U_CAPTION_CHAR_DATA@@@std@@@std@@QEBA_KXZ PROC ; std::vector<_CAPTION_CHAR_DATA,std::allocator<_CAPTION_CHAR_DATA> >::_Unused_capacity, COMDAT
; File e:\software\develop\vs2012\vc\include\vector
; Line 972
	mov	rdx, QWORD PTR [rcx+16]
	mov	rax, 7378697629483820647		; 6666666666666667H
	sub	rdx, QWORD PTR [rcx+8]
	imul	rdx
	sar	rdx, 5
	mov	rax, rdx
	shr	rax, 63					; 0000003fH
	add	rax, rdx
; Line 973
	ret	0
?_Unused_capacity@?$vector@U_CAPTION_CHAR_DATA@@V?$allocator@U_CAPTION_CHAR_DATA@@@std@@@std@@QEBA_KXZ ENDP ; std::vector<_CAPTION_CHAR_DATA,std::allocator<_CAPTION_CHAR_DATA> >::_Unused_capacity
_TEXT	ENDS
; Function compile flags: /Ogtpy
;	COMDAT ?max_size@?$vector@U_CAPTION_CHAR_DATA@@V?$allocator@U_CAPTION_CHAR_DATA@@@std@@@std@@QEBA_KXZ
_TEXT	SEGMENT
this$dead$ = 8
?max_size@?$vector@U_CAPTION_CHAR_DATA@@V?$allocator@U_CAPTION_CHAR_DATA@@@std@@@std@@QEBA_KXZ PROC ; std::vector<_CAPTION_CHAR_DATA,std::allocator<_CAPTION_CHAR_DATA> >::max_size, COMDAT
; File e:\software\develop\vs2012\vc\include\vector
; Line 1092
	mov	rax, 230584300921369395			; 0333333333333333H
; Line 1093
	ret	0
?max_size@?$vector@U_CAPTION_CHAR_DATA@@V?$allocator@U_CAPTION_CHAR_DATA@@@std@@@std@@QEBA_KXZ ENDP ; std::vector<_CAPTION_CHAR_DATA,std::allocator<_CAPTION_CHAR_DATA> >::max_size
_TEXT	ENDS
; Function compile flags: /Ogtpy
;	COMDAT ?_Grow_to@?$vector@U_CAPTION_CHAR_DATA@@V?$allocator@U_CAPTION_CHAR_DATA@@@std@@@std@@IEBA_K_K@Z
_TEXT	SEGMENT
this$ = 8
_Count$ = 16
?_Grow_to@?$vector@U_CAPTION_CHAR_DATA@@V?$allocator@U_CAPTION_CHAR_DATA@@@std@@@std@@IEBA_K_K@Z PROC ; std::vector<_CAPTION_CHAR_DATA,std::allocator<_CAPTION_CHAR_DATA> >::_Grow_to, COMDAT
; File e:\software\develop\vs2012\vc\include\vector
; Line 967
	mov	r8, QWORD PTR [rcx+16]
; Line 1484
	mov	r9, rdx
; Line 967
	mov	rax, 7378697629483820647		; 6666666666666667H
	sub	r8, QWORD PTR [rcx]
	imul	r8
	sar	rdx, 5
	mov	rax, rdx
	shr	rax, 63					; 0000003fH
	add	rdx, rax
; Line 1488
	mov	rax, 230584300921369395			; 0333333333333333H
	mov	rcx, rdx
	shr	rcx, 1
	sub	rax, rcx
	cmp	rax, rdx
	jae	SHORT $LN4@Grow_to
	xor	edx, edx
; Line 1489
	cmp	rdx, r9
	cmovb	rdx, r9
; Line 1491
	mov	rax, rdx
; Line 1492
	ret	0
$LN4@Grow_to:
; Line 1488
	add	rdx, rcx
; Line 1489
	cmp	rdx, r9
	cmovb	rdx, r9
; Line 1491
	mov	rax, rdx
; Line 1492
	ret	0
?_Grow_to@?$vector@U_CAPTION_CHAR_DATA@@V?$allocator@U_CAPTION_CHAR_DATA@@@std@@@std@@IEBA_K_K@Z ENDP ; std::vector<_CAPTION_CHAR_DATA,std::allocator<_CAPTION_CHAR_DATA> >::_Grow_to
_TEXT	ENDS
; Function compile flags: /Ogtpy
;	COMDAT ?_Reallocate@?$vector@U_CAPTION_CHAR_DATA@@V?$allocator@U_CAPTION_CHAR_DATA@@@std@@@std@@IEAAX_K@Z
_TEXT	SEGMENT
$T1 = 48
this$ = 112
_Ptr$2 = 120
_Count$ = 120
?_Reallocate@?$vector@U_CAPTION_CHAR_DATA@@V?$allocator@U_CAPTION_CHAR_DATA@@@std@@@std@@IEAAX_K@Z PROC ; std::vector<_CAPTION_CHAR_DATA,std::allocator<_CAPTION_CHAR_DATA> >::_Reallocate, COMDAT
; File e:\software\develop\vs2012\vc\include\vector
; Line 1500
$LN106:
	push	rdi
	push	r12
	push	r13
	push	r14
	push	r15
	sub	rsp, 64					; 00000040H
	mov	QWORD PTR $T1[rsp], -2
	mov	QWORD PTR [rsp+112], rbx
	mov	QWORD PTR [rsp+128], rsi
	mov	rsi, rdx
	mov	r14, rcx
; File e:\software\develop\vs2012\vc\include\xmemory0
; Line 23
	xor	r13d, r13d
	mov	edi, r13d
	mov	QWORD PTR _Ptr$2[rsp], r13
; Line 25
	test	rdx, rdx
	je	SHORT $LN16@Reallocate
; Line 28
	mov	rax, 230584300921369395			; 0333333333333333H
	cmp	rdx, rax
	ja	SHORT $LN15@Reallocate
	lea	rcx, QWORD PTR [rdx+rdx*4]
	shl	rcx, 4
	call	QWORD PTR __imp_??2@YAPEAX_K@Z
	mov	rdi, rax
	mov	QWORD PTR _Ptr$2[rsp], rax
	test	rax, rax
	jne	SHORT $LN16@Reallocate
$LN15@Reallocate:
; Line 29
	call	QWORD PTR __imp_?_Xbad_alloc@std@@YAXXZ
	npad	1
$LN16@Reallocate:
; File e:\software\develop\vs2012\vc\include\xmemory
; Line 473
	mov	r8, rdi
	mov	rdx, QWORD PTR [r14+8]
	mov	rcx, QWORD PTR [r14]
	call	??$_Uninit_move@PEAU_CAPTION_CHAR_DATA@@PEAU1@V?$allocator@U_CAPTION_CHAR_DATA@@@std@@U1@@std@@YAPEAU_CAPTION_CHAR_DATA@@PEAU1@00AEAU?$_Wrap_alloc@V?$allocator@U_CAPTION_CHAR_DATA@@@std@@@0@0U_Nonscalar_ptr_iterator_tag@0@@Z ; std::_Uninit_move<_CAPTION_CHAR_DATA * __ptr64,_CAPTION_CHAR_DATA * __ptr64,std::allocator<_CAPTION_CHAR_DATA>,_CAPTION_CHAR_DATA>
	npad	1
; File e:\software\develop\vs2012\vc\include\vector
; Line 1087
	mov	r15, QWORD PTR [r14+8]
	mov	rbx, QWORD PTR [r14]
	mov	rcx, r15
	sub	rcx, rbx
	mov	rax, 7378697629483820647		; 6666666666666667H
	imul	rcx
	mov	r12, rdx
	sar	r12, 5
	mov	rax, r12
	shr	rax, 63					; 0000003fH
	add	r12, rax
; Line 1511
	test	rbx, rbx
	je	SHORT $LN98@Reallocate
; File e:\software\develop\vs2012\vc\include\xmemory0
; Line 88
	cmp	rbx, r15
	je	SHORT $LN46@Reallocate
$LL48@Reallocate:
; File e:\software\develop\vs2012\vc\include\xstring
; Line 2256
	cmp	QWORD PTR [rbx+24], 16
	jb	SHORT $LN82@Reallocate
; File e:\software\develop\vs2012\vc\include\xmemory0
; Line 586
	mov	rcx, QWORD PTR [rbx]
	call	QWORD PTR __imp_??3@YAXPEAX@Z
$LN82@Reallocate:
; File e:\software\develop\vs2012\vc\include\xstring
; Line 2265
	mov	QWORD PTR [rbx+24], 15
; Line 2218
	mov	QWORD PTR [rbx+16], r13
; File e:\software\develop\vs2012\vc\include\iosfwd
; Line 564
	mov	BYTE PTR [rbx], 0
; File e:\software\develop\vs2012\vc\include\xmemory0
; Line 88
	add	rbx, 80					; 00000050H
	cmp	rbx, r15
	jne	SHORT $LL48@Reallocate
$LN46@Reallocate:
; Line 586
	mov	rcx, QWORD PTR [r14]
	call	QWORD PTR __imp_??3@YAXPEAX@Z
$LN98@Reallocate:
; File e:\software\develop\vs2012\vc\include\vector
; Line 1519
	lea	rax, QWORD PTR [rsi+rsi*4]
	shl	rax, 4
	add	rax, rdi
	mov	QWORD PTR [r14+16], rax
; Line 1520
	lea	rax, QWORD PTR [r12+r12*4]
	shl	rax, 4
	add	rax, rdi
	mov	QWORD PTR [r14+8], rax
; Line 1521
	mov	QWORD PTR [r14], rdi
; Line 1522
	mov	rbx, QWORD PTR [rsp+112]
	mov	rsi, QWORD PTR [rsp+128]
	add	rsp, 64					; 00000040H
	pop	r15
	pop	r14
	pop	r13
	pop	r12
	pop	rdi
	ret	0
$LN105@Reallocate:
?_Reallocate@?$vector@U_CAPTION_CHAR_DATA@@V?$allocator@U_CAPTION_CHAR_DATA@@@std@@@std@@IEAAX_K@Z ENDP ; std::vector<_CAPTION_CHAR_DATA,std::allocator<_CAPTION_CHAR_DATA> >::_Reallocate
_TEXT	ENDS
; Function compile flags: /Ogtpy
;	COMDAT text$x
text$x	SEGMENT
$T1 = 48
this$ = 112
_Ptr$2 = 120
_Count$ = 120
?catch$0@?0??_Reallocate@?$vector@U_CAPTION_CHAR_DATA@@V?$allocator@U_CAPTION_CHAR_DATA@@@std@@@std@@IEAAX_K@Z@4HA PROC ; `std::vector<_CAPTION_CHAR_DATA,std::allocator<_CAPTION_CHAR_DATA> >::_Reallocate'::`1'::catch$0
; Line 1505
	mov	QWORD PTR [rsp+16], rdx
	push	rbp
	sub	rsp, 48					; 00000030H
	mov	rbp, rdx
__catch$?_Reallocate@?$vector@U_CAPTION_CHAR_DATA@@V?$allocator@U_CAPTION_CHAR_DATA@@@std@@@std@@IEAAX_K@Z$0:
; File e:\software\develop\vs2012\vc\include\xmemory0
; Line 586
	mov	rcx, QWORD PTR _Ptr$2[rbp]
	call	QWORD PTR __imp_??3@YAXPEAX@Z
; File e:\software\develop\vs2012\vc\include\vector
; Line 1507
	xor	edx, edx
	xor	ecx, ecx
	call	_CxxThrowException
	npad	1
?catch$0@?0??_Reallocate@?$vector@U_CAPTION_CHAR_DATA@@V?$allocator@U_CAPTION_CHAR_DATA@@@std@@@std@@IEAAX_K@Z@4HA ENDP ; `std::vector<_CAPTION_CHAR_DATA,std::allocator<_CAPTION_CHAR_DATA> >::_Reallocate'::`1'::catch$0
text$x	ENDS
; Function compile flags: /Ogtpy
;	COMDAT ?_Xlen@?$vector@U_CAPTION_CHAR_DATA@@V?$allocator@U_CAPTION_CHAR_DATA@@@std@@@std@@IEBAXXZ
_TEXT	SEGMENT
this$dead$ = 48
?_Xlen@?$vector@U_CAPTION_CHAR_DATA@@V?$allocator@U_CAPTION_CHAR_DATA@@@std@@@std@@IEBAXXZ PROC ; std::vector<_CAPTION_CHAR_DATA,std::allocator<_CAPTION_CHAR_DATA> >::_Xlen, COMDAT
; File e:\software\develop\vs2012\vc\include\vector
; Line 1666
$LN4:
	sub	rsp, 40					; 00000028H
; Line 1667
	lea	rcx, OFFSET FLAT:??_C@_0BD@OLBABOEK@vector?$DMT?$DO?5too?5long?$AA@
	call	QWORD PTR __imp_?_Xlength_error@std@@YAXPEBD@Z
	int	3
$LN3@Xlen:
?_Xlen@?$vector@U_CAPTION_CHAR_DATA@@V?$allocator@U_CAPTION_CHAR_DATA@@@std@@@std@@IEBAXXZ ENDP ; std::vector<_CAPTION_CHAR_DATA,std::allocator<_CAPTION_CHAR_DATA> >::_Xlen
_TEXT	ENDS
; Function compile flags: /Ogtpy
;	COMDAT ?allocate@?$_Wrap_alloc@V?$allocator@U_CAPTION_CHAR_DATA@@@std@@@std@@QEAAPEAU_CAPTION_CHAR_DATA@@_K@Z
_TEXT	SEGMENT
this$dead$ = 48
_Count$ = 56
?allocate@?$_Wrap_alloc@V?$allocator@U_CAPTION_CHAR_DATA@@@std@@@std@@QEAAPEAU_CAPTION_CHAR_DATA@@_K@Z PROC ; std::_Wrap_alloc<std::allocator<_CAPTION_CHAR_DATA> >::allocate, COMDAT
; File e:\software\develop\vs2012\vc\include\xmemory0
; Line 875
$LN15:
	sub	rsp, 40					; 00000028H
; Line 23
	xor	eax, eax
; Line 25
	test	rdx, rdx
	je	SHORT $LN6@allocate
; Line 28
	mov	rax, 230584300921369395			; 0333333333333333H
	cmp	rdx, rax
	ja	SHORT $LN5@allocate
	lea	rcx, QWORD PTR [rdx+rdx*4]
	shl	rcx, 4
	call	QWORD PTR __imp_??2@YAPEAX_K@Z
	test	rax, rax
	jne	SHORT $LN6@allocate
$LN5@allocate:
; Line 29
	call	QWORD PTR __imp_?_Xbad_alloc@std@@YAXXZ
	int	3
$LN6@allocate:
; Line 877
	add	rsp, 40					; 00000028H
	ret	0
$LN14@allocate:
?allocate@?$_Wrap_alloc@V?$allocator@U_CAPTION_CHAR_DATA@@@std@@@std@@QEAAPEAU_CAPTION_CHAR_DATA@@_K@Z ENDP ; std::_Wrap_alloc<std::allocator<_CAPTION_CHAR_DATA> >::allocate
_TEXT	ENDS
; Function compile flags: /Ogtpy
;	COMDAT ??0?$_Vector_val@U?$_Simple_types@U_CAPTION_CHAR_DATA@@@std@@@std@@QEAA@XZ
_TEXT	SEGMENT
this$ = 8
??0?$_Vector_val@U?$_Simple_types@U_CAPTION_CHAR_DATA@@@std@@@std@@QEAA@XZ PROC ; std::_Vector_val<std::_Simple_types<_CAPTION_CHAR_DATA> >::_Vector_val<std::_Simple_types<_CAPTION_CHAR_DATA> >, COMDAT
; File e:\software\develop\vs2012\vc\include\vector
; Line 486
	xor	eax, eax
	mov	QWORD PTR [rcx], rax
; Line 487
	mov	QWORD PTR [rcx+8], rax
; Line 488
	mov	QWORD PTR [rcx+16], rax
; Line 489
	mov	rax, rcx
	ret	0
??0?$_Vector_val@U?$_Simple_types@U_CAPTION_CHAR_DATA@@@std@@@std@@QEAA@XZ ENDP ; std::_Vector_val<std::_Simple_types<_CAPTION_CHAR_DATA> >::_Vector_val<std::_Simple_types<_CAPTION_CHAR_DATA> >
_TEXT	ENDS
; Function compile flags: /Ogtpy
;	COMDAT ?_Unused_capacity@?$vector@U_LANG_TAG_INFO@@V?$allocator@U_LANG_TAG_INFO@@@std@@@std@@QEBA_KXZ
_TEXT	SEGMENT
this$ = 8
?_Unused_capacity@?$vector@U_LANG_TAG_INFO@@V?$allocator@U_LANG_TAG_INFO@@@std@@@std@@QEBA_KXZ PROC ; std::vector<_LANG_TAG_INFO,std::allocator<_LANG_TAG_INFO> >::_Unused_capacity, COMDAT
; File e:\software\develop\vs2012\vc\include\vector
; Line 972
	mov	rdx, QWORD PTR [rcx+16]
	mov	rax, 7378697629483820647		; 6666666666666667H
	sub	rdx, QWORD PTR [rcx+8]
	imul	rdx
	sar	rdx, 2
	mov	rax, rdx
	shr	rax, 63					; 0000003fH
	add	rax, rdx
; Line 973
	ret	0
?_Unused_capacity@?$vector@U_LANG_TAG_INFO@@V?$allocator@U_LANG_TAG_INFO@@@std@@@std@@QEBA_KXZ ENDP ; std::vector<_LANG_TAG_INFO,std::allocator<_LANG_TAG_INFO> >::_Unused_capacity
_TEXT	ENDS
; Function compile flags: /Ogtpy
;	COMDAT ?size@?$vector@U_LANG_TAG_INFO@@V?$allocator@U_LANG_TAG_INFO@@@std@@@std@@QEBA_KXZ
_TEXT	SEGMENT
this$ = 8
?size@?$vector@U_LANG_TAG_INFO@@V?$allocator@U_LANG_TAG_INFO@@@std@@@std@@QEBA_KXZ PROC ; std::vector<_LANG_TAG_INFO,std::allocator<_LANG_TAG_INFO> >::size, COMDAT
; File e:\software\develop\vs2012\vc\include\vector
; Line 1087
	mov	rdx, QWORD PTR [rcx+8]
	mov	rax, 7378697629483820647		; 6666666666666667H
	sub	rdx, QWORD PTR [rcx]
	imul	rdx
	sar	rdx, 2
	mov	rax, rdx
	shr	rax, 63					; 0000003fH
	add	rax, rdx
; Line 1088
	ret	0
?size@?$vector@U_LANG_TAG_INFO@@V?$allocator@U_LANG_TAG_INFO@@@std@@@std@@QEBA_KXZ ENDP ; std::vector<_LANG_TAG_INFO,std::allocator<_LANG_TAG_INFO> >::size
_TEXT	ENDS
; Function compile flags: /Ogtpy
;	COMDAT ?max_size@?$vector@U_LANG_TAG_INFO@@V?$allocator@U_LANG_TAG_INFO@@@std@@@std@@QEBA_KXZ
_TEXT	SEGMENT
this$dead$ = 8
?max_size@?$vector@U_LANG_TAG_INFO@@V?$allocator@U_LANG_TAG_INFO@@@std@@@std@@QEBA_KXZ PROC ; std::vector<_LANG_TAG_INFO,std::allocator<_LANG_TAG_INFO> >::max_size, COMDAT
; File e:\software\develop\vs2012\vc\include\vector
; Line 1092
	mov	rax, 1844674407370955161		; 1999999999999999H
; Line 1093
	ret	0
?max_size@?$vector@U_LANG_TAG_INFO@@V?$allocator@U_LANG_TAG_INFO@@@std@@@std@@QEBA_KXZ ENDP ; std::vector<_LANG_TAG_INFO,std::allocator<_LANG_TAG_INFO> >::max_size
_TEXT	ENDS
; Function compile flags: /Ogtpy
;	COMDAT ?_Grow_to@?$vector@U_LANG_TAG_INFO@@V?$allocator@U_LANG_TAG_INFO@@@std@@@std@@IEBA_K_K@Z
_TEXT	SEGMENT
this$ = 8
_Count$ = 16
?_Grow_to@?$vector@U_LANG_TAG_INFO@@V?$allocator@U_LANG_TAG_INFO@@@std@@@std@@IEBA_K_K@Z PROC ; std::vector<_LANG_TAG_INFO,std::allocator<_LANG_TAG_INFO> >::_Grow_to, COMDAT
; File e:\software\develop\vs2012\vc\include\vector
; Line 967
	mov	r8, QWORD PTR [rcx+16]
; Line 1484
	mov	r9, rdx
; Line 967
	mov	rax, 7378697629483820647		; 6666666666666667H
	sub	r8, QWORD PTR [rcx]
	imul	r8
	sar	rdx, 2
	mov	rax, rdx
	shr	rax, 63					; 0000003fH
	add	rdx, rax
; Line 1488
	mov	rax, 1844674407370955161		; 1999999999999999H
	mov	rcx, rdx
	shr	rcx, 1
	sub	rax, rcx
	cmp	rax, rdx
	jae	SHORT $LN4@Grow_to
	xor	edx, edx
; Line 1489
	cmp	rdx, r9
	cmovb	rdx, r9
; Line 1491
	mov	rax, rdx
; Line 1492
	ret	0
$LN4@Grow_to:
; Line 1488
	add	rdx, rcx
; Line 1489
	cmp	rdx, r9
	cmovb	rdx, r9
; Line 1491
	mov	rax, rdx
; Line 1492
	ret	0
?_Grow_to@?$vector@U_LANG_TAG_INFO@@V?$allocator@U_LANG_TAG_INFO@@@std@@@std@@IEBA_K_K@Z ENDP ; std::vector<_LANG_TAG_INFO,std::allocator<_LANG_TAG_INFO> >::_Grow_to
_TEXT	ENDS
; Function compile flags: /Ogtpy
;	COMDAT ?_Reallocate@?$vector@U_LANG_TAG_INFO@@V?$allocator@U_LANG_TAG_INFO@@@std@@@std@@IEAAX_K@Z
_TEXT	SEGMENT
this$ = 64
_Count$ = 72
?_Reallocate@?$vector@U_LANG_TAG_INFO@@V?$allocator@U_LANG_TAG_INFO@@@std@@@std@@IEAAX_K@Z PROC ; std::vector<_LANG_TAG_INFO,std::allocator<_LANG_TAG_INFO> >::_Reallocate, COMDAT
; File e:\software\develop\vs2012\vc\include\vector
; Line 1500
$LN50:
	mov	QWORD PTR [rsp+16], rbx
	mov	QWORD PTR [rsp+24], rsi
	push	rdi
	sub	rsp, 48					; 00000030H
; File e:\software\develop\vs2012\vc\include\xmemory0
; Line 23
	xor	edi, edi
; File e:\software\develop\vs2012\vc\include\vector
; Line 1500
	mov	rbx, rdx
	mov	rsi, rcx
; File e:\software\develop\vs2012\vc\include\xmemory0
; Line 25
	test	rdx, rdx
	je	SHORT $LN16@Reallocate
; Line 28
	mov	rax, 1844674407370955161		; 1999999999999999H
	cmp	rdx, rax
	ja	SHORT $LN15@Reallocate
	lea	rcx, QWORD PTR [rdx+rdx*4]
	add	rcx, rcx
	call	QWORD PTR __imp_??2@YAPEAX_K@Z
	mov	rdi, rax
	test	rax, rax
	jne	SHORT $LN16@Reallocate
$LN15@Reallocate:
; Line 29
	call	QWORD PTR __imp_?_Xbad_alloc@std@@YAXXZ
	int	3
$LN16@Reallocate:
; File e:\software\develop\vs2012\vc\include\xmemory
; Line 473
	mov	rdx, QWORD PTR [rsi+8]
	mov	rcx, QWORD PTR [rsi]
	mov	r8, rdi
	mov	QWORD PTR [rsp+64], r14
	call	??$_Uninit_move@PEAU_LANG_TAG_INFO@@PEAU1@V?$allocator@U_LANG_TAG_INFO@@@std@@U1@@std@@YAPEAU_LANG_TAG_INFO@@PEAU1@00AEAU?$_Wrap_alloc@V?$allocator@U_LANG_TAG_INFO@@@std@@@0@0U_Nonscalar_ptr_iterator_tag@0@@Z ; std::_Uninit_move<_LANG_TAG_INFO * __ptr64,_LANG_TAG_INFO * __ptr64,std::allocator<_LANG_TAG_INFO>,_LANG_TAG_INFO>
; File e:\software\develop\vs2012\vc\include\vector
; Line 1087
	mov	rcx, QWORD PTR [rsi]
	mov	rdx, QWORD PTR [rsi+8]
	mov	rax, 7378697629483820647		; 6666666666666667H
	sub	rdx, rcx
	imul	rdx
	mov	r14, rdx
	sar	r14, 2
	mov	rax, r14
	shr	rax, 63					; 0000003fH
	add	r14, rax
; Line 1511
	test	rcx, rcx
	je	SHORT $LN44@Reallocate
; File e:\software\develop\vs2012\vc\include\xmemory0
; Line 586
	call	QWORD PTR __imp_??3@YAXPEAX@Z
$LN44@Reallocate:
; File e:\software\develop\vs2012\vc\include\vector
; Line 1519
	lea	rax, QWORD PTR [rbx+rbx*4]
; Line 1522
	mov	rbx, QWORD PTR [rsp+72]
	mov	QWORD PTR [rsi], rdi
	lea	rcx, QWORD PTR [rdi+rax*2]
	lea	rax, QWORD PTR [r14+r14*4]
	mov	r14, QWORD PTR [rsp+64]
	mov	QWORD PTR [rsi+16], rcx
	lea	rcx, QWORD PTR [rdi+rax*2]
	mov	QWORD PTR [rsi+8], rcx
	mov	rsi, QWORD PTR [rsp+80]
	add	rsp, 48					; 00000030H
	pop	rdi
	ret	0
$LN49@Reallocate:
?_Reallocate@?$vector@U_LANG_TAG_INFO@@V?$allocator@U_LANG_TAG_INFO@@@std@@@std@@IEAAX_K@Z ENDP ; std::vector<_LANG_TAG_INFO,std::allocator<_LANG_TAG_INFO> >::_Reallocate
_TEXT	ENDS
; Function compile flags: /Ogtpy
;	COMDAT ?_Xlen@?$vector@U_LANG_TAG_INFO@@V?$allocator@U_LANG_TAG_INFO@@@std@@@std@@IEBAXXZ
_TEXT	SEGMENT
this$dead$ = 48
?_Xlen@?$vector@U_LANG_TAG_INFO@@V?$allocator@U_LANG_TAG_INFO@@@std@@@std@@IEBAXXZ PROC ; std::vector<_LANG_TAG_INFO,std::allocator<_LANG_TAG_INFO> >::_Xlen, COMDAT
; File e:\software\develop\vs2012\vc\include\vector
; Line 1666
$LN4:
	sub	rsp, 40					; 00000028H
; Line 1667
	lea	rcx, OFFSET FLAT:??_C@_0BD@OLBABOEK@vector?$DMT?$DO?5too?5long?$AA@
	call	QWORD PTR __imp_?_Xlength_error@std@@YAXPEBD@Z
	int	3
$LN3@Xlen:
?_Xlen@?$vector@U_LANG_TAG_INFO@@V?$allocator@U_LANG_TAG_INFO@@@std@@@std@@IEBAXXZ ENDP ; std::vector<_LANG_TAG_INFO,std::allocator<_LANG_TAG_INFO> >::_Xlen
_TEXT	ENDS
; Function compile flags: /Ogtpy
;	COMDAT ?_Unused_capacity@?$vector@U_CAPTION_DATA@@V?$allocator@U_CAPTION_DATA@@@std@@@std@@QEBA_KXZ
_TEXT	SEGMENT
this$ = 8
?_Unused_capacity@?$vector@U_CAPTION_DATA@@V?$allocator@U_CAPTION_DATA@@@std@@@std@@QEBA_KXZ PROC ; std::vector<_CAPTION_DATA,std::allocator<_CAPTION_DATA> >::_Unused_capacity, COMDAT
; File e:\software\develop\vs2012\vc\include\vector
; Line 972
	mov	rdx, QWORD PTR [rcx+16]
	mov	rax, 5270498306774157605		; 4924924924924925H
	sub	rdx, QWORD PTR [rcx+8]
	imul	rdx
	sar	rdx, 4
	mov	rax, rdx
	shr	rax, 63					; 0000003fH
	add	rax, rdx
; Line 973
	ret	0
?_Unused_capacity@?$vector@U_CAPTION_DATA@@V?$allocator@U_CAPTION_DATA@@@std@@@std@@QEBA_KXZ ENDP ; std::vector<_CAPTION_DATA,std::allocator<_CAPTION_DATA> >::_Unused_capacity
_TEXT	ENDS
; Function compile flags: /Ogtpy
;	COMDAT ?size@?$vector@U_CAPTION_DATA@@V?$allocator@U_CAPTION_DATA@@@std@@@std@@QEBA_KXZ
_TEXT	SEGMENT
this$ = 8
?size@?$vector@U_CAPTION_DATA@@V?$allocator@U_CAPTION_DATA@@@std@@@std@@QEBA_KXZ PROC ; std::vector<_CAPTION_DATA,std::allocator<_CAPTION_DATA> >::size, COMDAT
; File e:\software\develop\vs2012\vc\include\vector
; Line 1087
	mov	rdx, QWORD PTR [rcx+8]
	mov	rax, 5270498306774157605		; 4924924924924925H
	sub	rdx, QWORD PTR [rcx]
	imul	rdx
	sar	rdx, 4
	mov	rax, rdx
	shr	rax, 63					; 0000003fH
	add	rax, rdx
; Line 1088
	ret	0
?size@?$vector@U_CAPTION_DATA@@V?$allocator@U_CAPTION_DATA@@@std@@@std@@QEBA_KXZ ENDP ; std::vector<_CAPTION_DATA,std::allocator<_CAPTION_DATA> >::size
_TEXT	ENDS
; Function compile flags: /Ogtpy
;	COMDAT ?max_size@?$vector@U_CAPTION_DATA@@V?$allocator@U_CAPTION_DATA@@@std@@@std@@QEBA_KXZ
_TEXT	SEGMENT
this$dead$ = 8
?max_size@?$vector@U_CAPTION_DATA@@V?$allocator@U_CAPTION_DATA@@@std@@@std@@QEBA_KXZ PROC ; std::vector<_CAPTION_DATA,std::allocator<_CAPTION_DATA> >::max_size, COMDAT
; File e:\software\develop\vs2012\vc\include\vector
; Line 1092
	mov	rax, 329406144173384850			; 0492492492492492H
; Line 1093
	ret	0
?max_size@?$vector@U_CAPTION_DATA@@V?$allocator@U_CAPTION_DATA@@@std@@@std@@QEBA_KXZ ENDP ; std::vector<_CAPTION_DATA,std::allocator<_CAPTION_DATA> >::max_size
_TEXT	ENDS
; Function compile flags: /Ogtpy
;	COMDAT ?_Grow_to@?$vector@U_CAPTION_DATA@@V?$allocator@U_CAPTION_DATA@@@std@@@std@@IEBA_K_K@Z
_TEXT	SEGMENT
this$ = 8
_Count$ = 16
?_Grow_to@?$vector@U_CAPTION_DATA@@V?$allocator@U_CAPTION_DATA@@@std@@@std@@IEBA_K_K@Z PROC ; std::vector<_CAPTION_DATA,std::allocator<_CAPTION_DATA> >::_Grow_to, COMDAT
; File e:\software\develop\vs2012\vc\include\vector
; Line 967
	mov	r8, QWORD PTR [rcx+16]
; Line 1484
	mov	r9, rdx
; Line 967
	mov	rax, 5270498306774157605		; 4924924924924925H
	sub	r8, QWORD PTR [rcx]
	imul	r8
	sar	rdx, 4
	mov	rax, rdx
	shr	rax, 63					; 0000003fH
	add	rdx, rax
; Line 1488
	mov	rax, 329406144173384850			; 0492492492492492H
	mov	rcx, rdx
	shr	rcx, 1
	sub	rax, rcx
	cmp	rax, rdx
	jae	SHORT $LN4@Grow_to
	xor	edx, edx
; Line 1489
	cmp	rdx, r9
	cmovb	rdx, r9
; Line 1491
	mov	rax, rdx
; Line 1492
	ret	0
$LN4@Grow_to:
; Line 1488
	add	rdx, rcx
; Line 1489
	cmp	rdx, r9
	cmovb	rdx, r9
; Line 1491
	mov	rax, rdx
; Line 1492
	ret	0
?_Grow_to@?$vector@U_CAPTION_DATA@@V?$allocator@U_CAPTION_DATA@@@std@@@std@@IEBA_K_K@Z ENDP ; std::vector<_CAPTION_DATA,std::allocator<_CAPTION_DATA> >::_Grow_to
_TEXT	ENDS
; Function compile flags: /Ogtpy
;	COMDAT ?_Reallocate@?$vector@U_CAPTION_DATA@@V?$allocator@U_CAPTION_DATA@@@std@@@std@@IEAAX_K@Z
_TEXT	SEGMENT
$T1 = 48
this$ = 80
_Ptr$2 = 88
_Count$ = 88
?_Reallocate@?$vector@U_CAPTION_DATA@@V?$allocator@U_CAPTION_DATA@@@std@@@std@@IEAAX_K@Z PROC ; std::vector<_CAPTION_DATA,std::allocator<_CAPTION_DATA> >::_Reallocate, COMDAT
; File e:\software\develop\vs2012\vc\include\vector
; Line 1500
$LN49:
	push	r14
	sub	rsp, 64					; 00000040H
	mov	QWORD PTR $T1[rsp], -2
	mov	QWORD PTR [rsp+80], rbx
	mov	QWORD PTR [rsp+96], rsi
	mov	QWORD PTR [rsp+104], rdi
	mov	rdi, rdx
	mov	rsi, rcx
; File e:\software\develop\vs2012\vc\include\xmemory0
; Line 23
	xor	ebx, ebx
	mov	QWORD PTR _Ptr$2[rsp], rbx
; Line 25
	test	rdx, rdx
	je	SHORT $LN16@Reallocate
; Line 28
	mov	rax, 329406144173384850			; 0492492492492492H
	cmp	rdx, rax
	ja	SHORT $LN15@Reallocate
	mov	rcx, rdx
	imul	rcx, 56					; 00000038H
	call	QWORD PTR __imp_??2@YAPEAX_K@Z
	mov	rbx, rax
	mov	QWORD PTR _Ptr$2[rsp], rax
	test	rax, rax
	jne	SHORT $LN16@Reallocate
$LN15@Reallocate:
; Line 29
	call	QWORD PTR __imp_?_Xbad_alloc@std@@YAXXZ
	npad	1
$LN16@Reallocate:
; File e:\software\develop\vs2012\vc\include\xmemory
; Line 473
	mov	r8, rbx
	mov	rdx, QWORD PTR [rsi+8]
	mov	rcx, QWORD PTR [rsi]
	call	??$_Uninit_move@PEAU_CAPTION_DATA@@PEAU1@V?$allocator@U_CAPTION_DATA@@@std@@U1@@std@@YAPEAU_CAPTION_DATA@@PEAU1@00AEAU?$_Wrap_alloc@V?$allocator@U_CAPTION_DATA@@@std@@@0@0U_Nonscalar_ptr_iterator_tag@0@@Z ; std::_Uninit_move<_CAPTION_DATA * __ptr64,_CAPTION_DATA * __ptr64,std::allocator<_CAPTION_DATA>,_CAPTION_DATA>
	npad	1
; File e:\software\develop\vs2012\vc\include\vector
; Line 1087
	mov	r8, QWORD PTR [rsi+8]
	mov	r9, QWORD PTR [rsi]
	mov	rcx, r8
	sub	rcx, r9
	mov	rax, 5270498306774157605		; 4924924924924925H
	imul	rcx
	mov	r14, rdx
	sar	r14, 4
	mov	rax, r14
	shr	rax, 63					; 0000003fH
	add	r14, rax
; Line 1511
	test	r9, r9
	je	SHORT $LN44@Reallocate
; Line 1513
	mov	rdx, r9
	call	?_Destroy@?$vector@U_CAPTION_DATA@@V?$allocator@U_CAPTION_DATA@@@std@@@std@@IEAAXPEAU_CAPTION_DATA@@0@Z ; std::vector<_CAPTION_DATA,std::allocator<_CAPTION_DATA> >::_Destroy
; File e:\software\develop\vs2012\vc\include\xmemory0
; Line 586
	mov	rcx, QWORD PTR [rsi]
	call	QWORD PTR __imp_??3@YAXPEAX@Z
$LN44@Reallocate:
; File e:\software\develop\vs2012\vc\include\vector
; Line 1519
	imul	rdi, 56					; 00000038H
	add	rdi, rbx
	mov	QWORD PTR [rsi+16], rdi
; Line 1520
	imul	r14, 56					; 00000038H
	add	r14, rbx
	mov	QWORD PTR [rsi+8], r14
; Line 1521
	mov	QWORD PTR [rsi], rbx
; Line 1522
	mov	rbx, QWORD PTR [rsp+80]
	mov	rsi, QWORD PTR [rsp+96]
	mov	rdi, QWORD PTR [rsp+104]
	add	rsp, 64					; 00000040H
	pop	r14
	ret	0
$LN48@Reallocate:
?_Reallocate@?$vector@U_CAPTION_DATA@@V?$allocator@U_CAPTION_DATA@@@std@@@std@@IEAAX_K@Z ENDP ; std::vector<_CAPTION_DATA,std::allocator<_CAPTION_DATA> >::_Reallocate
_TEXT	ENDS
; Function compile flags: /Ogtpy
;	COMDAT text$x
text$x	SEGMENT
$T1 = 48
this$ = 80
_Ptr$2 = 88
_Count$ = 88
?catch$0@?0??_Reallocate@?$vector@U_CAPTION_DATA@@V?$allocator@U_CAPTION_DATA@@@std@@@std@@IEAAX_K@Z@4HA PROC ; `std::vector<_CAPTION_DATA,std::allocator<_CAPTION_DATA> >::_Reallocate'::`1'::catch$0
; Line 1505
	mov	QWORD PTR [rsp+16], rdx
	push	rbp
	sub	rsp, 48					; 00000030H
	mov	rbp, rdx
__catch$?_Reallocate@?$vector@U_CAPTION_DATA@@V?$allocator@U_CAPTION_DATA@@@std@@@std@@IEAAX_K@Z$0:
; File e:\software\develop\vs2012\vc\include\xmemory0
; Line 586
	mov	rcx, QWORD PTR _Ptr$2[rbp]
	call	QWORD PTR __imp_??3@YAXPEAX@Z
; File e:\software\develop\vs2012\vc\include\vector
; Line 1507
	xor	edx, edx
	xor	ecx, ecx
	call	_CxxThrowException
	npad	1
?catch$0@?0??_Reallocate@?$vector@U_CAPTION_DATA@@V?$allocator@U_CAPTION_DATA@@@std@@@std@@IEAAX_K@Z@4HA ENDP ; `std::vector<_CAPTION_DATA,std::allocator<_CAPTION_DATA> >::_Reallocate'::`1'::catch$0
text$x	ENDS
; Function compile flags: /Ogtpy
;	COMDAT ?_Xlen@?$vector@U_CAPTION_DATA@@V?$allocator@U_CAPTION_DATA@@@std@@@std@@IEBAXXZ
_TEXT	SEGMENT
this$dead$ = 48
?_Xlen@?$vector@U_CAPTION_DATA@@V?$allocator@U_CAPTION_DATA@@@std@@@std@@IEBAXXZ PROC ; std::vector<_CAPTION_DATA,std::allocator<_CAPTION_DATA> >::_Xlen, COMDAT
; File e:\software\develop\vs2012\vc\include\vector
; Line 1666
$LN4:
	sub	rsp, 40					; 00000028H
; Line 1667
	lea	rcx, OFFSET FLAT:??_C@_0BD@OLBABOEK@vector?$DMT?$DO?5too?5long?$AA@
	call	QWORD PTR __imp_?_Xlength_error@std@@YAXPEBD@Z
	int	3
$LN3@Xlen:
?_Xlen@?$vector@U_CAPTION_DATA@@V?$allocator@U_CAPTION_DATA@@@std@@@std@@IEBAXXZ ENDP ; std::vector<_CAPTION_DATA,std::allocator<_CAPTION_DATA> >::_Xlen
_TEXT	ENDS
; Function compile flags: /Ogtpy
;	COMDAT ?allocate@?$allocator@U_CAPTION_CHAR_DATA@@@std@@QEAAPEAU_CAPTION_CHAR_DATA@@_K@Z
_TEXT	SEGMENT
this$dead$ = 48
_Count$ = 56
?allocate@?$allocator@U_CAPTION_CHAR_DATA@@@std@@QEAAPEAU_CAPTION_CHAR_DATA@@_K@Z PROC ; std::allocator<_CAPTION_CHAR_DATA>::allocate, COMDAT
; File e:\software\develop\vs2012\vc\include\xmemory0
; Line 590
$LN12:
	sub	rsp, 40					; 00000028H
; Line 23
	xor	eax, eax
; Line 25
	test	rdx, rdx
	je	SHORT $LN4@allocate
; Line 28
	mov	rax, 230584300921369395			; 0333333333333333H
	cmp	rdx, rax
	ja	SHORT $LN3@allocate
	lea	rcx, QWORD PTR [rdx+rdx*4]
	shl	rcx, 4
	call	QWORD PTR __imp_??2@YAPEAX_K@Z
	test	rax, rax
	jne	SHORT $LN4@allocate
$LN3@allocate:
; Line 29
	call	QWORD PTR __imp_?_Xbad_alloc@std@@YAXXZ
	int	3
$LN4@allocate:
; Line 592
	add	rsp, 40					; 00000028H
	ret	0
$LN11@allocate:
?allocate@?$allocator@U_CAPTION_CHAR_DATA@@@std@@QEAAPEAU_CAPTION_CHAR_DATA@@_K@Z ENDP ; std::allocator<_CAPTION_CHAR_DATA>::allocate
_TEXT	ENDS
; Function compile flags: /Ogtpy
;	COMDAT ?max_size@?$_Wrap_alloc@V?$allocator@U_CAPTION_CHAR_DATA@@@std@@@std@@QEBA_KXZ
_TEXT	SEGMENT
this$dead$ = 8
?max_size@?$_Wrap_alloc@V?$allocator@U_CAPTION_CHAR_DATA@@@std@@@std@@QEBA_KXZ PROC ; std::_Wrap_alloc<std::allocator<_CAPTION_CHAR_DATA> >::max_size, COMDAT
; File e:\software\develop\vs2012\vc\include\xmemory0
; Line 914
	mov	rax, 230584300921369395			; 0333333333333333H
; Line 915
	ret	0
?max_size@?$_Wrap_alloc@V?$allocator@U_CAPTION_CHAR_DATA@@@std@@@std@@QEBA_KXZ ENDP ; std::_Wrap_alloc<std::allocator<_CAPTION_CHAR_DATA> >::max_size
_TEXT	ENDS
; Function compile flags: /Ogtpy
;	COMDAT ?capacity@?$vector@U_LANG_TAG_INFO@@V?$allocator@U_LANG_TAG_INFO@@@std@@@std@@QEBA_KXZ
_TEXT	SEGMENT
this$ = 8
?capacity@?$vector@U_LANG_TAG_INFO@@V?$allocator@U_LANG_TAG_INFO@@@std@@@std@@QEBA_KXZ PROC ; std::vector<_LANG_TAG_INFO,std::allocator<_LANG_TAG_INFO> >::capacity, COMDAT
; File e:\software\develop\vs2012\vc\include\vector
; Line 967
	mov	rdx, QWORD PTR [rcx+16]
	mov	rax, 7378697629483820647		; 6666666666666667H
	sub	rdx, QWORD PTR [rcx]
	imul	rdx
	sar	rdx, 2
	mov	rax, rdx
	shr	rax, 63					; 0000003fH
	add	rax, rdx
; Line 968
	ret	0
?capacity@?$vector@U_LANG_TAG_INFO@@V?$allocator@U_LANG_TAG_INFO@@@std@@@std@@QEBA_KXZ ENDP ; std::vector<_LANG_TAG_INFO,std::allocator<_LANG_TAG_INFO> >::capacity
_TEXT	ENDS
; Function compile flags: /Ogtpy
;	COMDAT ?allocate@?$_Wrap_alloc@V?$allocator@U_LANG_TAG_INFO@@@std@@@std@@QEAAPEAU_LANG_TAG_INFO@@_K@Z
_TEXT	SEGMENT
this$dead$ = 48
_Count$ = 56
?allocate@?$_Wrap_alloc@V?$allocator@U_LANG_TAG_INFO@@@std@@@std@@QEAAPEAU_LANG_TAG_INFO@@_K@Z PROC ; std::_Wrap_alloc<std::allocator<_LANG_TAG_INFO> >::allocate, COMDAT
; File e:\software\develop\vs2012\vc\include\xmemory0
; Line 875
$LN15:
	sub	rsp, 40					; 00000028H
; Line 23
	xor	eax, eax
; Line 25
	test	rdx, rdx
	je	SHORT $LN6@allocate
; Line 28
	mov	rax, 1844674407370955161		; 1999999999999999H
	cmp	rdx, rax
	ja	SHORT $LN5@allocate
	lea	rcx, QWORD PTR [rdx+rdx*4]
	add	rcx, rcx
	call	QWORD PTR __imp_??2@YAPEAX_K@Z
	test	rax, rax
	jne	SHORT $LN6@allocate
$LN5@allocate:
; Line 29
	call	QWORD PTR __imp_?_Xbad_alloc@std@@YAXXZ
	int	3
$LN6@allocate:
; Line 877
	add	rsp, 40					; 00000028H
	ret	0
$LN14@allocate:
?allocate@?$_Wrap_alloc@V?$allocator@U_LANG_TAG_INFO@@@std@@@std@@QEAAPEAU_LANG_TAG_INFO@@_K@Z ENDP ; std::_Wrap_alloc<std::allocator<_LANG_TAG_INFO> >::allocate
_TEXT	ENDS
; Function compile flags: /Ogtpy
;	COMDAT ?max_size@?$_Wrap_alloc@V?$allocator@U_LANG_TAG_INFO@@@std@@@std@@QEBA_KXZ
_TEXT	SEGMENT
this$dead$ = 8
?max_size@?$_Wrap_alloc@V?$allocator@U_LANG_TAG_INFO@@@std@@@std@@QEBA_KXZ PROC ; std::_Wrap_alloc<std::allocator<_LANG_TAG_INFO> >::max_size, COMDAT
; File e:\software\develop\vs2012\vc\include\xmemory0
; Line 914
	mov	rax, 1844674407370955161		; 1999999999999999H
; Line 915
	ret	0
?max_size@?$_Wrap_alloc@V?$allocator@U_LANG_TAG_INFO@@@std@@@std@@QEBA_KXZ ENDP ; std::_Wrap_alloc<std::allocator<_LANG_TAG_INFO> >::max_size
_TEXT	ENDS
; Function compile flags: /Ogtpy
;	COMDAT ?capacity@?$vector@U_CAPTION_DATA@@V?$allocator@U_CAPTION_DATA@@@std@@@std@@QEBA_KXZ
_TEXT	SEGMENT
this$ = 8
?capacity@?$vector@U_CAPTION_DATA@@V?$allocator@U_CAPTION_DATA@@@std@@@std@@QEBA_KXZ PROC ; std::vector<_CAPTION_DATA,std::allocator<_CAPTION_DATA> >::capacity, COMDAT
; File e:\software\develop\vs2012\vc\include\vector
; Line 967
	mov	rdx, QWORD PTR [rcx+16]
	mov	rax, 5270498306774157605		; 4924924924924925H
	sub	rdx, QWORD PTR [rcx]
	imul	rdx
	sar	rdx, 4
	mov	rax, rdx
	shr	rax, 63					; 0000003fH
	add	rax, rdx
; Line 968
	ret	0
?capacity@?$vector@U_CAPTION_DATA@@V?$allocator@U_CAPTION_DATA@@@std@@@std@@QEBA_KXZ ENDP ; std::vector<_CAPTION_DATA,std::allocator<_CAPTION_DATA> >::capacity
_TEXT	ENDS
; Function compile flags: /Ogtpy
;	COMDAT ?allocate@?$_Wrap_alloc@V?$allocator@U_CAPTION_DATA@@@std@@@std@@QEAAPEAU_CAPTION_DATA@@_K@Z
_TEXT	SEGMENT
this$dead$ = 48
_Count$ = 56
?allocate@?$_Wrap_alloc@V?$allocator@U_CAPTION_DATA@@@std@@@std@@QEAAPEAU_CAPTION_DATA@@_K@Z PROC ; std::_Wrap_alloc<std::allocator<_CAPTION_DATA> >::allocate, COMDAT
; File e:\software\develop\vs2012\vc\include\xmemory0
; Line 875
$LN15:
	sub	rsp, 40					; 00000028H
; Line 23
	xor	eax, eax
; Line 25
	test	rdx, rdx
	je	SHORT $LN6@allocate
; Line 28
	mov	rax, 329406144173384850			; 0492492492492492H
	cmp	rdx, rax
	ja	SHORT $LN5@allocate
	imul	rdx, 56					; 00000038H
	mov	rcx, rdx
	call	QWORD PTR __imp_??2@YAPEAX_K@Z
	test	rax, rax
	jne	SHORT $LN6@allocate
$LN5@allocate:
; Line 29
	call	QWORD PTR __imp_?_Xbad_alloc@std@@YAXXZ
	int	3
$LN6@allocate:
; Line 877
	add	rsp, 40					; 00000028H
	ret	0
$LN14@allocate:
?allocate@?$_Wrap_alloc@V?$allocator@U_CAPTION_DATA@@@std@@@std@@QEAAPEAU_CAPTION_DATA@@_K@Z ENDP ; std::_Wrap_alloc<std::allocator<_CAPTION_DATA> >::allocate
_TEXT	ENDS
; Function compile flags: /Ogtpy
;	COMDAT ?max_size@?$_Wrap_alloc@V?$allocator@U_CAPTION_DATA@@@std@@@std@@QEBA_KXZ
_TEXT	SEGMENT
this$dead$ = 8
