; Listing generated by Microsoft (R) Optimizing Compiler Version 17.00.50727.1 

include listing.inc

INCLUDELIB OLDNAMES

PUBLIC	?Free@CCaption2AssParameter@@IEAAXXZ		; CCaption2AssParameter::Free
PUBLIC	?Initialize@CCaption2AssParameter@@IEAAXXZ	; CCaption2AssParameter::Initialize
PUBLIC	?Allocate@CCaption2AssParameter@@QEAAH_K@Z	; CCaption2AssParameter::Allocate
PUBLIC	??1CCaption2AssParameter@@QEAA@XZ		; CCaption2AssParameter::~CCaption2AssParameter
PUBLIC	??0CCaption2AssParameter@@QEAA@XZ		; CCaption2AssParameter::CCaption2AssParameter
;	COMDAT pdata
pdata	SEGMENT
$pdata$?Free@CCaption2AssParameter@@IEAAXXZ DD imagerel $LN18
	DD	imagerel $LN18+263
	DD	imagerel $unwind$?Free@CCaption2AssParameter@@IEAAXXZ
pdata	ENDS
;	COMDAT pdata
pdata	SEGMENT
$pdata$?Initialize@CCaption2AssParameter@@IEAAXXZ DD imagerel $LN5
	DD	imagerel $LN5+104
	DD	imagerel $unwind$?Initialize@CCaption2AssParameter@@IEAAXXZ
pdata	ENDS
;	COMDAT pdata
pdata	SEGMENT
$pdata$?Allocate@CCaption2AssParameter@@QEAAH_K@Z DD imagerel $LN23
	DD	imagerel $LN23+357
	DD	imagerel $unwind$?Allocate@CCaption2AssParameter@@QEAAH_K@Z
pdata	ENDS
;	COMDAT pdata
pdata	SEGMENT
$pdata$??0CCaption2AssParameter@@QEAA@XZ DD imagerel $LN7
	DD	imagerel $LN7+119
	DD	imagerel $unwind$??0CCaption2AssParameter@@QEAA@XZ
;	COMDAT xdata
xdata	SEGMENT
$unwind$??0CCaption2AssParameter@@QEAA@XZ DD 040a01H
	DD	06340aH
	DD	07006320aH
xdata	ENDS
;	COMDAT xdata
xdata	SEGMENT
$unwind$?Allocate@CCaption2AssParameter@@QEAAH_K@Z DD 0a1a01H
	DD	013741aH
	DD	012641aH
	DD	011541aH
	DD	010341aH
	DD	0e016d21aH
xdata	ENDS
;	COMDAT xdata
xdata	SEGMENT
$unwind$?Initialize@CCaption2AssParameter@@IEAAXXZ DD 020601H
	DD	030023206H
xdata	ENDS
;	COMDAT xdata
xdata	SEGMENT
$unwind$?Free@CCaption2AssParameter@@IEAAXXZ DD 091701H
	DD	0186417H
	DD	0175417H
	DD	0163417H
	DD	0140117H
	DD	07010H
; Function compile flags: /Ogtpy
;	COMDAT ??0CCaption2AssParameter@@QEAA@XZ
_TEXT	SEGMENT
this$ = 48
??0CCaption2AssParameter@@QEAA@XZ PROC			; CCaption2AssParameter::CCaption2AssParameter, COMDAT
; File e:\project\other\caption2ass-master\caption2ass_pcr\caption2assparameter.cpp
; Line 12
$LN7:
	mov	QWORD PTR [rsp+8], rbx
	push	rdi
	sub	rsp, 32					; 00000020H
; Line 34
	xor	eax, eax
; Line 12
	mov	edi, 260				; 00000104H
	mov	rbx, rcx
	mov	QWORD PTR [rcx], rdi
; Line 34
	mov	DWORD PTR [rcx+8], eax
	mov	WORD PTR [rcx+12], ax
; Line 35
	mov	QWORD PTR [rcx+16], rax
	mov	QWORD PTR [rcx+24], rax
	mov	QWORD PTR [rcx+32], rax
	mov	QWORD PTR [rcx+40], rax
	mov	QWORD PTR [rcx+48], rax
	mov	QWORD PTR [rcx+56], rax
	mov	QWORD PTR [rcx+64], rax
	mov	QWORD PTR [rcx+72], rax
	mov	QWORD PTR [rcx+80], rax
; Line 36
	lea	r8d, QWORD PTR [rdi-124]
	add	rcx, 88					; 00000058H
	xor	edx, edx
	call	memset
; Line 39
	mov	DWORD PTR [rbx+16], 2
; Line 40
	mov	BYTE PTR [rbx+28], 1
; Line 41
	mov	rax, QWORD PTR [rbx]
	cmp	rax, rdi
	cmovb	rax, rdi
	mov	QWORD PTR [rbx], rax
; Line 14
	mov	rax, rbx
	mov	rbx, QWORD PTR [rsp+48]
	add	rsp, 32					; 00000020H
	pop	rdi
	ret	0
??0CCaption2AssParameter@@QEAA@XZ ENDP			; CCaption2AssParameter::CCaption2AssParameter
_TEXT	ENDS
; Function compile flags: /Ogtpy
;	COMDAT ??1CCaption2AssParameter@@QEAA@XZ
_TEXT	SEGMENT
this$ = 8
??1CCaption2AssParameter@@QEAA@XZ PROC			; CCaption2AssParameter::~CCaption2AssParameter, COMDAT
; File e:\project\other\caption2ass-master\caption2ass_pcr\caption2assparameter.cpp
; Line 24
	jmp	?Free@CCaption2AssParameter@@IEAAXXZ	; CCaption2AssParameter::Free
??1CCaption2AssParameter@@QEAA@XZ ENDP			; CCaption2AssParameter::~CCaption2AssParameter
_TEXT	ENDS
; Function compile flags: /Ogtpy
;	COMDAT ?Allocate@CCaption2AssParameter@@QEAAH_K@Z
_TEXT	SEGMENT
utf8str_list$ = 32
string_list$ = 32
this$ = 128
string_length$ = 136
?Allocate@CCaption2AssParameter@@QEAAH_K@Z PROC		; CCaption2AssParameter::Allocate, COMDAT
; File e:\project\other\caption2ass-master\caption2ass_pcr\caption2assparameter.cpp
; Line 46
$LN23:
	mov	QWORD PTR [rsp+8], rbx
	mov	QWORD PTR [rsp+16], rbp
	mov	QWORD PTR [rsp+24], rsi
	mov	QWORD PTR [rsp+32], rdi
	push	r14
	sub	rsp, 112				; 00000070H
	mov	rbx, rcx
; Line 50
	cmp	QWORD PTR [rcx], rdx
	jae	SHORT $LN11@Allocate
; Line 51
	mov	QWORD PTR [rcx], rdx
$LN11@Allocate:
; Line 63
	xor	esi, esi
	lea	rax, QWORD PTR [rcx+56]
	lea	rdi, QWORD PTR [rcx+48]
	mov	QWORD PTR string_list$[rsp+8], rax
	lea	rax, QWORD PTR [rcx+64]
; Line 64
	or	r14, -1
	mov	QWORD PTR string_list$[rsp+16], rax
	lea	rax, QWORD PTR [rcx+72]
	mov	QWORD PTR string_list$[rsp], rdi
	mov	QWORD PTR string_list$[rsp+32], rsi
	mov	ebp, esi
	mov	QWORD PTR string_list$[rsp+24], rax
	test	rdi, rdi
	je	SHORT $LN8@Allocate
	npad	5
$LL10@Allocate:
; Line 65
	mov	eax, 2
	mul	QWORD PTR [rbx]
	cmovo	rax, r14
	mov	rcx, rax
	call	QWORD PTR __imp_??2@YAPEAX_K@Z
	mov	QWORD PTR [rdi], rax
; Line 66
	test	rax, rax
	je	$fail$24
; Line 68
	mov	r8, QWORD PTR [rbx]
	xor	edx, edx
	mov	rcx, rax
	add	r8, r8
	call	memset
	mov	rdi, QWORD PTR string_list$[rsp+rbp*8+8]
	inc	rbp
	test	rdi, rdi
	jne	SHORT $LL10@Allocate
$LN8@Allocate:
; Line 76
	lea	rax, QWORD PTR [rbx+120]
	lea	rdi, QWORD PTR [rbx+112]
; Line 86
	mov	QWORD PTR utf8str_list$[rsp+72], rsi
	mov	QWORD PTR utf8str_list$[rsp+8], rax
	lea	rax, QWORD PTR [rbx+128]
	mov	QWORD PTR utf8str_list$[rsp], rdi
	mov	QWORD PTR utf8str_list$[rsp+16], rax
	lea	rax, QWORD PTR [rbx+144]
	mov	QWORD PTR utf8str_list$[rsp+24], rax
	lea	rax, QWORD PTR [rbx+160]
	mov	QWORD PTR utf8str_list$[rsp+32], rax
	lea	rax, QWORD PTR [rbx+168]
	mov	QWORD PTR utf8str_list$[rsp+40], rax
	lea	rax, QWORD PTR [rbx+184]
	mov	QWORD PTR utf8str_list$[rsp+48], rax
	lea	rax, QWORD PTR [rbx+192]
	mov	QWORD PTR utf8str_list$[rsp+56], rax
	lea	rax, QWORD PTR [rbx+208]
	mov	QWORD PTR utf8str_list$[rsp+64], rax
; Line 87
	test	rdi, rdi
	je	SHORT $LN3@Allocate
	npad	2
$LL5@Allocate:
; Line 88
	mov	rcx, QWORD PTR [rbx]
	call	QWORD PTR __imp_??2@YAPEAX_K@Z
	mov	QWORD PTR [rdi], rax
; Line 89
	test	rax, rax
	je	SHORT $fail$24
; Line 91
	mov	r8, QWORD PTR [rbx]
	xor	edx, edx
	mov	rcx, rax
	call	memset
	mov	rdi, QWORD PTR utf8str_list$[rsp+rsi*8+8]
	inc	rsi
	test	rdi, rdi
	jne	SHORT $LL5@Allocate
$LN3@Allocate:
; Line 94
	xor	eax, eax
$LN12@Allocate:
; Line 99
	lea	r11, QWORD PTR [rsp+112]
	mov	rbx, QWORD PTR [r11+16]
	mov	rbp, QWORD PTR [r11+24]
	mov	rsi, QWORD PTR [r11+32]
	mov	rdi, QWORD PTR [r11+40]
	mov	rsp, r11
	pop	r14
	ret	0
$fail$24:
; Line 97
	mov	rcx, rbx
	call	?Free@CCaption2AssParameter@@IEAAXXZ	; CCaption2AssParameter::Free
; Line 98
	mov	eax, r14d
	jmp	SHORT $LN12@Allocate
?Allocate@CCaption2AssParameter@@QEAAH_K@Z ENDP		; CCaption2AssParameter::Allocate
_TEXT	ENDS
; Function compile flags: /Ogtpy
;	COMDAT ?Initialize@CCaption2AssParameter@@IEAAXXZ
_TEXT	SEGMENT
this$ = 48
?Initialize@CCaption2AssParameter@@IEAAXXZ PROC		; CCaption2AssParameter::Initialize, COMDAT
; File e:\project\other\caption2ass-master\caption2ass_pcr\caption2assparameter.cpp
; Line 28
$LN5:
	push	rbx
	sub	rsp, 32					; 00000020H
; Line 34
	xor	eax, eax
	mov	rbx, rcx
; Line 36
	xor	edx, edx
	mov	DWORD PTR [rcx+8], eax
	mov	WORD PTR [rcx+12], ax
	mov	QWORD PTR [rcx+16], rax
	mov	QWORD PTR [rcx+24], rax
	mov	QWORD PTR [rcx+32], rax
	mov	QWORD PTR [rcx+40], rax
	mov	QWORD PTR [rcx+48], rax
	mov	QWORD PTR [rcx+56], rax
	mov	QWORD PTR [rcx+64], rax
	mov	QWORD PTR [rcx+72], rax
	mov	QWORD PTR [rcx+80], rax
	add	rcx, 88					; 00000058H
	mov	r8d, 136				; 00000088H
	call	memset
; Line 39
	mov	DWORD PTR [rbx+16], 2
; Line 40
	mov	BYTE PTR [rbx+28], 1
; Line 41
	cmp	QWORD PTR [rbx], 260			; 00000104H
	jae	SHORT $LN1@Initialize
; Line 42
	mov	QWORD PTR [rbx], 260			; 00000104H
$LN1@Initialize:
; Line 43
	add	rsp, 32					; 00000020H
	pop	rbx
	ret	0
?Initialize@CCaption2AssParameter@@IEAAXXZ ENDP		; CCaption2AssParameter::Initialize
_TEXT	ENDS
; Function compile flags: /Ogtpy
;	COMDAT ?Free@CCaption2AssParameter@@IEAAXXZ
_TEXT	SEGMENT
string_list$ = 32
utf8str_list$ = 80
this$ = 176
?Free@CCaption2AssParameter@@IEAAXXZ PROC		; CCaption2AssParameter::Free, COMDAT
; File e:\project\other\caption2ass-master\caption2ass_pcr\caption2assparameter.cpp
; Line 102
$LN18:
	mov	r11, rsp
	mov	QWORD PTR [r11+8], rbx
	mov	QWORD PTR [r11+16], rbp
	mov	QWORD PTR [r11+24], rsi
	push	rdi
	sub	rsp, 160				; 000000a0H
; Line 116
	xor	ebp, ebp
	lea	rbx, QWORD PTR [rcx+48]
	lea	rax, QWORD PTR [rcx+56]
	mov	QWORD PTR string_list$[rsp], rbx
	mov	QWORD PTR [r11-128], rax
	lea	rax, QWORD PTR [rcx+64]
	mov	QWORD PTR [r11-120], rax
	lea	rax, QWORD PTR [rcx+72]
; Line 121
	lea	rdi, QWORD PTR [rcx+112]
	mov	QWORD PTR [r11-112], rax
; Line 122
	lea	rax, QWORD PTR [rcx+120]
	mov	QWORD PTR [r11-104], rbp
	mov	QWORD PTR [r11-80], rax
; Line 123
	lea	rax, QWORD PTR [rcx+128]
	mov	QWORD PTR [r11-88], rdi
	mov	QWORD PTR [r11-72], rax
; Line 124
	lea	rax, QWORD PTR [rcx+144]
; Line 132
	mov	QWORD PTR [r11-16], rbp
	mov	QWORD PTR [r11-64], rax
	lea	rax, QWORD PTR [rcx+160]
; Line 133
	mov	esi, ebp
	mov	QWORD PTR [r11-56], rax
	lea	rax, QWORD PTR [rcx+168]
	mov	QWORD PTR [r11-48], rax
	lea	rax, QWORD PTR [rcx+184]
	mov	QWORD PTR [r11-40], rax
	lea	rax, QWORD PTR [rcx+192]
	mov	QWORD PTR [r11-32], rax
	lea	rax, QWORD PTR [rcx+208]
	mov	QWORD PTR [r11-24], rax
	test	rbx, rbx
	je	SHORT $LN6@Free
$LL8@Free:
; Line 134
	mov	rcx, QWORD PTR [rbx]
	test	rcx, rcx
	je	SHORT $LN7@Free
	call	QWORD PTR __imp_??3@YAXPEAX@Z
	mov	QWORD PTR [rbx], rbp
$LN7@Free:
; Line 133
	mov	rbx, QWORD PTR string_list$[rsp+rsi*8+8]
	inc	rsi
	test	rbx, rbx
	jne	SHORT $LL8@Free
$LN6@Free:
; Line 135
	mov	rbx, rbp
	test	rdi, rdi
	je	SHORT $LN2@Free
	npad	4
$LL4@Free:
; Line 136
	mov	rcx, QWORD PTR [rdi]
	test	rcx, rcx
	je	SHORT $LN3@Free
	call	QWORD PTR __imp_??3@YAXPEAX@Z
	mov	QWORD PTR [rdi], rbp
$LN3@Free:
; Line 135
	mov	rdi, QWORD PTR utf8str_list$[rsp+rbx*8+8]
	inc	rbx
	test	rdi, rdi
	jne	SHORT $LL4@Free
$LN2@Free:
; Line 137
	lea	r11, QWORD PTR [rsp+160]
	mov	rbx, QWORD PTR [r11+16]
	mov	rbp, QWORD PTR [r11+24]
	mov	rsi, QWORD PTR [r11+32]
	mov	rsp, r11
	pop	rdi
	ret	0
?Free@CCaption2AssParameter@@IEAAXXZ ENDP		; CCaption2AssParameter::Free
_TEXT	ENDS
END
