; Listing generated by Microsoft (R) Optimizing Compiler Version 17.00.50727.1 

include listing.inc

INCLUDELIB OLDNAMES

PUBLIC	??_C@_1HO@HGLHLAKN@?$AAU?$AAs?$AAa?$AAg?$AAe?$AA?3?$AA?5?$AA?5?$AAC?$AAa?$AAp?$AAt?$AAi?$AAo?$AAn?$AA2?$AAA?$AAs?$AAs?$AAC?$AA?4?$AAe?$AAx?$AAe?$AA?5?$AA?$FL?$AAO?$AAp?$AAt?$AAi?$AAo?$AAn@ ; `string'
PUBLIC	??_C@_1BC@LKOFLHLK@?$AAO?$AAp?$AAt?$AAi?$AAo?$AAn?$AAs?$AA?3?$AA?$AA@ ; `string'
PUBLIC	??_C@_1JE@GIDOJHGO@?$AA?5?$AA?5?$AA?5?$AA?5?$AA?9?$AAf?$AAo?$AAr?$AAm?$AAa?$AAt?$AA?5?$AA?$DM?$AAs?$AAt?$AAr?$AAi?$AAn?$AAg?$AA?$DO?$AA?5?$AA?5?$AA?5?$AA?5?$AA?5?$AA?5?$AA?5?$AA?5?$AA?5?$AA?5?$AA?5?$AA?5@ ; `string'
PUBLIC	??_C@_1GC@CCLPIBFA@?$AA?5?$AA?5?$AA?5?$AA?5?$AA?5?$AA?5?$AA?5?$AA?5?$AA?5?$AA?5?$AA?5?$AA?5?$AA?5?$AA?5?$AA?5?$AA?5?$AA?5?$AA?5?$AA?5?$AA?5?$AA?5?$AA?5?$AA?5?$AA?5?$AA?5?$AA?5?$AA?5?$AA?5?$AA?5?$AA?5?$AA?5?$AA?5@ ; `string'
PUBLIC	??_C@_1HO@HFKAGDHE@?$AA?5?$AA?5?$AA?5?$AA?5?$AA?9?$AAd?$AAe?$AAl?$AAa?$AAy?$AA?5?$AA?$DM?$AAi?$AAn?$AAt?$AAe?$AAg?$AAe?$AAr?$AA?$DO?$AA?5?$AA?5?$AA?5?$AA?5?$AA?5?$AA?5?$AA?5?$AA?5?$AA?5?$AA?5?$AA?5?$AA?5@ ; `string'
PUBLIC	??_C@_1GG@NOBDLJDN@?$AA?5?$AA?5?$AA?5?$AA?5?$AA?9?$AAP?$AAM?$AAT?$AA_?$AAP?$AAI?$AAD?$AA?5?$AA?$DM?$AAh?$AAe?$AAx?$AA?$DO?$AA?5?$AA?5?$AA?5?$AA?5?$AA?5?$AA?5?$AA?5?$AA?5?$AA?5?$AA?5?$AA?5?$AA?5?$AA?5?$AA?5@ ; `string'
PUBLIC	??_C@_1JK@GPLJKCCG@?$AA?5?$AA?5?$AA?5?$AA?5?$AA?9?$AAd?$AAe?$AAt?$AAe?$AAc?$AAt?$AA_?$AAl?$AAe?$AAn?$AAg?$AAt?$AAh?$AA?5?$AA?$DM?$AAi?$AAn?$AAt?$AAe?$AAg?$AAe?$AAr?$AA?$DO?$AA?5?$AA?5?$AA?5?$AA?5@ ; `string'
PUBLIC	??_C@_1IG@LGNBHEPC@?$AA?5?$AA?5?$AA?5?$AA?5?$AA?5?$AA?5?$AA?5?$AA?5?$AA?5?$AA?5?$AA?5?$AA?5?$AA?5?$AA?5?$AA?5?$AA?5?$AA?5?$AA?5?$AA?5?$AA?5?$AA?5?$AA?5?$AA?5?$AA?5?$AA?5?$AA?5?$AA?5?$AA?5?$AA?5?$AA?5?$AA?5?$AA?5@ ; `string'
PUBLIC	??_C@_1GC@DFNBPKPK@?$AA?5?$AA?5?$AA?5?$AA?5?$AA?5?$AA?5?$AA?5?$AA?5?$AA?5?$AA?5?$AA?5?$AA?5?$AA?5?$AA?5?$AA?5?$AA?5?$AA?5?$AA?5?$AA?5?$AA?5?$AA?5?$AA?5?$AA?5?$AA?5?$AA?5?$AA?5?$AA?5?$AA?5?$AA?5?$AA?5?$AA?5?$AA?5@ ; `string'
PUBLIC	??_C@_1FO@LIBDFPPA@?$AA?5?$AA?5?$AA?5?$AA?5?$AA?9?$AAl?$AAo?$AAg?$AA?5?$AA?5?$AA?5?$AA?5?$AA?5?$AA?5?$AA?5?$AA?5?$AA?5?$AA?5?$AA?5?$AA?5?$AA?5?$AA?5?$AA?5?$AA?5?$AA?5?$AA?5?$AA?5?$AA?5?$AA?5?$AA?5?$AA?5?$AA?5@ ; `string'
PUBLIC	??_C@_1JE@FADFIFOI@?$AA?5?$AA?5?$AA?5?$AA?5?$AA?9?$AAk?$AAe?$AAe?$AAp?$AAi?$AAn?$AAt?$AAe?$AAr?$AAv?$AAa?$AAl?$AA?5?$AA?5?$AA?5?$AA?5?$AA?5?$AA?5?$AA?5?$AA?5?$AA?5?$AA?5?$AA?5?$AA?5?$AA?5?$AA?5?$AA?5@ ; `string'
PUBLIC	??_C@_1IA@MBBLJHPI@?$AA?5?$AA?5?$AA?5?$AA?5?$AA?5?$AA?5?$AA?5?$AA?5?$AA?5?$AA?5?$AA?5?$AA?5?$AA?5?$AA?5?$AA?5?$AA?5?$AA?5?$AA?5?$AA?5?$AA?5?$AA?5?$AA?5?$AA?5?$AA?5?$AA?5?$AA?5?$AA?5?$AA?5?$AA?5?$AA?5?$AA?5?$AA?5@ ; `string'
PUBLIC	??_C@_1BA@NOCJHJND@?$AA?5?$AA?5?$AA?$FL?$AAs?$AAr?$AAt?$AA?$FN?$AA?$AA@ ; `string'
PUBLIC	??_C@_1HE@NEAEFCJF@?$AA?5?$AA?5?$AA?5?$AA?5?$AA?9?$AAs?$AAr?$AAt?$AAo?$AAr?$AAn?$AAa?$AAm?$AAe?$AAn?$AAt?$AA?5?$AA?5?$AA?5?$AA?5?$AA?5?$AA?5?$AA?5?$AA?5?$AA?5?$AA?5?$AA?5?$AA?5?$AA?5?$AA?5?$AA?5?$AA?5@ ; `string'
PUBLIC	??_C@_1BA@CMNNBICA@?$AA?5?$AA?5?$AA?$FL?$AAa?$AAs?$AAs?$AA?$FN?$AA?$AA@ ; `string'
PUBLIC	??_C@_1IE@PBODKPOA@?$AA?5?$AA?5?$AA?5?$AA?5?$AA?9?$AAa?$AAs?$AAs?$AAt?$AAy?$AAp?$AAe?$AA?5?$AA?$DM?$AAs?$AAt?$AAr?$AAi?$AAn?$AAg?$AA?$DO?$AA?5?$AA?5?$AA?5?$AA?5?$AA?5?$AA?5?$AA?5?$AA?5?$AA?5?$AA?5?$AA?5@ ; `string'
PUBLIC	??_C@_1JG@ICBDAKPP@?$AA?5?$AA?5?$AA?5?$AA?5?$AA?9?$AAh?$AAl?$AAc?$AA?5?$AA?$DM?$AAs?$AAt?$AAr?$AAi?$AAn?$AAg?$AA?$DO?$AA?5?$AA?5?$AA?5?$AA?5?$AA?5?$AA?5?$AA?5?$AA?5?$AA?5?$AA?5?$AA?5?$AA?5?$AA?5?$AA?5?$AA?5@ ; `string'
PUBLIC	??_C@_1GG@BKMOKGDG@?$AA?5?$AA?5?$AA?5?$AA?5?$AA?5?$AA?5?$AA?5?$AA?5?$AA?5?$AA?5?$AA?5?$AA?5?$AA?5?$AA?5?$AA?5?$AA?5?$AA?5?$AA?5?$AA?5?$AA?5?$AA?5?$AA?5?$AA?5?$AA?5?$AA?5?$AA?5?$AA?5?$AA?5?$AA?5?$AA?5?$AA?5?$AA?5@ ; `string'
PUBLIC	??_C@_1IM@OKJCIK@?$AA?5?$AA?5?$AA?5?$AA?5?$AA?9?$AAn?$AAo?$AAr?$AAu?$AAb?$AAi?$AA?5?$AA?5?$AA?5?$AA?5?$AA?5?$AA?5?$AA?5?$AA?5?$AA?5?$AA?5?$AA?5?$AA?5?$AA?5?$AA?5?$AA?5?$AA?5?$AA?5?$AA?5?$AA?5?$AA?5?$AA?5@ ; `string'
PUBLIC	??_C@_1JK@MOALFGGA@?$AA?5?$AA?5?$AA?5?$AA?5?$AA?9?$AAc?$AAe?$AAn?$AAt?$AAe?$AAr?$AA?5?$AA?5?$AA?5?$AA?5?$AA?5?$AA?5?$AA?5?$AA?5?$AA?5?$AA?5?$AA?5?$AA?5?$AA?5?$AA?5?$AA?5?$AA?5?$AA?5?$AA?5?$AA?5?$AA?5?$AA?5@ ; `string'
PUBLIC	??_C@_1BC@HLGLLIJK@?$AAE?$AAx?$AAa?$AAm?$AAp?$AAl?$AAe?$AA?3?$AA?$AA@ ; `string'
PUBLIC	??_C@_1FM@BPHHNLAA@?$AA?5?$AA?5?$AA?5?$AA?5?$AAC?$AAa?$AAp?$AAt?$AAi?$AAo?$AAn?$AA2?$AAA?$AAs?$AAs?$AAC?$AA?4?$AAe?$AAx?$AAe?$AA?5?$AA?9?$AAf?$AAo?$AAr?$AAm?$AAa?$AAt?$AA?5?$AAd?$AAu?$AAa@ ; `string'
PUBLIC	??_C@_1JG@GPODJDL@?$AA?5?$AA?5?$AA?5?$AA?5?$AAC?$AAa?$AAp?$AAt?$AAi?$AAo?$AAn?$AA2?$AAA?$AAs?$AAs?$AAC?$AA?4?$AAe?$AAx?$AAe?$AA?5?$AA?9?$AAf?$AAo?$AAr?$AAm?$AAa?$AAt?$AA?5?$AAa?$AAs?$AAs@ ; `string'
PUBLIC	??_C@_1JI@IBOJGCKJ@?$AA?5?$AA?5?$AA?5?$AA?5?$AAC?$AAa?$AAp?$AAt?$AAi?$AAo?$AAn?$AA2?$AAA?$AAs?$AAs?$AAC?$AA?4?$AAe?$AAx?$AAe?$AA?5?$AA?9?$AAd?$AAe?$AAl?$AAa?$AAy?$AA?5?$AA5?$AA0?$AA0?$AA?5@ ; `string'
PUBLIC	??_C@_17MJEANDKP@?$AA?$CF?$AAs?$AA?6?$AA?$AA@	; `string'
PUBLIC	??_C@_1BA@GHOECOCL@?$AAD?$AAe?$AAf?$AAa?$AAu?$AAl?$AAt?$AA?$AA@ ; `string'
PUBLIC	??_C@_1BC@BGHGNDBJ@?$AA?9?$AAP?$AAM?$AAT?$AA_?$AAP?$AAI?$AAD?$AA?$AA@ ; `string'
PUBLIC	??_C@_15LHNHECKK@?$AA?$CF?$AAx?$AA?$AA@		; `string'
PUBLIC	??_C@_1BA@LNEPLBJD@?$AA?9?$AAf?$AAo?$AAr?$AAm?$AAa?$AAt?$AA?$AA@ ; `string'
PUBLIC	??_C@_17IHIHPLCG@?$AAt?$AAa?$AAw?$AA?$AA@	; `string'
PUBLIC	??_C@_19JCJBDIDD@?$AAd?$AAu?$AAa?$AAl?$AA?$AA@	; `string'
PUBLIC	??_C@_15LDCBPADN@?$AA?9?$AAi?$AA?$AA@		; `string'
PUBLIC	??_C@_15JGEKKPOB@?$AA?9?$AAo?$AA?$AA@		; `string'
PUBLIC	??_C@_1O@BKJLJAOF@?$AA?9?$AAd?$AAe?$AAl?$AAa?$AAy?$AA?$AA@ ; `string'
PUBLIC	??_C@_15KNBIKKIN@?$AA?$CF?$AAd?$AA?$AA@		; `string'
PUBLIC	??_C@_1BC@CPJNDLEM@?$AA?9?$AAa?$AAs?$AAs?$AAt?$AAy?$AAp?$AAe?$AA?$AA@ ; `string'
PUBLIC	??_C@_19HOMBNICI@?$AA?9?$AAl?$AAo?$AAg?$AA?$AA@	; `string'
PUBLIC	??_C@_1BM@DGNNOKIL@?$AA?9?$AAk?$AAe?$AAe?$AAp?$AAi?$AAn?$AAt?$AAe?$AAr?$AAv?$AAa?$AAl?$AA?$AA@ ; `string'
PUBLIC	??_C@_1BK@CLDCMEIF@?$AA?9?$AAs?$AAr?$AAt?$AAo?$AAr?$AAn?$AAa?$AAm?$AAe?$AAn?$AAt?$AA?$AA@ ; `string'
PUBLIC	??_C@_19PDHNDDCL@?$AA?9?$AAh?$AAl?$AAc?$AA?$AA@	; `string'
PUBLIC	??_C@_1M@IPHFJKKP@?$AAk?$AAi?$AAg?$AAo?$AAu?$AA?$AA@ ; `string'
PUBLIC	??_C@_17FPDKLCKM@?$AAb?$AAo?$AAx?$AA?$AA@	; `string'
PUBLIC	??_C@_19BPEMOBLE@?$AAd?$AAr?$AAa?$AAw?$AA?$AA@	; `string'
PUBLIC	??_C@_1BA@FKPHINH@?$AA?9?$AAn?$AAo?$AAr?$AAu?$AAb?$AAi?$AA?$AA@ ; `string'
PUBLIC	??_C@_1BA@DDEHGBDD@?$AA?9?$AAc?$AAe?$AAn?$AAt?$AAe?$AAr?$AA?$AA@ ; `string'
PUBLIC	??_C@_1BO@JODOMFMA@?$AA?9?$AAd?$AAe?$AAt?$AAe?$AAc?$AAt?$AA_?$AAl?$AAe?$AAn?$AAg?$AAt?$AAh?$AA?$AA@ ; `string'
EXTRN	__imp_swscanf_s:PROC
EXTRN	__imp_GetStdHandle:PROC
EXTRN	__imp__vsnwprintf:PROC
EXTRN	__imp_WriteConsoleW:PROC
EXTRN	__imp_fwprintf_s:PROC
EXTRN	__imp___iob_func:PROC
;	COMDAT ?help@?1??usage@@YAXH@Z@4PAPEB_WA
_DATA	SEGMENT
?help@?1??usage@@YAXH@Z@4PAPEB_WA DQ FLAT:??_C@_1HO@HGLHLAKN@?$AAU?$AAs?$AAa?$AAg?$AAe?$AA?3?$AA?5?$AA?5?$AAC?$AAa?$AAp?$AAt?$AAi?$AAo?$AAn?$AA2?$AAA?$AAs?$AAs?$AAC?$AA?4?$AAe?$AAx?$AAe?$AA?5?$AA?$FL?$AAO?$AAp?$AAt?$AAi?$AAo?$AAn@ ; `usage'::`2'::help
	DQ	FLAT:??_C@_11LOCGONAA@?$AA?$AA@
	DQ	FLAT:??_C@_1BC@LKOFLHLK@?$AAO?$AAp?$AAt?$AAi?$AAo?$AAn?$AAs?$AA?3?$AA?$AA@
	DQ	FLAT:??_C@_1JE@GIDOJHGO@?$AA?5?$AA?5?$AA?5?$AA?5?$AA?9?$AAf?$AAo?$AAr?$AAm?$AAa?$AAt?$AA?5?$AA?$DM?$AAs?$AAt?$AAr?$AAi?$AAn?$AAg?$AA?$DO?$AA?5?$AA?5?$AA?5?$AA?5?$AA?5?$AA?5?$AA?5?$AA?5?$AA?5?$AA?5?$AA?5?$AA?5@
	DQ	FLAT:??_C@_1GC@CCLPIBFA@?$AA?5?$AA?5?$AA?5?$AA?5?$AA?5?$AA?5?$AA?5?$AA?5?$AA?5?$AA?5?$AA?5?$AA?5?$AA?5?$AA?5?$AA?5?$AA?5?$AA?5?$AA?5?$AA?5?$AA?5?$AA?5?$AA?5?$AA?5?$AA?5?$AA?5?$AA?5?$AA?5?$AA?5?$AA?5?$AA?5?$AA?5?$AA?5@
	DQ	FLAT:??_C@_1HO@HFKAGDHE@?$AA?5?$AA?5?$AA?5?$AA?5?$AA?9?$AAd?$AAe?$AAl?$AAa?$AAy?$AA?5?$AA?$DM?$AAi?$AAn?$AAt?$AAe?$AAg?$AAe?$AAr?$AA?$DO?$AA?5?$AA?5?$AA?5?$AA?5?$AA?5?$AA?5?$AA?5?$AA?5?$AA?5?$AA?5?$AA?5?$AA?5@
	DQ	FLAT:??_C@_1GG@NOBDLJDN@?$AA?5?$AA?5?$AA?5?$AA?5?$AA?9?$AAP?$AAM?$AAT?$AA_?$AAP?$AAI?$AAD?$AA?5?$AA?$DM?$AAh?$AAe?$AAx?$AA?$DO?$AA?5?$AA?5?$AA?5?$AA?5?$AA?5?$AA?5?$AA?5?$AA?5?$AA?5?$AA?5?$AA?5?$AA?5?$AA?5?$AA?5@
	DQ	FLAT:??_C@_1JK@GPLJKCCG@?$AA?5?$AA?5?$AA?5?$AA?5?$AA?9?$AAd?$AAe?$AAt?$AAe?$AAc?$AAt?$AA_?$AAl?$AAe?$AAn?$AAg?$AAt?$AAh?$AA?5?$AA?$DM?$AAi?$AAn?$AAt?$AAe?$AAg?$AAe?$AAr?$AA?$DO?$AA?5?$AA?5?$AA?5?$AA?5@
	DQ	FLAT:??_C@_1IG@LGNBHEPC@?$AA?5?$AA?5?$AA?5?$AA?5?$AA?5?$AA?5?$AA?5?$AA?5?$AA?5?$AA?5?$AA?5?$AA?5?$AA?5?$AA?5?$AA?5?$AA?5?$AA?5?$AA?5?$AA?5?$AA?5?$AA?5?$AA?5?$AA?5?$AA?5?$AA?5?$AA?5?$AA?5?$AA?5?$AA?5?$AA?5?$AA?5?$AA?5@
	DQ	FLAT:??_C@_1GC@DFNBPKPK@?$AA?5?$AA?5?$AA?5?$AA?5?$AA?5?$AA?5?$AA?5?$AA?5?$AA?5?$AA?5?$AA?5?$AA?5?$AA?5?$AA?5?$AA?5?$AA?5?$AA?5?$AA?5?$AA?5?$AA?5?$AA?5?$AA?5?$AA?5?$AA?5?$AA?5?$AA?5?$AA?5?$AA?5?$AA?5?$AA?5?$AA?5?$AA?5@
	DQ	FLAT:??_C@_1FO@LIBDFPPA@?$AA?5?$AA?5?$AA?5?$AA?5?$AA?9?$AAl?$AAo?$AAg?$AA?5?$AA?5?$AA?5?$AA?5?$AA?5?$AA?5?$AA?5?$AA?5?$AA?5?$AA?5?$AA?5?$AA?5?$AA?5?$AA?5?$AA?5?$AA?5?$AA?5?$AA?5?$AA?5?$AA?5?$AA?5?$AA?5?$AA?5?$AA?5@
	DQ	FLAT:??_C@_1JE@FADFIFOI@?$AA?5?$AA?5?$AA?5?$AA?5?$AA?9?$AAk?$AAe?$AAe?$AAp?$AAi?$AAn?$AAt?$AAe?$AAr?$AAv?$AAa?$AAl?$AA?5?$AA?5?$AA?5?$AA?5?$AA?5?$AA?5?$AA?5?$AA?5?$AA?5?$AA?5?$AA?5?$AA?5?$AA?5?$AA?5?$AA?5@
	DQ	FLAT:??_C@_1IA@MBBLJHPI@?$AA?5?$AA?5?$AA?5?$AA?5?$AA?5?$AA?5?$AA?5?$AA?5?$AA?5?$AA?5?$AA?5?$AA?5?$AA?5?$AA?5?$AA?5?$AA?5?$AA?5?$AA?5?$AA?5?$AA?5?$AA?5?$AA?5?$AA?5?$AA?5?$AA?5?$AA?5?$AA?5?$AA?5?$AA?5?$AA?5?$AA?5?$AA?5@
	DQ	FLAT:??_C@_1BA@NOCJHJND@?$AA?5?$AA?5?$AA?$FL?$AAs?$AAr?$AAt?$AA?$FN?$AA?$AA@
	DQ	FLAT:??_C@_1HE@NEAEFCJF@?$AA?5?$AA?5?$AA?5?$AA?5?$AA?9?$AAs?$AAr?$AAt?$AAo?$AAr?$AAn?$AAa?$AAm?$AAe?$AAn?$AAt?$AA?5?$AA?5?$AA?5?$AA?5?$AA?5?$AA?5?$AA?5?$AA?5?$AA?5?$AA?5?$AA?5?$AA?5?$AA?5?$AA?5?$AA?5?$AA?5@
	DQ	FLAT:??_C@_1BA@CMNNBICA@?$AA?5?$AA?5?$AA?$FL?$AAa?$AAs?$AAs?$AA?$FN?$AA?$AA@
	DQ	FLAT:??_C@_1IE@PBODKPOA@?$AA?5?$AA?5?$AA?5?$AA?5?$AA?9?$AAa?$AAs?$AAs?$AAt?$AAy?$AAp?$AAe?$AA?5?$AA?$DM?$AAs?$AAt?$AAr?$AAi?$AAn?$AAg?$AA?$DO?$AA?5?$AA?5?$AA?5?$AA?5?$AA?5?$AA?5?$AA?5?$AA?5?$AA?5?$AA?5?$AA?5@
	DQ	FLAT:??_C@_1JG@ICBDAKPP@?$AA?5?$AA?5?$AA?5?$AA?5?$AA?9?$AAh?$AAl?$AAc?$AA?5?$AA?$DM?$AAs?$AAt?$AAr?$AAi?$AAn?$AAg?$AA?$DO?$AA?5?$AA?5?$AA?5?$AA?5?$AA?5?$AA?5?$AA?5?$AA?5?$AA?5?$AA?5?$AA?5?$AA?5?$AA?5?$AA?5?$AA?5@
	DQ	FLAT:??_C@_1GG@BKMOKGDG@?$AA?5?$AA?5?$AA?5?$AA?5?$AA?5?$AA?5?$AA?5?$AA?5?$AA?5?$AA?5?$AA?5?$AA?5?$AA?5?$AA?5?$AA?5?$AA?5?$AA?5?$AA?5?$AA?5?$AA?5?$AA?5?$AA?5?$AA?5?$AA?5?$AA?5?$AA?5?$AA?5?$AA?5?$AA?5?$AA?5?$AA?5?$AA?5@
	DQ	FLAT:??_C@_1IM@OKJCIK@?$AA?5?$AA?5?$AA?5?$AA?5?$AA?9?$AAn?$AAo?$AAr?$AAu?$AAb?$AAi?$AA?5?$AA?5?$AA?5?$AA?5?$AA?5?$AA?5?$AA?5?$AA?5?$AA?5?$AA?5?$AA?5?$AA?5?$AA?5?$AA?5?$AA?5?$AA?5?$AA?5?$AA?5?$AA?5?$AA?5?$AA?5@
	DQ	FLAT:??_C@_1JK@MOALFGGA@?$AA?5?$AA?5?$AA?5?$AA?5?$AA?9?$AAc?$AAe?$AAn?$AAt?$AAe?$AAr?$AA?5?$AA?5?$AA?5?$AA?5?$AA?5?$AA?5?$AA?5?$AA?5?$AA?5?$AA?5?$AA?5?$AA?5?$AA?5?$AA?5?$AA?5?$AA?5?$AA?5?$AA?5?$AA?5?$AA?5?$AA?5@
	DQ	FLAT:??_C@_11LOCGONAA@?$AA?$AA@
	DQ	FLAT:??_C@_1BC@HLGLLIJK@?$AAE?$AAx?$AAa?$AAm?$AAp?$AAl?$AAe?$AA?3?$AA?$AA@
	DQ	FLAT:??_C@_1FM@BPHHNLAA@?$AA?5?$AA?5?$AA?5?$AA?5?$AAC?$AAa?$AAp?$AAt?$AAi?$AAo?$AAn?$AA2?$AAA?$AAs?$AAs?$AAC?$AA?4?$AAe?$AAx?$AAe?$AA?5?$AA?9?$AAf?$AAo?$AAr?$AAm?$AAa?$AAt?$AA?5?$AAd?$AAu?$AAa@
	DQ	FLAT:??_C@_1JG@GPODJDL@?$AA?5?$AA?5?$AA?5?$AA?5?$AAC?$AAa?$AAp?$AAt?$AAi?$AAo?$AAn?$AA2?$AAA?$AAs?$AAs?$AAC?$AA?4?$AAe?$AAx?$AAe?$AA?5?$AA?9?$AAf?$AAo?$AAr?$AAm?$AAa?$AAt?$AA?5?$AAa?$AAs?$AAs@
	DQ	FLAT:??_C@_1JI@IBOJGCKJ@?$AA?5?$AA?5?$AA?5?$AA?5?$AAC?$AAa?$AAp?$AAt?$AAi?$AAo?$AAn?$AA2?$AAA?$AAs?$AAs?$AAC?$AA?4?$AAe?$AAx?$AAe?$AA?5?$AA?9?$AAd?$AAe?$AAl?$AAa?$AAy?$AA?5?$AA5?$AA0?$AA0?$AA?5@
	DQ	0000000000000000H
_DATA	ENDS
;	COMDAT ??_C@_1BO@JODOMFMA@?$AA?9?$AAd?$AAe?$AAt?$AAe?$AAc?$AAt?$AA_?$AAl?$AAe?$AAn?$AAg?$AAt?$AAh?$AA?$AA@
CONST	SEGMENT
??_C@_1BO@JODOMFMA@?$AA?9?$AAd?$AAe?$AAt?$AAe?$AAc?$AAt?$AA_?$AAl?$AAe?$AAn?$AAg?$AAt?$AAh?$AA?$AA@ DB '-'
	DB	00H, 'd', 00H, 'e', 00H, 't', 00H, 'e', 00H, 'c', 00H, 't', 00H
	DB	'_', 00H, 'l', 00H, 'e', 00H, 'n', 00H, 'g', 00H, 't', 00H, 'h'
	DB	00H, 00H, 00H				; `string'
CONST	ENDS
;	COMDAT ??_C@_1BA@DDEHGBDD@?$AA?9?$AAc?$AAe?$AAn?$AAt?$AAe?$AAr?$AA?$AA@
CONST	SEGMENT
??_C@_1BA@DDEHGBDD@?$AA?9?$AAc?$AAe?$AAn?$AAt?$AAe?$AAr?$AA?$AA@ DB '-', 00H
	DB	'c', 00H, 'e', 00H, 'n', 00H, 't', 00H, 'e', 00H, 'r', 00H, 00H
	DB	00H						; `string'
CONST	ENDS
;	COMDAT ??_C@_1BA@FKPHINH@?$AA?9?$AAn?$AAo?$AAr?$AAu?$AAb?$AAi?$AA?$AA@
CONST	SEGMENT
??_C@_1BA@FKPHINH@?$AA?9?$AAn?$AAo?$AAr?$AAu?$AAb?$AAi?$AA?$AA@ DB '-', 00H
	DB	'n', 00H, 'o', 00H, 'r', 00H, 'u', 00H, 'b', 00H, 'i', 00H, 00H
	DB	00H						; `string'
CONST	ENDS
;	COMDAT ??_C@_19BPEMOBLE@?$AAd?$AAr?$AAa?$AAw?$AA?$AA@
CONST	SEGMENT
??_C@_19BPEMOBLE@?$AAd?$AAr?$AAa?$AAw?$AA?$AA@ DB 'd', 00H, 'r', 00H, 'a', 00H
	DB	'w', 00H, 00H, 00H				; `string'
CONST	ENDS
;	COMDAT ??_C@_17FPDKLCKM@?$AAb?$AAo?$AAx?$AA?$AA@
CONST	SEGMENT
??_C@_17FPDKLCKM@?$AAb?$AAo?$AAx?$AA?$AA@ DB 'b', 00H, 'o', 00H, 'x', 00H
	DB	00H, 00H					; `string'
CONST	ENDS
;	COMDAT ??_C@_1M@IPHFJKKP@?$AAk?$AAi?$AAg?$AAo?$AAu?$AA?$AA@
CONST	SEGMENT
??_C@_1M@IPHFJKKP@?$AAk?$AAi?$AAg?$AAo?$AAu?$AA?$AA@ DB 'k', 00H, 'i', 00H
	DB	'g', 00H, 'o', 00H, 'u', 00H, 00H, 00H	; `string'
CONST	ENDS
;	COMDAT ??_C@_19PDHNDDCL@?$AA?9?$AAh?$AAl?$AAc?$AA?$AA@
CONST	SEGMENT
??_C@_19PDHNDDCL@?$AA?9?$AAh?$AAl?$AAc?$AA?$AA@ DB '-', 00H, 'h', 00H, 'l'
	DB	00H, 'c', 00H, 00H, 00H			; `string'
CONST	ENDS
;	COMDAT ??_C@_1BK@CLDCMEIF@?$AA?9?$AAs?$AAr?$AAt?$AAo?$AAr?$AAn?$AAa?$AAm?$AAe?$AAn?$AAt?$AA?$AA@
CONST	SEGMENT
??_C@_1BK@CLDCMEIF@?$AA?9?$AAs?$AAr?$AAt?$AAo?$AAr?$AAn?$AAa?$AAm?$AAe?$AAn?$AAt?$AA?$AA@ DB '-'
	DB	00H, 's', 00H, 'r', 00H, 't', 00H, 'o', 00H, 'r', 00H, 'n', 00H
	DB	'a', 00H, 'm', 00H, 'e', 00H, 'n', 00H, 't', 00H, 00H, 00H ; `string'
CONST	ENDS
;	COMDAT ??_C@_1BM@DGNNOKIL@?$AA?9?$AAk?$AAe?$AAe?$AAp?$AAi?$AAn?$AAt?$AAe?$AAr?$AAv?$AAa?$AAl?$AA?$AA@
CONST	SEGMENT
??_C@_1BM@DGNNOKIL@?$AA?9?$AAk?$AAe?$AAe?$AAp?$AAi?$AAn?$AAt?$AAe?$AAr?$AAv?$AAa?$AAl?$AA?$AA@ DB '-'
	DB	00H, 'k', 00H, 'e', 00H, 'e', 00H, 'p', 00H, 'i', 00H, 'n', 00H
	DB	't', 00H, 'e', 00H, 'r', 00H, 'v', 00H, 'a', 00H, 'l', 00H, 00H
	DB	00H						; `string'
CONST	ENDS
;	COMDAT ??_C@_19HOMBNICI@?$AA?9?$AAl?$AAo?$AAg?$AA?$AA@
CONST	SEGMENT
??_C@_19HOMBNICI@?$AA?9?$AAl?$AAo?$AAg?$AA?$AA@ DB '-', 00H, 'l', 00H, 'o'
	DB	00H, 'g', 00H, 00H, 00H			; `string'
CONST	ENDS
;	COMDAT ??_C@_1BC@CPJNDLEM@?$AA?9?$AAa?$AAs?$AAs?$AAt?$AAy?$AAp?$AAe?$AA?$AA@
CONST	SEGMENT
??_C@_1BC@CPJNDLEM@?$AA?9?$AAa?$AAs?$AAs?$AAt?$AAy?$AAp?$AAe?$AA?$AA@ DB '-'
	DB	00H, 'a', 00H, 's', 00H, 's', 00H, 't', 00H, 'y', 00H, 'p', 00H
	DB	'e', 00H, 00H, 00H				; `string'
CONST	ENDS
;	COMDAT ??_C@_15KNBIKKIN@?$AA?$CF?$AAd?$AA?$AA@
CONST	SEGMENT
??_C@_15KNBIKKIN@?$AA?$CF?$AAd?$AA?$AA@ DB '%', 00H, 'd', 00H, 00H, 00H ; `string'
CONST	ENDS
;	COMDAT ??_C@_1O@BKJLJAOF@?$AA?9?$AAd?$AAe?$AAl?$AAa?$AAy?$AA?$AA@
CONST	SEGMENT
??_C@_1O@BKJLJAOF@?$AA?9?$AAd?$AAe?$AAl?$AAa?$AAy?$AA?$AA@ DB '-', 00H, 'd'
	DB	00H, 'e', 00H, 'l', 00H, 'a', 00H, 'y', 00H, 00H, 00H ; `string'
CONST	ENDS
;	COMDAT ??_C@_15JGEKKPOB@?$AA?9?$AAo?$AA?$AA@
CONST	SEGMENT
??_C@_15JGEKKPOB@?$AA?9?$AAo?$AA?$AA@ DB '-', 00H, 'o', 00H, 00H, 00H ; `string'
CONST	ENDS
;	COMDAT ??_C@_15LDCBPADN@?$AA?9?$AAi?$AA?$AA@
CONST	SEGMENT
??_C@_15LDCBPADN@?$AA?9?$AAi?$AA?$AA@ DB '-', 00H, 'i', 00H, 00H, 00H ; `string'
CONST	ENDS
;	COMDAT ??_C@_19JCJBDIDD@?$AAd?$AAu?$AAa?$AAl?$AA?$AA@
CONST	SEGMENT
??_C@_19JCJBDIDD@?$AAd?$AAu?$AAa?$AAl?$AA?$AA@ DB 'd', 00H, 'u', 00H, 'a', 00H
	DB	'l', 00H, 00H, 00H				; `string'
CONST	ENDS
;	COMDAT ??_C@_17IHIHPLCG@?$AAt?$AAa?$AAw?$AA?$AA@
CONST	SEGMENT
??_C@_17IHIHPLCG@?$AAt?$AAa?$AAw?$AA?$AA@ DB 't', 00H, 'a', 00H, 'w', 00H
	DB	00H, 00H					; `string'
CONST	ENDS
;	COMDAT ??_C@_1BA@LNEPLBJD@?$AA?9?$AAf?$AAo?$AAr?$AAm?$AAa?$AAt?$AA?$AA@
CONST	SEGMENT
??_C@_1BA@LNEPLBJD@?$AA?9?$AAf?$AAo?$AAr?$AAm?$AAa?$AAt?$AA?$AA@ DB '-', 00H
	DB	'f', 00H, 'o', 00H, 'r', 00H, 'm', 00H, 'a', 00H, 't', 00H, 00H
	DB	00H						; `string'
CONST	ENDS
;	COMDAT ??_C@_15LHNHECKK@?$AA?$CF?$AAx?$AA?$AA@
CONST	SEGMENT
??_C@_15LHNHECKK@?$AA?$CF?$AAx?$AA?$AA@ DB '%', 00H, 'x', 00H, 00H, 00H ; `string'
CONST	ENDS
;	COMDAT ??_C@_1BC@BGHGNDBJ@?$AA?9?$AAP?$AAM?$AAT?$AA_?$AAP?$AAI?$AAD?$AA?$AA@
CONST	SEGMENT
??_C@_1BC@BGHGNDBJ@?$AA?9?$AAP?$AAM?$AAT?$AA_?$AAP?$AAI?$AAD?$AA?$AA@ DB '-'
	DB	00H, 'P', 00H, 'M', 00H, 'T', 00H, '_', 00H, 'P', 00H, 'I', 00H
	DB	'D', 00H, 00H, 00H				; `string'
CONST	ENDS
;	COMDAT ??_C@_1BA@GHOECOCL@?$AAD?$AAe?$AAf?$AAa?$AAu?$AAl?$AAt?$AA?$AA@
CONST	SEGMENT
??_C@_1BA@GHOECOCL@?$AAD?$AAe?$AAf?$AAa?$AAu?$AAl?$AAt?$AA?$AA@ DB 'D', 00H
	DB	'e', 00H, 'f', 00H, 'a', 00H, 'u', 00H, 'l', 00H, 't', 00H, 00H
	DB	00H						; `string'
CONST	ENDS
;	COMDAT ??_C@_17MJEANDKP@?$AA?$CF?$AAs?$AA?6?$AA?$AA@
CONST	SEGMENT
??_C@_17MJEANDKP@?$AA?$CF?$AAs?$AA?6?$AA?$AA@ DB '%', 00H, 's', 00H, 0aH, 00H
	DB	00H, 00H					; `string'
CONST	ENDS
;	COMDAT ??_C@_1JI@IBOJGCKJ@?$AA?5?$AA?5?$AA?5?$AA?5?$AAC?$AAa?$AAp?$AAt?$AAi?$AAo?$AAn?$AA2?$AAA?$AAs?$AAs?$AAC?$AA?4?$AAe?$AAx?$AAe?$AA?5?$AA?9?$AAd?$AAe?$AAl?$AAa?$AAy?$AA?5?$AA5?$AA0?$AA0?$AA?5@
CONST	SEGMENT
??_C@_1JI@IBOJGCKJ@?$AA?5?$AA?5?$AA?5?$AA?5?$AAC?$AAa?$AAp?$AAt?$AAi?$AAo?$AAn?$AA2?$AAA?$AAs?$AAs?$AAC?$AA?4?$AAe?$AAx?$AAe?$AA?5?$AA?9?$AAd?$AAe?$AAl?$AAa?$AAy?$AA?5?$AA5?$AA0?$AA0?$AA?5@ DB ' '
	DB	00H, ' ', 00H, ' ', 00H, ' ', 00H, 'C', 00H, 'a', 00H, 'p', 00H
	DB	't', 00H, 'i', 00H, 'o', 00H, 'n', 00H, '2', 00H, 'A', 00H, 's'
	DB	00H, 's', 00H, 'C', 00H, '.', 00H, 'e', 00H, 'x', 00H, 'e', 00H
	DB	' ', 00H, '-', 00H, 'd', 00H, 'e', 00H, 'l', 00H, 'a', 00H, 'y'
	DB	00H, ' ', 00H, '5', 00H, '0', 00H, '0', 00H, ' ', 00H, '-', 00H
	DB	'P', 00H, 'M', 00H, 'T', 00H, '_', 00H, 'P', 00H, 'I', 00H, 'D'
	DB	00H, ' ', 00H, '1', 00H, 'f', 00H, '2', 00H, ' ', 00H, '-', 00H
	DB	'd', 00H, 'e', 00H, 't', 00H, 'e', 00H, 'c', 00H, 't', 00H, '_'
	DB	00H, 'l', 00H, 'e', 00H, 'n', 00H, 'g', 00H, 't', 00H, 'h', 00H
	DB	' ', 00H, '4', 00H, '0', 00H, '0', 00H, ' ', 00H, '"', 00H, 's'
	DB	00H, 'o', 00H, 'u', 00H, 'r', 00H, 'c', 00H, 'e', 00H, '.', 00H
	DB	't', 00H, 's', 00H, '"', 00H, 00H, 00H	; `string'
CONST	ENDS
;	COMDAT ??_C@_1JG@GPODJDL@?$AA?5?$AA?5?$AA?5?$AA?5?$AAC?$AAa?$AAp?$AAt?$AAi?$AAo?$AAn?$AA2?$AAA?$AAs?$AAs?$AAC?$AA?4?$AAe?$AAx?$AAe?$AA?5?$AA?9?$AAf?$AAo?$AAr?$AAm?$AAa?$AAt?$AA?5?$AAa?$AAs?$AAs@
CONST	SEGMENT
??_C@_1JG@GPODJDL@?$AA?5?$AA?5?$AA?5?$AA?5?$AAC?$AAa?$AAp?$AAt?$AAi?$AAo?$AAn?$AA2?$AAA?$AAs?$AAs?$AAC?$AA?4?$AAe?$AAx?$AAe?$AA?5?$AA?9?$AAf?$AAo?$AAr?$AAm?$AAa?$AAt?$AA?5?$AAa?$AAs?$AAs@ DB ' '
	DB	00H, ' ', 00H, ' ', 00H, ' ', 00H, 'C', 00H, 'a', 00H, 'p', 00H
	DB	't', 00H, 'i', 00H, 'o', 00H, 'n', 00H, '2', 00H, 'A', 00H, 's'
	DB	00H, 's', 00H, 'C', 00H, '.', 00H, 'e', 00H, 'x', 00H, 'e', 00H
	DB	' ', 00H, '-', 00H, 'f', 00H, 'o', 00H, 'r', 00H, 'm', 00H, 'a'
	DB	00H, 't', 00H, ' ', 00H, 'a', 00H, 's', 00H, 's', 00H, ' ', 00H
	DB	'-', 00H, 'a', 00H, 's', 00H, 's', 00H, 't', 00H, 'y', 00H, 'p'
	DB	00H, 'e', 00H, ' ', 00H, 'D', 00H, 'e', 00H, 'f', 00H, 'a', 00H
	DB	'u', 00H, 'l', 00H, 't', 00H, '4', 00H, '3', 00H, ' ', 00H, '-'
	DB	00H, 'h', 00H, 'l', 00H, 'c', 00H, ' ', 00H, 'k', 00H, 'i', 00H
	DB	'g', 00H, 'o', 00H, 'u', 00H, ' ', 00H, '"', 00H, 's', 00H, 'o'
	DB	00H, 'u', 00H, 'r', 00H, 'c', 00H, 'e', 00H, '.', 00H, 't', 00H
	DB	's', 00H, '"', 00H, 00H, 00H			; `string'
CONST	ENDS
;	COMDAT ??_C@_1FM@BPHHNLAA@?$AA?5?$AA?5?$AA?5?$AA?5?$AAC?$AAa?$AAp?$AAt?$AAi?$AAo?$AAn?$AA2?$AAA?$AAs?$AAs?$AAC?$AA?4?$AAe?$AAx?$AAe?$AA?5?$AA?9?$AAf?$AAo?$AAr?$AAm?$AAa?$AAt?$AA?5?$AAd?$AAu?$AAa@
CONST	SEGMENT
??_C@_1FM@BPHHNLAA@?$AA?5?$AA?5?$AA?5?$AA?5?$AAC?$AAa?$AAp?$AAt?$AAi?$AAo?$AAn?$AA2?$AAA?$AAs?$AAs?$AAC?$AA?4?$AAe?$AAx?$AAe?$AA?5?$AA?9?$AAf?$AAo?$AAr?$AAm?$AAa?$AAt?$AA?5?$AAd?$AAu?$AAa@ DB ' '
	DB	00H, ' ', 00H, ' ', 00H, ' ', 00H, 'C', 00H, 'a', 00H, 'p', 00H
	DB	't', 00H, 'i', 00H, 'o', 00H, 'n', 00H, '2', 00H, 'A', 00H, 's'
	DB	00H, 's', 00H, 'C', 00H, '.', 00H, 'e', 00H, 'x', 00H, 'e', 00H
	DB	' ', 00H, '-', 00H, 'f', 00H, 'o', 00H, 'r', 00H, 'm', 00H, 'a'
	DB	00H, 't', 00H, ' ', 00H, 'd', 00H, 'u', 00H, 'a', 00H, 'l', 00H
	DB	' ', 00H, '"', 00H, 's', 00H, 'o', 00H, 'u', 00H, 'r', 00H, 'c'
	DB	00H, 'e', 00H, '.', 00H, 't', 00H, 's', 00H, '"', 00H, 00H, 00H ; `string'
CONST	ENDS
;	COMDAT ??_C@_1BC@HLGLLIJK@?$AAE?$AAx?$AAa?$AAm?$AAp?$AAl?$AAe?$AA?3?$AA?$AA@
CONST	SEGMENT
??_C@_1BC@HLGLLIJK@?$AAE?$AAx?$AAa?$AAm?$AAp?$AAl?$AAe?$AA?3?$AA?$AA@ DB 'E'
	DB	00H, 'x', 00H, 'a', 00H, 'm', 00H, 'p', 00H, 'l', 00H, 'e', 00H
	DB	':', 00H, 00H, 00H				; `string'
CONST	ENDS
;	COMDAT ??_C@_1JK@MOALFGGA@?$AA?5?$AA?5?$AA?5?$AA?5?$AA?9?$AAc?$AAe?$AAn?$AAt?$AAe?$AAr?$AA?5?$AA?5?$AA?5?$AA?5?$AA?5?$AA?5?$AA?5?$AA?5?$AA?5?$AA?5?$AA?5?$AA?5?$AA?5?$AA?5?$AA?5?$AA?5?$AA?5?$AA?5?$AA?5?$AA?5?$AA?5@
CONST	SEGMENT
??_C@_1JK@MOALFGGA@?$AA?5?$AA?5?$AA?5?$AA?5?$AA?9?$AAc?$AAe?$AAn?$AAt?$AAe?$AAr?$AA?5?$AA?5?$AA?5?$AA?5?$AA?5?$AA?5?$AA?5?$AA?5?$AA?5?$AA?5?$AA?5?$AA?5?$AA?5?$AA?5?$AA?5?$AA?5?$AA?5?$AA?5?$AA?5?$AA?5?$AA?5@ DB ' '
	DB	00H, ' ', 00H, ' ', 00H, ' ', 00H, '-', 00H, 'c', 00H, 'e', 00H
	DB	'n', 00H, 't', 00H, 'e', 00H, 'r', 00H, ' ', 00H, ' ', 00H, ' '
	DB	00H, ' ', 00H, ' ', 00H, ' ', 00H, ' ', 00H, ' ', 00H, ' ', 00H
	DB	' ', 00H, ' ', 00H, ' ', 00H, ' ', 00H, ' ', 00H, ' ', 00H, ' '
	DB	00H, ' ', 00H, ' ', 00H, ' ', 00H, ' ', 00H, ' ', 00H, 'F', 00H
	DB	'i', 00H, 'x', 00H, ' ', 00H, 'a', 00H, 'l', 00H, 'i', 00H, 'g'
	DB	00H, 'n', 00H, ' ', 00H, 'o', 00H, 'f', 00H, ' ', 00H, 't', 00H
	DB	'e', 00H, 'x', 00H, 't', 00H, ' ', 00H, 'a', 00H, 't', 00H, ' '
	DB	00H, 'b', 00H, 'o', 00H, 't', 00H, 't', 00H, 'o', 00H, 'm', 00H
	DB	'-', 00H, 'c', 00H, 'e', 00H, 'n', 00H, 't', 00H, 'e', 00H, 'r'
	DB	00H, ',', 00H, ' ', 00H, 'n', 00H, 'o', 00H, ' ', 00H, 'r', 00H
	DB	'u', 00H, 'b', 00H, 'i', 00H, '.', 00H, 00H, 00H ; `string'
CONST	ENDS
;	COMDAT ??_C@_1IM@OKJCIK@?$AA?5?$AA?5?$AA?5?$AA?5?$AA?9?$AAn?$AAo?$AAr?$AAu?$AAb?$AAi?$AA?5?$AA?5?$AA?5?$AA?5?$AA?5?$AA?5?$AA?5?$AA?5?$AA?5?$AA?5?$AA?5?$AA?5?$AA?5?$AA?5?$AA?5?$AA?5?$AA?5?$AA?5?$AA?5?$AA?5?$AA?5@
CONST	SEGMENT
??_C@_1IM@OKJCIK@?$AA?5?$AA?5?$AA?5?$AA?5?$AA?9?$AAn?$AAo?$AAr?$AAu?$AAb?$AAi?$AA?5?$AA?5?$AA?5?$AA?5?$AA?5?$AA?5?$AA?5?$AA?5?$AA?5?$AA?5?$AA?5?$AA?5?$AA?5?$AA?5?$AA?5?$AA?5?$AA?5?$AA?5?$AA?5?$AA?5?$AA?5@ DB ' '
	DB	00H, ' ', 00H, ' ', 00H, ' ', 00H, '-', 00H, 'n', 00H, 'o', 00H
	DB	'r', 00H, 'u', 00H, 'b', 00H, 'i', 00H, ' ', 00H, ' ', 00H, ' '
	DB	00H, ' ', 00H, ' ', 00H, ' ', 00H, ' ', 00H, ' ', 00H, ' ', 00H
	DB	' ', 00H, ' ', 00H, ' ', 00H, ' ', 00H, ' ', 00H, ' ', 00H, ' '
	DB	00H, ' ', 00H, ' ', 00H, ' ', 00H, ' ', 00H, ' ', 00H, 'D', 00H
	DB	'o', 00H, 'e', 00H, 's', 00H, ' ', 00H, 'n', 00H, 'o', 00H, 't'
	DB	00H, ' ', 00H, 'o', 00H, 'u', 00H, 't', 00H, 'p', 00H, 'u', 00H
	DB	't', 00H, ' ', 00H, 't', 00H, 'h', 00H, 'e', 00H, ' ', 00H, 'R'
	DB	00H, 'u', 00H, 'b', 00H, 'i', 00H, ' ', 00H, 't', 00H, 'o', 00H
	DB	' ', 00H, 'a', 00H, 's', 00H, 's', 00H, '-', 00H, 'f', 00H, 'i'
	DB	00H, 'l', 00H, 'e', 00H, '.', 00H, 00H, 00H	; `string'
CONST	ENDS
;	COMDAT ??_C@_1GG@BKMOKGDG@?$AA?5?$AA?5?$AA?5?$AA?5?$AA?5?$AA?5?$AA?5?$AA?5?$AA?5?$AA?5?$AA?5?$AA?5?$AA?5?$AA?5?$AA?5?$AA?5?$AA?5?$AA?5?$AA?5?$AA?5?$AA?5?$AA?5?$AA?5?$AA?5?$AA?5?$AA?5?$AA?5?$AA?5?$AA?5?$AA?5?$AA?5?$AA?5@
CONST	SEGMENT
??_C@_1GG@BKMOKGDG@?$AA?5?$AA?5?$AA?5?$AA?5?$AA?5?$AA?5?$AA?5?$AA?5?$AA?5?$AA?5?$AA?5?$AA?5?$AA?5?$AA?5?$AA?5?$AA?5?$AA?5?$AA?5?$AA?5?$AA?5?$AA?5?$AA?5?$AA?5?$AA?5?$AA?5?$AA?5?$AA?5?$AA?5?$AA?5?$AA?5?$AA?5?$AA?5@ DB ' '
	DB	00H, ' ', 00H, ' ', 00H, ' ', 00H, ' ', 00H, ' ', 00H, ' ', 00H
	DB	' ', 00H, ' ', 00H, ' ', 00H, ' ', 00H, ' ', 00H, ' ', 00H, ' '
	DB	00H, ' ', 00H, ' ', 00H, ' ', 00H, ' ', 00H, ' ', 00H, ' ', 00H
	DB	' ', 00H, ' ', 00H, ' ', 00H, ' ', 00H, ' ', 00H, ' ', 00H, ' '
	DB	00H, ' ', 00H, ' ', 00H, ' ', 00H, ' ', 00H, ' ', 00H, ' ', 00H
	DB	' ', 00H, ' ', 00H, ' ', 00H, 'D', 00H, 'e', 00H, 'f', 00H, 'a'
	DB	00H, 'u', 00H, 'l', 00H, 't', 00H, ':', 00H, ' ', 00H, 'k', 00H
	DB	'i', 00H, 'g', 00H, 'o', 00H, 'u', 00H, 00H, 00H ; `string'
CONST	ENDS
;	COMDAT ??_C@_1JG@ICBDAKPP@?$AA?5?$AA?5?$AA?5?$AA?5?$AA?9?$AAh?$AAl?$AAc?$AA?5?$AA?$DM?$AAs?$AAt?$AAr?$AAi?$AAn?$AAg?$AA?$DO?$AA?5?$AA?5?$AA?5?$AA?5?$AA?5?$AA?5?$AA?5?$AA?5?$AA?5?$AA?5?$AA?5?$AA?5?$AA?5?$AA?5?$AA?5@
CONST	SEGMENT
??_C@_1JG@ICBDAKPP@?$AA?5?$AA?5?$AA?5?$AA?5?$AA?9?$AAh?$AAl?$AAc?$AA?5?$AA?$DM?$AAs?$AAt?$AAr?$AAi?$AAn?$AAg?$AA?$DO?$AA?5?$AA?5?$AA?5?$AA?5?$AA?5?$AA?5?$AA?5?$AA?5?$AA?5?$AA?5?$AA?5?$AA?5?$AA?5?$AA?5?$AA?5@ DB ' '
	DB	00H, ' ', 00H, ' ', 00H, ' ', 00H, '-', 00H, 'h', 00H, 'l', 00H
	DB	'c', 00H, ' ', 00H, '<', 00H, 's', 00H, 't', 00H, 'r', 00H, 'i'
	DB	00H, 'n', 00H, 'g', 00H, '>', 00H, ' ', 00H, ' ', 00H, ' ', 00H
	DB	' ', 00H, ' ', 00H, ' ', 00H, ' ', 00H, ' ', 00H, ' ', 00H, ' '
	DB	00H, ' ', 00H, ' ', 00H, ' ', 00H, ' ', 00H, ' ', 00H, 'S', 00H
	DB	'e', 00H, 'p', 00H, 'c', 00H, 'i', 00H, 'f', 00H, 'y', 00H, ' '
	DB	00H, 'H', 00H, 'L', 00H, 'C', 00H, ' ', 00H, 'c', 00H, 'o', 00H
	DB	'n', 00H, 't', 00H, 'r', 00H, 'o', 00H, 'l', 00H, ' ', 00H, 't'
	DB	00H, 'y', 00H, 'p', 00H, 'e', 00H, '.', 00H, ' ', 00H, '{', 00H
	DB	'k', 00H, 'i', 00H, 'g', 00H, 'o', 00H, 'u', 00H, '|', 00H, 'b'
	DB	00H, 'o', 00H, 'x', 00H, '|', 00H, 'd', 00H, 'r', 00H, 'a', 00H
	DB	'w', 00H, '}', 00H, 00H, 00H			; `string'
CONST	ENDS
;	COMDAT ??_C@_1IE@PBODKPOA@?$AA?5?$AA?5?$AA?5?$AA?5?$AA?9?$AAa?$AAs?$AAs?$AAt?$AAy?$AAp?$AAe?$AA?5?$AA?$DM?$AAs?$AAt?$AAr?$AAi?$AAn?$AAg?$AA?$DO?$AA?5?$AA?5?$AA?5?$AA?5?$AA?5?$AA?5?$AA?5?$AA?5?$AA?5?$AA?5?$AA?5@
CONST	SEGMENT
??_C@_1IE@PBODKPOA@?$AA?5?$AA?5?$AA?5?$AA?5?$AA?9?$AAa?$AAs?$AAs?$AAt?$AAy?$AAp?$AAe?$AA?5?$AA?$DM?$AAs?$AAt?$AAr?$AAi?$AAn?$AAg?$AA?$DO?$AA?5?$AA?5?$AA?5?$AA?5?$AA?5?$AA?5?$AA?5?$AA?5?$AA?5?$AA?5?$AA?5@ DB ' '
	DB	00H, ' ', 00H, ' ', 00H, ' ', 00H, '-', 00H, 'a', 00H, 's', 00H
	DB	's', 00H, 't', 00H, 'y', 00H, 'p', 00H, 'e', 00H, ' ', 00H, '<'
	DB	00H, 's', 00H, 't', 00H, 'r', 00H, 'i', 00H, 'n', 00H, 'g', 00H
	DB	'>', 00H, ' ', 00H, ' ', 00H, ' ', 00H, ' ', 00H, ' ', 00H, ' '
	DB	00H, ' ', 00H, ' ', 00H, ' ', 00H, ' ', 00H, ' ', 00H, 'S', 00H
	DB	'e', 00H, 'p', 00H, 'c', 00H, 'i', 00H, 'f', 00H, 'y', 00H, ' '
	DB	00H, 't', 00H, 'y', 00H, 'p', 00H, 'e', 00H, ' ', 00H, 'n', 00H
	DB	'a', 00H, 'm', 00H, 'e', 00H, ' ', 00H, 'o', 00H, 'f', 00H, ' '
	DB	00H, 'a', 00H, 's', 00H, 's', 00H, ' ', 00H, 's', 00H, 'e', 00H
	DB	't', 00H, 't', 00H, 'i', 00H, 'n', 00H, 'g', 00H, '.', 00H, 00H
	DB	00H						; `string'
CONST	ENDS
;	COMDAT ??_C@_1BA@CMNNBICA@?$AA?5?$AA?5?$AA?$FL?$AAa?$AAs?$AAs?$AA?$FN?$AA?$AA@
CONST	SEGMENT
??_C@_1BA@CMNNBICA@?$AA?5?$AA?5?$AA?$FL?$AAa?$AAs?$AAs?$AA?$FN?$AA?$AA@ DB ' '
	DB	00H, ' ', 00H, '[', 00H, 'a', 00H, 's', 00H, 's', 00H, ']', 00H
	DB	00H, 00H					; `string'
CONST	ENDS
;	COMDAT ??_C@_1HE@NEAEFCJF@?$AA?5?$AA?5?$AA?5?$AA?5?$AA?9?$AAs?$AAr?$AAt?$AAo?$AAr?$AAn?$AAa?$AAm?$AAe?$AAn?$AAt?$AA?5?$AA?5?$AA?5?$AA?5?$AA?5?$AA?5?$AA?5?$AA?5?$AA?5?$AA?5?$AA?5?$AA?5?$AA?5?$AA?5?$AA?5?$AA?5@
CONST	SEGMENT
??_C@_1HE@NEAEFCJF@?$AA?5?$AA?5?$AA?5?$AA?5?$AA?9?$AAs?$AAr?$AAt?$AAo?$AAr?$AAn?$AAa?$AAm?$AAe?$AAn?$AAt?$AA?5?$AA?5?$AA?5?$AA?5?$AA?5?$AA?5?$AA?5?$AA?5?$AA?5?$AA?5?$AA?5?$AA?5?$AA?5?$AA?5?$AA?5?$AA?5@ DB ' '
	DB	00H, ' ', 00H, ' ', 00H, ' ', 00H, '-', 00H, 's', 00H, 'r', 00H
	DB	't', 00H, 'o', 00H, 'r', 00H, 'n', 00H, 'a', 00H, 'm', 00H, 'e'
	DB	00H, 'n', 00H, 't', 00H, ' ', 00H, ' ', 00H, ' ', 00H, ' ', 00H
	DB	' ', 00H, ' ', 00H, ' ', 00H, ' ', 00H, ' ', 00H, ' ', 00H, ' '
	DB	00H, ' ', 00H, ' ', 00H, ' ', 00H, ' ', 00H, ' ', 00H, 'S', 00H
	DB	'e', 00H, 't', 00H, ' ', 00H, 'o', 00H, 'r', 00H, 'n', 00H, 'a'
	DB	00H, 'm', 00H, 'e', 00H, 'n', 00H, 't', 00H, ' ', 00H, 't', 00H
	DB	'o', 00H, ' ', 00H, 's', 00H, 'r', 00H, 't', 00H, '-', 00H, 'f'
	DB	00H, 'i', 00H, 'l', 00H, 'e', 00H, '.', 00H, 00H, 00H ; `string'
CONST	ENDS
;	COMDAT ??_C@_1BA@NOCJHJND@?$AA?5?$AA?5?$AA?$FL?$AAs?$AAr?$AAt?$AA?$FN?$AA?$AA@
CONST	SEGMENT
??_C@_1BA@NOCJHJND@?$AA?5?$AA?5?$AA?$FL?$AAs?$AAr?$AAt?$AA?$FN?$AA?$AA@ DB ' '
	DB	00H, ' ', 00H, '[', 00H, 's', 00H, 'r', 00H, 't', 00H, ']', 00H
	DB	00H, 00H					; `string'
CONST	ENDS
;	COMDAT ??_C@_1IA@MBBLJHPI@?$AA?5?$AA?5?$AA?5?$AA?5?$AA?5?$AA?5?$AA?5?$AA?5?$AA?5?$AA?5?$AA?5?$AA?5?$AA?5?$AA?5?$AA?5?$AA?5?$AA?5?$AA?5?$AA?5?$AA?5?$AA?5?$AA?5?$AA?5?$AA?5?$AA?5?$AA?5?$AA?5?$AA?5?$AA?5?$AA?5?$AA?5?$AA?5@
CONST	SEGMENT
??_C@_1IA@MBBLJHPI@?$AA?5?$AA?5?$AA?5?$AA?5?$AA?5?$AA?5?$AA?5?$AA?5?$AA?5?$AA?5?$AA?5?$AA?5?$AA?5?$AA?5?$AA?5?$AA?5?$AA?5?$AA?5?$AA?5?$AA?5?$AA?5?$AA?5?$AA?5?$AA?5?$AA?5?$AA?5?$AA?5?$AA?5?$AA?5?$AA?5?$AA?5?$AA?5@ DB ' '
	DB	00H, ' ', 00H, ' ', 00H, ' ', 00H, ' ', 00H, ' ', 00H, ' ', 00H
	DB	' ', 00H, ' ', 00H, ' ', 00H, ' ', 00H, ' ', 00H, ' ', 00H, ' '
	DB	00H, ' ', 00H, ' ', 00H, ' ', 00H, ' ', 00H, ' ', 00H, ' ', 00H
	DB	' ', 00H, ' ', 00H, ' ', 00H, ' ', 00H, ' ', 00H, ' ', 00H, ' '
	DB	00H, ' ', 00H, ' ', 00H, ' ', 00H, ' ', 00H, ' ', 00H, ' ', 00H
	DB	'u', 00H, 'p', 00H, 'o', 00H, 'n', 00H, ' ', 00H, 'd', 00H, 'e'
	DB	00H, 't', 00H, 'e', 00H, 'c', 00H, 't', 00H, 'i', 00H, 'o', 00H
	DB	'n', 00H, ' ', 00H, 'o', 00H, 'f', 00H, ' ', 00H, 'p', 00H, 'a'
	DB	00H, 'c', 00H, 'k', 00H, 'e', 00H, 't', 00H, ' ', 00H, 'l', 00H
	DB	'o', 00H, 's', 00H, 's', 00H, '.', 00H, 00H, 00H ; `string'
CONST	ENDS
;	COMDAT ??_C@_1JE@FADFIFOI@?$AA?5?$AA?5?$AA?5?$AA?5?$AA?9?$AAk?$AAe?$AAe?$AAp?$AAi?$AAn?$AAt?$AAe?$AAr?$AAv?$AAa?$AAl?$AA?5?$AA?5?$AA?5?$AA?5?$AA?5?$AA?5?$AA?5?$AA?5?$AA?5?$AA?5?$AA?5?$AA?5?$AA?5?$AA?5?$AA?5@
CONST	SEGMENT
??_C@_1JE@FADFIFOI@?$AA?5?$AA?5?$AA?5?$AA?5?$AA?9?$AAk?$AAe?$AAe?$AAp?$AAi?$AAn?$AAt?$AAe?$AAr?$AAv?$AAa?$AAl?$AA?5?$AA?5?$AA?5?$AA?5?$AA?5?$AA?5?$AA?5?$AA?5?$AA?5?$AA?5?$AA?5?$AA?5?$AA?5?$AA?5?$AA?5@ DB ' '
	DB	00H, ' ', 00H, ' ', 00H, ' ', 00H, '-', 00H, 'k', 00H, 'e', 00H
	DB	'e', 00H, 'p', 00H, 'i', 00H, 'n', 00H, 't', 00H, 'e', 00H, 'r'
	DB	00H, 'v', 00H, 'a', 00H, 'l', 00H, ' ', 00H, ' ', 00H, ' ', 00H
	DB	' ', 00H, ' ', 00H, ' ', 00H, ' ', 00H, ' ', 00H, ' ', 00H, ' '
	DB	00H, ' ', 00H, ' ', 00H, ' ', 00H, ' ', 00H, ' ', 00H, 'K', 00H
	DB	'e', 00H, 'e', 00H, 'p', 00H, ' ', 00H, 't', 00H, 'h', 00H, 'e'
	DB	00H, ' ', 00H, 'i', 00H, 'n', 00H, 't', 00H, 'e', 00H, 'r', 00H
	DB	'v', 00H, 'a', 00H, 'l', 00H, ' ', 00H, 'o', 00H, 'f', 00H, ' '
	DB	00H, 't', 00H, 'h', 00H, 'e', 00H, ' ', 00H, 'o', 00H, 'u', 00H
	DB	't', 00H, 'p', 00H, 'u', 00H, 't', 00H, ' ', 00H, 't', 00H, 'i'
	DB	00H, 'm', 00H, 'e', 00H, 's', 00H, 't', 00H, 'a', 00H, 'm', 00H
	DB	'p', 00H, 00H, 00H				; `string'
CONST	ENDS
;	COMDAT ??_C@_1FO@LIBDFPPA@?$AA?5?$AA?5?$AA?5?$AA?5?$AA?9?$AAl?$AAo?$AAg?$AA?5?$AA?5?$AA?5?$AA?5?$AA?5?$AA?5?$AA?5?$AA?5?$AA?5?$AA?5?$AA?5?$AA?5?$AA?5?$AA?5?$AA?5?$AA?5?$AA?5?$AA?5?$AA?5?$AA?5?$AA?5?$AA?5?$AA?5?$AA?5@
CONST	SEGMENT
??_C@_1FO@LIBDFPPA@?$AA?5?$AA?5?$AA?5?$AA?5?$AA?9?$AAl?$AAo?$AAg?$AA?5?$AA?5?$AA?5?$AA?5?$AA?5?$AA?5?$AA?5?$AA?5?$AA?5?$AA?5?$AA?5?$AA?5?$AA?5?$AA?5?$AA?5?$AA?5?$AA?5?$AA?5?$AA?5?$AA?5?$AA?5?$AA?5?$AA?5?$AA?5@ DB ' '
	DB	00H, ' ', 00H, ' ', 00H, ' ', 00H, '-', 00H, 'l', 00H, 'o', 00H
	DB	'g', 00H, ' ', 00H, ' ', 00H, ' ', 00H, ' ', 00H, ' ', 00H, ' '
	DB	00H, ' ', 00H, ' ', 00H, ' ', 00H, ' ', 00H, ' ', 00H, ' ', 00H
	DB	' ', 00H, ' ', 00H, ' ', 00H, ' ', 00H, ' ', 00H, ' ', 00H, ' '
	DB	00H, ' ', 00H, ' ', 00H, ' ', 00H, ' ', 00H, ' ', 00H, 'M', 00H
	DB	'a', 00H, 'k', 00H, 'e', 00H, ' ', 00H, 'l', 00H, 'o', 00H, 'g'
	DB	00H, '-', 00H, 'f', 00H, 'i', 00H, 'l', 00H, 'e', 00H, '.', 00H
	DB	00H, 00H					; `string'
CONST	ENDS
;	COMDAT ??_C@_1GC@DFNBPKPK@?$AA?5?$AA?5?$AA?5?$AA?5?$AA?5?$AA?5?$AA?5?$AA?5?$AA?5?$AA?5?$AA?5?$AA?5?$AA?5?$AA?5?$AA?5?$AA?5?$AA?5?$AA?5?$AA?5?$AA?5?$AA?5?$AA?5?$AA?5?$AA?5?$AA?5?$AA?5?$AA?5?$AA?5?$AA?5?$AA?5?$AA?5?$AA?5@
CONST	SEGMENT
??_C@_1GC@DFNBPKPK@?$AA?5?$AA?5?$AA?5?$AA?5?$AA?5?$AA?5?$AA?5?$AA?5?$AA?5?$AA?5?$AA?5?$AA?5?$AA?5?$AA?5?$AA?5?$AA?5?$AA?5?$AA?5?$AA?5?$AA?5?$AA?5?$AA?5?$AA?5?$AA?5?$AA?5?$AA?5?$AA?5?$AA?5?$AA?5?$AA?5?$AA?5?$AA?5@ DB ' '
	DB	00H, ' ', 00H, ' ', 00H, ' ', 00H, ' ', 00H, ' ', 00H, ' ', 00H
	DB	' ', 00H, ' ', 00H, ' ', 00H, ' ', 00H, ' ', 00H, ' ', 00H, ' '
	DB	00H, ' ', 00H, ' ', 00H, ' ', 00H, ' ', 00H, ' ', 00H, ' ', 00H
	DB	' ', 00H, ' ', 00H, ' ', 00H, ' ', 00H, ' ', 00H, ' ', 00H, ' '
	DB	00H, ' ', 00H, ' ', 00H, ' ', 00H, ' ', 00H, ' ', 00H, ' ', 00H
	DB	' ', 00H, ' ', 00H, ' ', 00H, 'D', 00H, 'e', 00H, 'f', 00H, 'a'
	DB	00H, 'u', 00H, 'l', 00H, 't', 00H, ':', 00H, ' ', 00H, '3', 00H
	DB	'0', 00H, '0', 00H, 00H, 00H			; `string'
CONST	ENDS
;	COMDAT ??_C@_1IG@LGNBHEPC@?$AA?5?$AA?5?$AA?5?$AA?5?$AA?5?$AA?5?$AA?5?$AA?5?$AA?5?$AA?5?$AA?5?$AA?5?$AA?5?$AA?5?$AA?5?$AA?5?$AA?5?$AA?5?$AA?5?$AA?5?$AA?5?$AA?5?$AA?5?$AA?5?$AA?5?$AA?5?$AA?5?$AA?5?$AA?5?$AA?5?$AA?5?$AA?5@
CONST	SEGMENT
??_C@_1IG@LGNBHEPC@?$AA?5?$AA?5?$AA?5?$AA?5?$AA?5?$AA?5?$AA?5?$AA?5?$AA?5?$AA?5?$AA?5?$AA?5?$AA?5?$AA?5?$AA?5?$AA?5?$AA?5?$AA?5?$AA?5?$AA?5?$AA?5?$AA?5?$AA?5?$AA?5?$AA?5?$AA?5?$AA?5?$AA?5?$AA?5?$AA?5?$AA?5?$AA?5@ DB ' '
	DB	00H, ' ', 00H, ' ', 00H, ' ', 00H, ' ', 00H, ' ', 00H, ' ', 00H
	DB	' ', 00H, ' ', 00H, ' ', 00H, ' ', 00H, ' ', 00H, ' ', 00H, ' '
	DB	00H, ' ', 00H, ' ', 00H, ' ', 00H, ' ', 00H, ' ', 00H, ' ', 00H
	DB	' ', 00H, ' ', 00H, ' ', 00H, ' ', 00H, ' ', 00H, ' ', 00H, ' '
	DB	00H, ' ', 00H, ' ', 00H, ' ', 00H, ' ', 00H, ' ', 00H, ' ', 00H
	DB	'f', 00H, 'o', 00H, 'r', 00H, ' ', 00H, 'd', 00H, 'e', 00H, 't'
	DB	00H, 'e', 00H, 'c', 00H, 't', 00H, 'i', 00H, 'n', 00H, 'g', 00H
	DB	' ', 00H, 'c', 00H, 'a', 00H, 'p', 00H, 't', 00H, 'i', 00H, 'o'
	DB	00H, 'n', 00H, ' ', 00H, 'd', 00H, 'a', 00H, 't', 00H, 'a', 00H
	DB	'.', 00H, ' ', 00H, '[', 00H, '1', 00H, '0', 00H, 'k', 00H, ']'
	DB	00H, 00H, 00H				; `string'
CONST	ENDS
;	COMDAT ??_C@_1JK@GPLJKCCG@?$AA?5?$AA?5?$AA?5?$AA?5?$AA?9?$AAd?$AAe?$AAt?$AAe?$AAc?$AAt?$AA_?$AAl?$AAe?$AAn?$AAg?$AAt?$AAh?$AA?5?$AA?$DM?$AAi?$AAn?$AAt?$AAe?$AAg?$AAe?$AAr?$AA?$DO?$AA?5?$AA?5?$AA?5?$AA?5@
CONST	SEGMENT
??_C@_1JK@GPLJKCCG@?$AA?5?$AA?5?$AA?5?$AA?5?$AA?9?$AAd?$AAe?$AAt?$AAe?$AAc?$AAt?$AA_?$AAl?$AAe?$AAn?$AAg?$AAt?$AAh?$AA?5?$AA?$DM?$AAi?$AAn?$AAt?$AAe?$AAg?$AAe?$AAr?$AA?$DO?$AA?5?$AA?5?$AA?5?$AA?5@ DB ' '
	DB	00H, ' ', 00H, ' ', 00H, ' ', 00H, '-', 00H, 'd', 00H, 'e', 00H
	DB	't', 00H, 'e', 00H, 'c', 00H, 't', 00H, '_', 00H, 'l', 00H, 'e'
	DB	00H, 'n', 00H, 'g', 00H, 't', 00H, 'h', 00H, ' ', 00H, '<', 00H
	DB	'i', 00H, 'n', 00H, 't', 00H, 'e', 00H, 'g', 00H, 'e', 00H, 'r'
	DB	00H, '>', 00H, ' ', 00H, ' ', 00H, ' ', 00H, ' ', 00H, 'S', 00H
	DB	'p', 00H, 'e', 00H, 'c', 00H, 'i', 00H, 'f', 00H, 'y', 00H, ' '
	DB	00H, 'u', 00H, 'p', 00H, 'p', 00H, 'e', 00H, 'r', 00H, ' ', 00H
	DB	'l', 00H, 'i', 00H, 'm', 00H, 'i', 00H, 't', 00H, ' ', 00H, 'v'
	DB	00H, 'a', 00H, 'l', 00H, 'u', 00H, 'e', 00H, ' ', 00H, 'o', 00H
	DB	'f', 00H, ' ', 00H, 'p', 00H, 'a', 00H, 'c', 00H, 'k', 00H, 'e'
	DB	00H, 't', 00H, ' ', 00H, 'c', 00H, 'o', 00H, 'u', 00H, 'n', 00H
	DB	't', 00H, 'i', 00H, 'n', 00H, 'g', 00H, 00H, 00H ; `string'
CONST	ENDS
;	COMDAT ??_C@_1GG@NOBDLJDN@?$AA?5?$AA?5?$AA?5?$AA?5?$AA?9?$AAP?$AAM?$AAT?$AA_?$AAP?$AAI?$AAD?$AA?5?$AA?$DM?$AAh?$AAe?$AAx?$AA?$DO?$AA?5?$AA?5?$AA?5?$AA?5?$AA?5?$AA?5?$AA?5?$AA?5?$AA?5?$AA?5?$AA?5?$AA?5?$AA?5?$AA?5@
CONST	SEGMENT
??_C@_1GG@NOBDLJDN@?$AA?5?$AA?5?$AA?5?$AA?5?$AA?9?$AAP?$AAM?$AAT?$AA_?$AAP?$AAI?$AAD?$AA?5?$AA?$DM?$AAh?$AAe?$AAx?$AA?$DO?$AA?5?$AA?5?$AA?5?$AA?5?$AA?5?$AA?5?$AA?5?$AA?5?$AA?5?$AA?5?$AA?5?$AA?5?$AA?5?$AA?5@ DB ' '
	DB	00H, ' ', 00H, ' ', 00H, ' ', 00H, '-', 00H, 'P', 00H, 'M', 00H
	DB	'T', 00H, '_', 00H, 'P', 00H, 'I', 00H, 'D', 00H, ' ', 00H, '<'
	DB	00H, 'h', 00H, 'e', 00H, 'x', 00H, '>', 00H, ' ', 00H, ' ', 00H
	DB	' ', 00H, ' ', 00H, ' ', 00H, ' ', 00H, ' ', 00H, ' ', 00H, ' '
	DB	00H, ' ', 00H, ' ', 00H, ' ', 00H, ' ', 00H, ' ', 00H, 'S', 00H
	DB	'p', 00H, 'e', 00H, 'c', 00H, 'i', 00H, 'f', 00H, 'y', 00H, ' '
	DB	00H, 'P', 00H, 'I', 00H, 'D', 00H, ' ', 00H, 'v', 00H, 'a', 00H
	DB	'l', 00H, 'u', 00H, 'e', 00H, '.', 00H, 00H, 00H ; `string'
CONST	ENDS
;	COMDAT ??_C@_1HO@HFKAGDHE@?$AA?5?$AA?5?$AA?5?$AA?5?$AA?9?$AAd?$AAe?$AAl?$AAa?$AAy?$AA?5?$AA?$DM?$AAi?$AAn?$AAt?$AAe?$AAg?$AAe?$AAr?$AA?$DO?$AA?5?$AA?5?$AA?5?$AA?5?$AA?5?$AA?5?$AA?5?$AA?5?$AA?5?$AA?5?$AA?5?$AA?5@
CONST	SEGMENT
??_C@_1HO@HFKAGDHE@?$AA?5?$AA?5?$AA?5?$AA?5?$AA?9?$AAd?$AAe?$AAl?$AAa?$AAy?$AA?5?$AA?$DM?$AAi?$AAn?$AAt?$AAe?$AAg?$AAe?$AAr?$AA?$DO?$AA?5?$AA?5?$AA?5?$AA?5?$AA?5?$AA?5?$AA?5?$AA?5?$AA?5?$AA?5?$AA?5?$AA?5@ DB ' '
	DB	00H, ' ', 00H, ' ', 00H, ' ', 00H, '-', 00H, 'd', 00H, 'e', 00H
	DB	'l', 00H, 'a', 00H, 'y', 00H, ' ', 00H, '<', 00H, 'i', 00H, 'n'
	DB	00H, 't', 00H, 'e', 00H, 'g', 00H, 'e', 00H, 'r', 00H, '>', 00H
	DB	' ', 00H, ' ', 00H, ' ', 00H, ' ', 00H, ' ', 00H, ' ', 00H, ' '
	DB	00H, ' ', 00H, ' ', 00H, ' ', 00H, ' ', 00H, ' ', 00H, 'S', 00H
	DB	'e', 00H, 'p', 00H, 'c', 00H, 'i', 00H, 'f', 00H, 'y', 00H, ' '
	DB	00H, 'd', 00H, 'e', 00H, 'l', 00H, 'a', 00H, 'y', 00H, ' ', 00H
	DB	't', 00H, 'i', 00H, 'm', 00H, 'e', 00H, '.', 00H, ' ', 00H, '['
	DB	00H, 'm', 00H, 'i', 00H, 'l', 00H, 'i', 00H, '-', 00H, 's', 00H
	DB	'e', 00H, 'c', 00H, ']', 00H, 00H, 00H	; `string'
CONST	ENDS
;	COMDAT ??_C@_1GC@CCLPIBFA@?$AA?5?$AA?5?$AA?5?$AA?5?$AA?5?$AA?5?$AA?5?$AA?5?$AA?5?$AA?5?$AA?5?$AA?5?$AA?5?$AA?5?$AA?5?$AA?5?$AA?5?$AA?5?$AA?5?$AA?5?$AA?5?$AA?5?$AA?5?$AA?5?$AA?5?$AA?5?$AA?5?$AA?5?$AA?5?$AA?5?$AA?5?$AA?5@
CONST	SEGMENT
??_C@_1GC@CCLPIBFA@?$AA?5?$AA?5?$AA?5?$AA?5?$AA?5?$AA?5?$AA?5?$AA?5?$AA?5?$AA?5?$AA?5?$AA?5?$AA?5?$AA?5?$AA?5?$AA?5?$AA?5?$AA?5?$AA?5?$AA?5?$AA?5?$AA?5?$AA?5?$AA?5?$AA?5?$AA?5?$AA?5?$AA?5?$AA?5?$AA?5?$AA?5?$AA?5@ DB ' '
	DB	00H, ' ', 00H, ' ', 00H, ' ', 00H, ' ', 00H, ' ', 00H, ' ', 00H
	DB	' ', 00H, ' ', 00H, ' ', 00H, ' ', 00H, ' ', 00H, ' ', 00H, ' '
	DB	00H, ' ', 00H, ' ', 00H, ' ', 00H, ' ', 00H, ' ', 00H, ' ', 00H
	DB	' ', 00H, ' ', 00H, ' ', 00H, ' ', 00H, ' ', 00H, ' ', 00H, ' '
	DB	00H, ' ', 00H, ' ', 00H, ' ', 00H, ' ', 00H, ' ', 00H, ' ', 00H
	DB	' ', 00H, ' ', 00H, ' ', 00H, 'D', 00H, 'e', 00H, 'f', 00H, 'a'
	DB	00H, 'u', 00H, 'l', 00H, 't', 00H, ':', 00H, ' ', 00H, 'a', 00H
	DB	's', 00H, 's', 00H, 00H, 00H			; `string'
CONST	ENDS
;	COMDAT ??_C@_1JE@GIDOJHGO@?$AA?5?$AA?5?$AA?5?$AA?5?$AA?9?$AAf?$AAo?$AAr?$AAm?$AAa?$AAt?$AA?5?$AA?$DM?$AAs?$AAt?$AAr?$AAi?$AAn?$AAg?$AA?$DO?$AA?5?$AA?5?$AA?5?$AA?5?$AA?5?$AA?5?$AA?5?$AA?5?$AA?5?$AA?5?$AA?5?$AA?5@
CONST	SEGMENT
??_C@_1JE@GIDOJHGO@?$AA?5?$AA?5?$AA?5?$AA?5?$AA?9?$AAf?$AAo?$AAr?$AAm?$AAa?$AAt?$AA?5?$AA?$DM?$AAs?$AAt?$AAr?$AAi?$AAn?$AAg?$AA?$DO?$AA?5?$AA?5?$AA?5?$AA?5?$AA?5?$AA?5?$AA?5?$AA?5?$AA?5?$AA?5?$AA?5?$AA?5@ DB ' '
	DB	00H, ' ', 00H, ' ', 00H, ' ', 00H, '-', 00H, 'f', 00H, 'o', 00H
	DB	'r', 00H, 'm', 00H, 'a', 00H, 't', 00H, ' ', 00H, '<', 00H, 's'
	DB	00H, 't', 00H, 'r', 00H, 'i', 00H, 'n', 00H, 'g', 00H, '>', 00H
	DB	' ', 00H, ' ', 00H, ' ', 00H, ' ', 00H, ' ', 00H, ' ', 00H, ' '
	DB	00H, ' ', 00H, ' ', 00H, ' ', 00H, ' ', 00H, ' ', 00H, 'S', 00H
	DB	'p', 00H, 'e', 00H, 'c', 00H, 'i', 00H, 'f', 00H, 'y', 00H, ' '
	DB	00H, 'o', 00H, 'u', 00H, 't', 00H, 'p', 00H, 'u', 00H, 't', 00H
	DB	' ', 00H, 'f', 00H, 'o', 00H, 'r', 00H, 'm', 00H, 'a', 00H, 't'
	DB	00H, '.', 00H, ' ', 00H, '{', 00H, 's', 00H, 'r', 00H, 't', 00H
	DB	'|', 00H, 'a', 00H, 's', 00H, 's', 00H, '|', 00H, 't', 00H, 'a'
	DB	00H, 'w', 00H, '|', 00H, 'd', 00H, 'u', 00H, 'a', 00H, 'l', 00H
	DB	'}', 00H, 00H, 00H				; `string'
CONST	ENDS
;	COMDAT ??_C@_1BC@LKOFLHLK@?$AAO?$AAp?$AAt?$AAi?$AAo?$AAn?$AAs?$AA?3?$AA?$AA@
CONST	SEGMENT
??_C@_1BC@LKOFLHLK@?$AAO?$AAp?$AAt?$AAi?$AAo?$AAn?$AAs?$AA?3?$AA?$AA@ DB 'O'
	DB	00H, 'p', 00H, 't', 00H, 'i', 00H, 'o', 00H, 'n', 00H, 's', 00H
	DB	':', 00H, 00H, 00H				; `string'
CONST	ENDS
;	COMDAT ??_C@_1HO@HGLHLAKN@?$AAU?$AAs?$AAa?$AAg?$AAe?$AA?3?$AA?5?$AA?5?$AAC?$AAa?$AAp?$AAt?$AAi?$AAo?$AAn?$AA2?$AAA?$AAs?$AAs?$AAC?$AA?4?$AAe?$AAx?$AAe?$AA?5?$AA?$FL?$AAO?$AAp?$AAt?$AAi?$AAo?$AAn@
CONST	SEGMENT
??_C@_1HO@HGLHLAKN@?$AAU?$AAs?$AAa?$AAg?$AAe?$AA?3?$AA?5?$AA?5?$AAC?$AAa?$AAp?$AAt?$AAi?$AAo?$AAn?$AA2?$AAA?$AAs?$AAs?$AAC?$AA?4?$AAe?$AAx?$AAe?$AA?5?$AA?$FL?$AAO?$AAp?$AAt?$AAi?$AAo?$AAn@ DB 'U'
	DB	00H, 's', 00H, 'a', 00H, 'g', 00H, 'e', 00H, ':', 00H, ' ', 00H
	DB	' ', 00H, 'C', 00H, 'a', 00H, 'p', 00H, 't', 00H, 'i', 00H, 'o'
	DB	00H, 'n', 00H, '2', 00H, 'A', 00H, 's', 00H, 's', 00H, 'C', 00H
	DB	'.', 00H, 'e', 00H, 'x', 00H, 'e', 00H, ' ', 00H, '[', 00H, 'O'
	DB	00H, 'p', 00H, 't', 00H, 'i', 00H, 'o', 00H, 'n', 00H, 's', 00H
	DB	']', 00H, ' ', 00H, 's', 00H, 'o', 00H, 'u', 00H, 'r', 00H, 'c'
	DB	00H, 'e', 00H, '.', 00H, 't', 00H, 's', 00H, ' ', 00H, '[', 00H
	DB	't', 00H, 'a', 00H, 'r', 00H, 'g', 00H, 'e', 00H, 't', 00H, ' '
	DB	00H, 'f', 00H, 'i', 00H, 'l', 00H, 'e', 00H, 'n', 00H, 'a', 00H
	DB	'm', 00H, 'e', 00H, ']', 00H, 00H, 00H	; `string'
PUBLIC	?StringCchVPrintfW@@YAJPEA_W_KPEB_WPEAD@Z	; StringCchVPrintfW
PUBLIC	?_tMyPrintf@@YAXPEB_WZZ				; _tMyPrintf
PUBLIC	?ParseCmd@@YAHHPEAPEA_WPEAVCCaption2AssParameter@@@Z ; ParseCmd
;	COMDAT pdata
pdata	SEGMENT
$pdata$?usage@@YAXH@Z DD imagerel ?usage@@YAXH@Z
	DD	imagerel ?usage@@YAXH@Z+173
	DD	imagerel $unwind$?usage@@YAXH@Z
pdata	ENDS
;	COMDAT pdata
pdata	SEGMENT
$pdata$?StringVPrintfWorkerW@@YAJPEA_W_KPEA_KPEB_WPEAD@Z DD imagerel ?StringVPrintfWorkerW@@YAJPEA_W_KPEA_KPEB_WPEAD@Z
	DD	imagerel ?StringVPrintfWorkerW@@YAJPEA_W_KPEA_KPEB_WPEAD@Z+88
	DD	imagerel $unwind$?StringVPrintfWorkerW@@YAJPEA_W_KPEA_KPEB_WPEAD@Z
pdata	ENDS
;	COMDAT pdata
pdata	SEGMENT
$pdata$?StringCchVPrintfW@@YAJPEA_W_KPEB_WPEAD@Z DD imagerel $LN21
	DD	imagerel $LN21+80
	DD	imagerel $unwind$?StringCchVPrintfW@@YAJPEA_W_KPEB_WPEAD@Z
pdata	ENDS
;	COMDAT pdata
pdata	SEGMENT
$pdata$?_tMyPrintf@@YAXPEB_WZZ DD imagerel $LN28
	DD	imagerel $LN28+238
	DD	imagerel $unwind$?_tMyPrintf@@YAXPEB_WZZ
pdata	ENDS
;	COMDAT pdata
pdata	SEGMENT
$pdata$?fin$0@?0??_tMyPrintf@@YAXPEB_WZZ@4HA DD imagerel ?fin$0@?0??_tMyPrintf@@YAXPEB_WZZ@4HA
	DD	imagerel ?fin$0@?0??_tMyPrintf@@YAXPEB_WZZ@4HA+16
	DD	imagerel $unwind$?fin$0@?0??_tMyPrintf@@YAXPEB_WZZ@4HA
pdata	ENDS
;	COMDAT pdata
pdata	SEGMENT
$pdata$?ParseCmd@@YAHHPEAPEA_WPEAVCCaption2AssParameter@@@Z DD imagerel $LN85
	DD	imagerel $LN85+996
	DD	imagerel $unwind$?ParseCmd@@YAHHPEAPEA_WPEAVCCaption2AssParameter@@@Z
;	COMDAT xdata
xdata	SEGMENT
$unwind$?ParseCmd@@YAHHPEAPEA_WPEAVCCaption2AssParameter@@@Z DD 0c1c01H
	DD	0c641cH
	DD	0b541cH
	DD	0a341cH
	DD	0f018321cH
	DD	0d014e016H
	DD	07010c012H
xdata	ENDS
;	COMDAT xdata
xdata	SEGMENT
$unwind$?fin$0@?0??_tMyPrintf@@YAXPEB_WZZ@4HA DD 020601H
	DD	050025206H
xdata	ENDS
;	COMDAT xdata
xdata	SEGMENT
$unwind$?_tMyPrintf@@YAXPEB_WZZ DD 043519H
	DD	024d0123H
	DD	030157016H
	DD	imagerel __GSHandlerCheck_SEH
	DD	01H
	DD	imagerel $LN28+82
	DD	imagerel $LN28+212
	DD	imagerel ?fin$0@?0??_tMyPrintf@@YAXPEB_WZZ@4HA
	DD	00H
	DD	01252H
xdata	ENDS
;	COMDAT xdata
xdata	SEGMENT
$unwind$?StringCchVPrintfW@@YAJPEA_W_KPEB_WPEAD@Z DD 040a01H
	DD	06340aH
	DD	07006320aH
xdata	ENDS
;	COMDAT xdata
xdata	SEGMENT
$unwind$?StringVPrintfWorkerW@@YAJPEA_W_KPEA_KPEB_WPEAD@Z DD 040a01H
	DD	06340aH
	DD	07006320aH
xdata	ENDS
;	COMDAT xdata
xdata	SEGMENT
$unwind$?usage@@YAXH@Z DD 060f01H
	DD	07640fH
	DD	06340fH
	DD	0700b320fH
; Function compile flags: /Ogtpy
;	COMDAT ?ParseCmd@@YAHHPEAPEA_WPEAVCCaption2AssParameter@@@Z
_TEXT	SEGMENT
argc$ = 80
argv$ = 88
param$ = 96
?ParseCmd@@YAHHPEAPEA_WPEAVCCaption2AssParameter@@@Z PROC ; ParseCmd, COMDAT
; File e:\project\other\caption2ass-master\caption2ass_pcr\cmdline.cpp
; Line 55
$LN85:
	mov	QWORD PTR [rsp+8], rbx
	mov	QWORD PTR [rsp+16], rbp
	mov	QWORD PTR [rsp+24], rsi
	push	rdi
	push	r12
	push	r13
	push	r14
	push	r15
	sub	rsp, 32					; 00000020H
	mov	rsi, r8
	mov	r14, rdx
	mov	ebp, ecx
; Line 56
	cmp	ecx, 2
	jl	$ERROR_PARAM$86
; Line 65
	mov	r15, QWORD PTR [r8]
; Line 69
	mov	rcx, QWORD PTR [rsi+48]
	mov	DWORD PTR [r8+44], 3000000		; 002dc6c0H
	lea	r8, OFFSET FLAT:??_C@_1BA@GHOECOCL@?$AAD?$AAe?$AAf?$AAa?$AAu?$AAl?$AAt?$AA?$AA@
	mov	rdx, r15
	call	QWORD PTR __imp_wcscpy_s
; Line 72
	mov	ebx, 1
	cmp	ebp, ebx
	jle	$LN56@ParseCmd
	npad	7
$LL58@ParseCmd:
; Line 73
	movsxd	rax, ebx
	lea	rdx, OFFSET FLAT:??_C@_1BC@BGHGNDBJ@?$AA?9?$AAP?$AAM?$AAT?$AA_?$AAP?$AAI?$AAD?$AA?$AA@
	mov	rcx, QWORD PTR [r14+rax*8]
	lea	rdi, QWORD PTR [r14+rax*8]
	call	QWORD PTR __imp__wcsicmp
	test	eax, eax
	jne	SHORT $LN55@ParseCmd
; Line 74
	inc	ebx
; Line 75
	cmp	ebx, ebp
	jg	$ERROR_PARAM$86
; Line 77
	lea	r8, QWORD PTR [rsi+8]
	lea	rdx, OFFSET FLAT:??_C@_15LHNHECKK@?$AA?$CF?$AAx?$AA?$AA@
; Line 79
	jmp	$LN83@ParseCmd
$LN55@ParseCmd:
	mov	rcx, QWORD PTR [rdi]
	lea	rdx, OFFSET FLAT:??_C@_1BA@LNEPLBJD@?$AA?9?$AAf?$AAo?$AAr?$AAm?$AAa?$AAt?$AA?$AA@
	call	QWORD PTR __imp__wcsicmp
	test	eax, eax
	jne	$LN51@ParseCmd
; Line 80
	inc	ebx
; Line 81
	cmp	ebx, ebp
	jg	$ERROR_PARAM$86
; Line 83
	movsxd	rax, ebx
	lea	rdx, OFFSET FLAT:??_C@_17BKLFCNOE@?$AAs?$AAr?$AAt?$AA?$AA@
	mov	rcx, QWORD PTR [r14+rax*8]
	lea	rdi, QWORD PTR [r14+rax*8]
	call	QWORD PTR __imp__wcsicmp
	test	eax, eax
	jne	SHORT $LN49@ParseCmd
; Line 84
	mov	DWORD PTR [rsi+16], 1
	jmp	$LN57@ParseCmd
$LN49@ParseCmd:
; Line 85
	mov	rcx, QWORD PTR [rdi]
	lea	rdx, OFFSET FLAT:??_C@_17HCKAPAKO@?$AAa?$AAs?$AAs?$AA?$AA@
	call	QWORD PTR __imp__wcsicmp
	test	eax, eax
	jne	SHORT $LN47@ParseCmd
; Line 86
	mov	DWORD PTR [rsi+16], 2
	jmp	$LN57@ParseCmd
$LN47@ParseCmd:
; Line 87
	mov	rcx, QWORD PTR [rdi]
	lea	rdx, OFFSET FLAT:??_C@_17IHIHPLCG@?$AAt?$AAa?$AAw?$AA?$AA@
	call	QWORD PTR __imp__wcsicmp
	test	eax, eax
	jne	SHORT $LN45@ParseCmd
; Line 88
	mov	DWORD PTR [rsi+16], 3
	jmp	$LN57@ParseCmd
$LN45@ParseCmd:
; Line 89
	mov	rcx, QWORD PTR [rdi]
	lea	rdx, OFFSET FLAT:??_C@_19JCJBDIDD@?$AAd?$AAu?$AAa?$AAl?$AA?$AA@
	call	QWORD PTR __imp__wcsicmp
	test	eax, eax
	jne	$ERROR_PARAM$86
; Line 90
	mov	DWORD PTR [rsi+16], 4
; Line 92
	jmp	$LN57@ParseCmd
$LN51@ParseCmd:
; Line 93
	mov	rcx, QWORD PTR [rdi]
	lea	rdx, OFFSET FLAT:??_C@_15LDCBPADN@?$AA?9?$AAi?$AA?$AA@
	call	QWORD PTR __imp__wcsicmp
	test	eax, eax
	jne	SHORT $LN40@ParseCmd
; Line 94
	inc	ebx
; Line 95
	cmp	ebx, ebp
	jg	SHORT $ERROR_PARAM$86
; Line 97
	mov	rcx, QWORD PTR [rsi+56]
	movsxd	r8, ebx
	mov	r8, QWORD PTR [r14+r8*8]
	jmp	$LN80@ParseCmd
$LN40@ParseCmd:
; Line 99
	mov	rcx, QWORD PTR [rdi]
	lea	rdx, OFFSET FLAT:??_C@_15JGEKKPOB@?$AA?9?$AAo?$AA?$AA@
	call	QWORD PTR __imp__wcsicmp
	test	eax, eax
	jne	SHORT $LN37@ParseCmd
; Line 100
	inc	ebx
; Line 101
	cmp	ebx, ebp
	jg	SHORT $ERROR_PARAM$86
; Line 103
	movsxd	r8, ebx
	mov	r8, QWORD PTR [r14+r8*8]
	jmp	$LN81@ParseCmd
$LN37@ParseCmd:
; Line 104
	mov	rcx, QWORD PTR [rdi]
	lea	rdx, OFFSET FLAT:??_C@_1O@BKJLJAOF@?$AA?9?$AAd?$AAe?$AAl?$AAa?$AAy?$AA?$AA@
	call	QWORD PTR __imp__wcsicmp
	test	eax, eax
	jne	SHORT $LN34@ParseCmd
; Line 105
	inc	ebx
; Line 106
	cmp	ebx, ebp
	jg	SHORT $ERROR_PARAM$86
; Line 108
	lea	r8, QWORD PTR [rsi+20]
	lea	rdx, OFFSET FLAT:??_C@_15KNBIKKIN@?$AA?$CF?$AAd?$AA?$AA@
$LN83@ParseCmd:
	movsxd	rcx, ebx
	mov	rcx, QWORD PTR [r14+rcx*8]
	call	QWORD PTR __imp_swscanf_s
	test	eax, eax
	jg	$LN57@ParseCmd
$ERROR_PARAM$86:
; Line 58
	mov	ecx, ebp
	call	?usage@@YAXH@Z				; usage
; Line 59
	or	eax, -1
$LN60@ParseCmd:
; Line 152
	mov	rbx, QWORD PTR [rsp+80]
	mov	rbp, QWORD PTR [rsp+88]
	mov	rsi, QWORD PTR [rsp+96]
	add	rsp, 32					; 00000020H
	pop	r15
	pop	r14
	pop	r13
	pop	r12
	pop	rdi
	ret	0
$LN34@ParseCmd:
; Line 110
	mov	rcx, QWORD PTR [rdi]
	lea	rdx, OFFSET FLAT:??_C@_1BC@CPJNDLEM@?$AA?9?$AAa?$AAs?$AAs?$AAt?$AAy?$AAp?$AAe?$AA?$AA@
	call	QWORD PTR __imp__wcsicmp
	test	eax, eax
	jne	SHORT $LN30@ParseCmd
; Line 111
	inc	ebx
; Line 112
	cmp	ebx, ebp
	jg	SHORT $ERROR_PARAM$86
; Line 114
	mov	rcx, QWORD PTR [rsi+48]
	movsxd	r8, ebx
	mov	r8, QWORD PTR [r14+r8*8]
	jmp	$LN80@ParseCmd
$LN30@ParseCmd:
; Line 115
	mov	rcx, QWORD PTR [rdi]
	lea	rdx, OFFSET FLAT:??_C@_19HOMBNICI@?$AA?9?$AAl?$AAo?$AAg?$AA?$AA@
	call	QWORD PTR __imp__wcsicmp
	test	eax, eax
	jne	SHORT $LN27@ParseCmd
; Line 116
	mov	DWORD PTR [rsi+40], 1
	jmp	$LN57@ParseCmd
$LN27@ParseCmd:
; Line 117
	mov	rcx, QWORD PTR [rdi]
	lea	rdx, OFFSET FLAT:??_C@_1BM@DGNNOKIL@?$AA?9?$AAk?$AAe?$AAe?$AAp?$AAi?$AAn?$AAt?$AAe?$AAr?$AAv?$AAa?$AAl?$AA?$AA@
	call	QWORD PTR __imp__wcsicmp
	test	eax, eax
	jne	SHORT $LN25@ParseCmd
; Line 118
	mov	DWORD PTR [rsi+24], 1
	jmp	$LN57@ParseCmd
$LN25@ParseCmd:
; Line 119
	mov	rcx, QWORD PTR [rdi]
	lea	rdx, OFFSET FLAT:??_C@_1BK@CLDCMEIF@?$AA?9?$AAs?$AAr?$AAt?$AAo?$AAr?$AAn?$AAa?$AAm?$AAe?$AAn?$AAt?$AA?$AA@
	call	QWORD PTR __imp__wcsicmp
	test	eax, eax
	jne	SHORT $LN23@ParseCmd
; Line 120
	mov	DWORD PTR [rsi+32], 1
	jmp	$LN57@ParseCmd
$LN23@ParseCmd:
; Line 121
	mov	rcx, QWORD PTR [rdi]
	lea	rdx, OFFSET FLAT:??_C@_19PDHNDDCL@?$AA?9?$AAh?$AAl?$AAc?$AA?$AA@
	call	QWORD PTR __imp__wcsicmp
	test	eax, eax
	jne	SHORT $LN21@ParseCmd
; Line 122
	inc	ebx
; Line 123
	cmp	ebx, ebp
	jg	$ERROR_PARAM$86
; Line 125
	movsxd	rax, ebx
	lea	rdx, OFFSET FLAT:??_C@_1M@IPHFJKKP@?$AAk?$AAi?$AAg?$AAo?$AAu?$AA?$AA@
	mov	rcx, QWORD PTR [r14+rax*8]
	lea	rdi, QWORD PTR [r14+rax*8]
	call	QWORD PTR __imp__wcsicmp
	test	eax, eax
	jne	SHORT $LN19@ParseCmd
; Line 126
	mov	BYTE PTR [rsi+28], 1
	jmp	$LN57@ParseCmd
$LN19@ParseCmd:
; Line 127
	mov	rcx, QWORD PTR [rdi]
	lea	rdx, OFFSET FLAT:??_C@_17FPDKLCKM@?$AAb?$AAo?$AAx?$AA?$AA@
	call	QWORD PTR __imp__wcsicmp
	test	eax, eax
	jne	SHORT $LN17@ParseCmd
; Line 128
	mov	BYTE PTR [rsi+28], 2
	jmp	$LN57@ParseCmd
$LN17@ParseCmd:
; Line 129
	mov	rcx, QWORD PTR [rdi]
	lea	rdx, OFFSET FLAT:??_C@_19BPEMOBLE@?$AAd?$AAr?$AAa?$AAw?$AA?$AA@
	call	QWORD PTR __imp__wcsicmp
	test	eax, eax
	jne	$ERROR_PARAM$86
; Line 130
	mov	BYTE PTR [rsi+28], 3
; Line 132
	jmp	$LN57@ParseCmd
$LN21@ParseCmd:
; Line 133
	mov	rcx, QWORD PTR [rdi]
	lea	rdx, OFFSET FLAT:??_C@_1BA@FKPHINH@?$AA?9?$AAn?$AAo?$AAr?$AAu?$AAb?$AAi?$AA?$AA@
	call	QWORD PTR __imp__wcsicmp
	test	eax, eax
	jne	SHORT $LN12@ParseCmd
; Line 134
	mov	DWORD PTR [rsi+36], 1
	jmp	$LN57@ParseCmd
$LN12@ParseCmd:
; Line 135
	mov	rcx, QWORD PTR [rdi]
	lea	rdx, OFFSET FLAT:??_C@_1BA@DDEHGBDD@?$AA?9?$AAc?$AAe?$AAn?$AAt?$AAe?$AAr?$AA?$AA@
	call	QWORD PTR __imp__wcsicmp
	test	eax, eax
	jne	SHORT $LN10@ParseCmd
; Line 136
	mov	DWORD PTR [rsi+80], 1
	jmp	$LN57@ParseCmd
$LN10@ParseCmd:
; Line 137
	mov	rcx, QWORD PTR [rdi]
	lea	rdx, OFFSET FLAT:??_C@_1BO@JODOMFMA@?$AA?9?$AAd?$AAe?$AAt?$AAe?$AAc?$AAt?$AA_?$AAl?$AAe?$AAn?$AAg?$AAt?$AAh?$AA?$AA@
	call	QWORD PTR __imp__wcsicmp
	test	eax, eax
	jne	SHORT $LN8@ParseCmd
; Line 138
	inc	ebx
; Line 139
	cmp	ebx, ebp
	jg	$ERROR_PARAM$86
; Line 141
	movsxd	rcx, ebx
	lea	r8, QWORD PTR [rsi+44]
	lea	rdx, OFFSET FLAT:??_C@_15KNBIKKIN@?$AA?$CF?$AAd?$AA?$AA@
	mov	rcx, QWORD PTR [r14+rcx*8]
	call	QWORD PTR __imp_swscanf_s
	test	eax, eax
	js	$ERROR_PARAM$86
; Line 143
	mov	eax, DWORD PTR [rsi+44]
	imul	eax, 10000				; 00002710H
	mov	DWORD PTR [rsi+44], eax
	jmp	SHORT $LN57@ParseCmd
$LN8@ParseCmd:
; Line 144
	mov	rcx, QWORD PTR [rsi+56]
	lea	rdx, OFFSET FLAT:??_C@_11LOCGONAA@?$AA?$AA@
	call	QWORD PTR __imp__wcsicmp
	test	eax, eax
	jne	SHORT $LN4@ParseCmd
; Line 145
	mov	r8, QWORD PTR [rdi]
	mov	rcx, QWORD PTR [rsi+56]
	jmp	SHORT $LN80@ParseCmd
$LN4@ParseCmd:
; Line 146
	mov	rcx, QWORD PTR [rsi+64]
	lea	rdx, OFFSET FLAT:??_C@_11LOCGONAA@?$AA?$AA@
	call	QWORD PTR __imp__wcsicmp
	test	eax, eax
	jne	$ERROR_PARAM$86
; Line 147
	mov	r8, QWORD PTR [rdi]
$LN81@ParseCmd:
	mov	rcx, QWORD PTR [rsi+64]
$LN80@ParseCmd:
	mov	rdx, r15
	call	QWORD PTR __imp_wcscpy_s
$LN57@ParseCmd:
; Line 72
	inc	ebx
	cmp	ebx, ebp
	jl	$LL58@ParseCmd
$LN56@ParseCmd:
; Line 151
	xor	eax, eax
	jmp	$LN60@ParseCmd
?ParseCmd@@YAHHPEAPEA_WPEAVCCaption2AssParameter@@@Z ENDP ; ParseCmd
_TEXT	ENDS
; Function compile flags: /Ogtpy
;	COMDAT ?_tMyPrintf@@YAXPEB_WZZ
_TEXT	SEGMENT
hr$1 = 48
ws$2 = 52
buf$ = 64
__$ArrayPad$ = 4688
tracemsg$ = 4736
?_tMyPrintf@@YAXPEB_WZZ PROC				; _tMyPrintf, COMDAT
; File e:\project\other\caption2ass-master\caption2ass_pcr\cmdline.cpp
; Line 155
$LN28:
	mov	QWORD PTR [rsp+8], rcx
	mov	QWORD PTR [rsp+16], rdx
	mov	QWORD PTR [rsp+24], r8
	mov	QWORD PTR [rsp+32], r9
	push	rbx
	push	rdi
	mov	eax, 4712				; 00001268H
	call	__chkstk
	sub	rsp, rax
	mov	rax, QWORD PTR __security_cookie
	xor	rax, rsp
	mov	QWORD PTR __$ArrayPad$[rsp], rax
	mov	rbx, rcx
; Line 156
	xor	edi, edi
	mov	WORD PTR buf$[rsp], di
	xor	edx, edx
	mov	r8d, 4614				; 00001206H
	lea	rcx, QWORD PTR buf$[rsp+2]
	call	memset
	npad	1
; Line 161
	lea	r9, QWORD PTR tracemsg$[rsp+8]
; File c:\program files (x86)\windows kits\8.0\include\shared\strsafe.h
; Line 10703
	mov	DWORD PTR hr$1[rsp], edi
; Line 10716
	mov	r8, rbx
	mov	edx, 2307				; 00000903H
	lea	rcx, QWORD PTR buf$[rsp]
	call	QWORD PTR __imp__vsnwprintf
; Line 10721
	test	eax, eax
	js	SHORT $LN23@tMyPrintf
	cdqe
	cmp	rax, 2307				; 00000903H
	ja	SHORT $LN23@tMyPrintf
; Line 10732
	jne	SHORT $LN20@tMyPrintf
; Line 10736
	mov	WORD PTR buf$[rsp+4614], di
$LN20@tMyPrintf:
; File e:\project\other\caption2ass-master\caption2ass_pcr\cmdline.cpp
; Line 172
	lea	rax, QWORD PTR buf$[rsp]
	or	rbx, -1
$LL27@tMyPrintf:
	inc	rbx
	cmp	WORD PTR [rax+rbx*2], 0
	jne	SHORT $LL27@tMyPrintf
	mov	ecx, -11				; fffffff5H
	call	QWORD PTR __imp_GetStdHandle
	mov	rcx, rax
	mov	QWORD PTR [rsp+32], rdi
	lea	r9, QWORD PTR ws$2[rsp]
	mov	r8d, ebx
	lea	rdx, QWORD PTR buf$[rsp]
	call	QWORD PTR __imp_WriteConsoleW
	jmp	SHORT $LN1@tMyPrintf
$LN23@tMyPrintf:
; File c:\program files (x86)\windows kits\8.0\include\shared\strsafe.h
; Line 10725
	mov	WORD PTR buf$[rsp+4614], di
; Line 10730
	mov	DWORD PTR hr$1[rsp], -2147024774	; ffffffff8007007aH
$LN1@tMyPrintf:
$LN9@tMyPrintf:
; File e:\project\other\caption2ass-master\caption2ass_pcr\cmdline.cpp
; Line 180
	mov	rcx, QWORD PTR __$ArrayPad$[rsp]
	xor	rcx, rsp
	call	__security_check_cookie
	add	rsp, 4712				; 00001268H
	pop	rdi
	pop	rbx
	ret	0
?_tMyPrintf@@YAXPEB_WZZ ENDP				; _tMyPrintf
_TEXT	ENDS
; Function compile flags: /Ogtpy
;	COMDAT text$x
text$x	SEGMENT
hr$1 = 48
ws$2 = 52
buf$ = 64
__$ArrayPad$ = 4688
tracemsg$ = 4736
?fin$0@?0??_tMyPrintf@@YAXPEB_WZZ@4HA PROC		; `_tMyPrintf'::`1'::fin$0
; Line 175
	push	rbp
	sub	rsp, 48					; 00000030H
	mov	rbp, rdx
$LN6@fin$0:
$LN7@fin$0:
	add	rsp, 48					; 00000030H
	pop	rbp
	ret	0
	int	3
?fin$0@?0??_tMyPrintf@@YAXPEB_WZZ@4HA ENDP		; `_tMyPrintf'::`1'::fin$0
text$x	ENDS
; Function compile flags: /Ogtpy
;	COMDAT ?StringCchVPrintfW@@YAJPEA_W_KPEB_WPEAD@Z
_TEXT	SEGMENT
pszDest$ = 48
cchDest$dead$ = 56
pszFormat$ = 64
argList$ = 72
?StringCchVPrintfW@@YAJPEA_W_KPEB_WPEAD@Z PROC		; StringCchVPrintfW, COMDAT
; File c:\program files (x86)\windows kits\8.0\include\shared\strsafe.h
; Line 4868
$LN21:
	mov	QWORD PTR [rsp+8], rbx
	push	rdi
	sub	rsp, 32					; 00000020H
; Line 10716
	mov	edx, 2307				; 00000903H
; Line 4868
	mov	rbx, rcx
; Line 10703
	xor	edi, edi
; Line 10716
	call	QWORD PTR __imp__vsnwprintf
; Line 10721
	test	eax, eax
	js	SHORT $LN14@StringCchV
	movsxd	rdx, eax
	cmp	rdx, 2307				; 00000903H
	ja	SHORT $LN14@StringCchV
; Line 4886
	mov	eax, edi
; Line 10732
	je	SHORT $LN19@StringCchV
; Line 4887
	mov	rbx, QWORD PTR [rsp+48]
	add	rsp, 32					; 00000020H
	pop	rdi
	ret	0
$LN14@StringCchV:
; Line 4886
	mov	eax, -2147024774			; ffffffff8007007aH
$LN19@StringCchV:
; Line 10725
	mov	WORD PTR [rbx+4614], di
; Line 4887
	mov	rbx, QWORD PTR [rsp+48]
	add	rsp, 32					; 00000020H
	pop	rdi
	ret	0
?StringCchVPrintfW@@YAJPEA_W_KPEB_WPEAD@Z ENDP		; StringCchVPrintfW
_TEXT	ENDS
; Function compile flags: /Ogtpy
;	COMDAT ?StringValidateDestW@@YAJPEB_W_K_K@Z
_TEXT	SEGMENT
pszDest$dead$ = 8
cchDest$dead$ = 16
cchMax$dead$ = 24
?StringValidateDestW@@YAJPEB_W_K_K@Z PROC		; StringValidateDestW, COMDAT
; File c:\program files (x86)\windows kits\8.0\include\shared\strsafe.h
; Line 10284
	xor	eax, eax
; Line 10285
	ret	0
?StringValidateDestW@@YAJPEB_W_K_K@Z ENDP		; StringValidateDestW
_TEXT	ENDS
; Function compile flags: /Ogtpy
;	COMDAT ?StringVPrintfWorkerW@@YAJPEA_W_KPEA_KPEB_WPEAD@Z
_TEXT	SEGMENT
pszDest$ = 48
cchDest$dead$ = 56
pcchNewDestLength$dead$ = 64
pszFormat$ = 72
argList$ = 80
?StringVPrintfWorkerW@@YAJPEA_W_KPEA_KPEB_WPEAD@Z PROC	; StringVPrintfWorkerW, COMDAT
; File c:\program files (x86)\windows kits\8.0\include\shared\strsafe.h
; Line 10702
	mov	QWORD PTR [rsp+8], rbx
	push	rdi
	sub	rsp, 32					; 00000020H
	mov	r8, r9
; Line 10716
	mov	r9, QWORD PTR argList$[rsp]
	mov	edx, 2307				; 00000903H
	mov	rbx, rcx
	xor	edi, edi
	call	QWORD PTR __imp__vsnwprintf
; Line 10721
	test	eax, eax
	js	SHORT $LN5@StringVPri
	movsxd	rdx, eax
	cmp	rdx, 2307				; 00000903H
	ja	SHORT $LN5@StringVPri
; Line 10750
	mov	eax, edi
; Line 10732
	je	SHORT $LN10@StringVPri
; Line 10751
	mov	rbx, QWORD PTR [rsp+48]
	add	rsp, 32					; 00000020H
	pop	rdi
	ret	0
$LN5@StringVPri:
; Line 10750
	mov	eax, -2147024774			; ffffffff8007007aH
$LN10@StringVPri:
; Line 10725
	mov	WORD PTR [rbx+4614], di
; Line 10751
	mov	rbx, QWORD PTR [rsp+48]
	add	rsp, 32					; 00000020H
	pop	rdi
	ret	0
?StringVPrintfWorkerW@@YAJPEA_W_KPEA_KPEB_WPEAD@Z ENDP	; StringVPrintfWorkerW
_TEXT	ENDS
; Function compile flags: /Ogtpy
;	COMDAT ?usage@@YAXH@Z
_TEXT	SEGMENT
argc$ = 48
?usage@@YAXH@Z PROC					; usage, COMDAT
; File e:\project\other\caption2ass-master\caption2ass_pcr\cmdline.cpp
; Line 12
	mov	QWORD PTR [rsp+8], rbx
	mov	QWORD PTR [rsp+16], rsi
	push	rdi
	sub	rsp, 32					; 00000020H
; Line 45
	xor	ebx, ebx
	cmp	ecx, 2
	jge	SHORT $LN8@usage
	mov	rdi, QWORD PTR ?help@?1??usage@@YAXH@Z@4PAPEB_WA
	test	rdi, rdi
	je	SHORT $LN1@usage
	lea	rsi, OFFSET FLAT:?help@?1??usage@@YAXH@Z@4PAPEB_WA
	npad	7
$LL7@usage:
; Line 46
	call	QWORD PTR __imp___iob_func
	lea	rdx, OFFSET FLAT:??_C@_17MJEANDKP@?$AA?$CF?$AAs?$AA?6?$AA?$AA@
	mov	r8, rdi
	lea	rcx, QWORD PTR [rax+48]
	call	QWORD PTR __imp_fwprintf_s
	mov	rdi, QWORD PTR [rsi+rbx*8+8]
	lea	rbx, QWORD PTR [rbx+1]
	test	rdi, rdi
	jne	SHORT $LL7@usage
; Line 52
	mov	rbx, QWORD PTR [rsp+48]
	mov	rsi, QWORD PTR [rsp+56]
	add	rsp, 32					; 00000020H
	pop	rdi
	ret	0
$LN8@usage:
; Line 49
	mov	rax, QWORD PTR ?help@?1??usage@@YAXH@Z@4PAPEB_WA
	test	rax, rax
	je	SHORT $LN1@usage
	lea	rsi, OFFSET FLAT:?help@?1??usage@@YAXH@Z@4PAPEB_WA
	npad	5
$LL3@usage:
; Line 50
	lea	rcx, OFFSET FLAT:??_C@_19EEPNDKNE@?$AA?$CF?$AAs?$AA?$AN?$AA?6?$AA?$AA@
	mov	rdx, rax
	call	?_tMyPrintf@@YAXPEB_WZZ			; _tMyPrintf
	mov	rax, QWORD PTR [rsi+rbx*8+8]
	lea	rbx, QWORD PTR [rbx+1]
	test	rax, rax
	jne	SHORT $LL3@usage
$LN1@usage:
; Line 52
	mov	rbx, QWORD PTR [rsp+48]
	mov	rsi, QWORD PTR [rsp+56]
	add	rsp, 32					; 00000020H
	pop	rdi
	ret	0
?usage@@YAXH@Z ENDP					; usage
_TEXT	ENDS
END
