; Listing generated by Microsoft (R) Optimizing Compiler Version 17.00.50727.1 

include listing.inc

INCLUDELIB OLDNAMES

PUBLIC	??_C@_19PGJFMJNJ@?$AA?4?$AAi?$AAn?$AAi?$AA?$AA@	; `string'
PUBLIC	??_C@_13BPINEIPE@?$AAr?$AA?$AA@			; `string'
PUBLIC	??_C@_1EOE@FFFPLBBE@?$AA?$FL?$AAS?$AAW?$AAF?$AAM?$AAo?$AAd?$AAe?$AAO?$AAf?$AAf?$AAs?$AAe?$AAt?$AA?$FN?$AA?$AN?$AA?6?$AAS?$AAW?$AAF?$AA0?$AAo?$AAf?$AAf?$AAs?$AAe?$AAt?$AA?$DN?$AA0?$AA?$AN?$AA?6?$AAS@ ; `string'
PUBLIC	??_C@_15GANGMFKL@?$AA?$CF?$AAs?$AA?$AA@		; `string'
PUBLIC	??_C@_1BG@CDOABHCO@?$AAS?$AAW?$AAF?$AA0?$AAo?$AAf?$AAf?$AAs?$AAe?$AAt?$AA?$AA@ ; `string'
PUBLIC	??_C@_1BM@HNLPAKEM@?$AAS?$AAW?$AAF?$AAM?$AAo?$AAd?$AAe?$AAO?$AAf?$AAf?$AAs?$AAe?$AAt?$AA?$AA@ ; `string'
PUBLIC	??_C@_1BG@FJLJMKDI@?$AAS?$AAW?$AAF?$AA5?$AAo?$AAf?$AAf?$AAs?$AAe?$AAt?$AA?$AA@ ; `string'
PUBLIC	??_C@_1BG@NOBJOPFL@?$AAS?$AAW?$AAF?$AA7?$AAo?$AAf?$AAf?$AAs?$AAe?$AAt?$AA?$AA@ ; `string'
PUBLIC	??_C@_1BG@POJLBJPA@?$AAS?$AAW?$AAF?$AA9?$AAo?$AAf?$AAf?$AAs?$AAe?$AAt?$AA?$AA@ ; `string'
PUBLIC	??_C@_1BI@HGIPEMJA@?$AAS?$AAW?$AAF?$AA1?$AA1?$AAo?$AAf?$AAf?$AAs?$AAe?$AAt?$AA?$AA@ ; `string'
PUBLIC	??_C@_1BC@NIBFEIDH@?$AAC?$AAo?$AAm?$AAm?$AAe?$AAn?$AAt?$AA1?$AA?$AA@ ; `string'
PUBLIC	??_C@_1BC@MKKAOHNJ@?$AAC?$AAo?$AAm?$AAm?$AAe?$AAn?$AAt?$AA2?$AA?$AA@ ; `string'
PUBLIC	??_C@_1BC@HCBMIALM@?$AAC?$AAo?$AAm?$AAm?$AAe?$AAn?$AAt?$AA3?$AA?$AA@ ; `string'
PUBLIC	??_C@_1BC@JMHNDHDH@?$AAP?$AAl?$AAa?$AAy?$AAR?$AAe?$AAs?$AAX?$AA?$AA@ ; `string'
PUBLIC	??_C@_1BC@CEMBFAFC@?$AAP?$AAl?$AAa?$AAy?$AAR?$AAe?$AAs?$AAY?$AA?$AA@ ; `string'
PUBLIC	??_C@_1BK@KKCMHLHP@?$AAM?$AAS?$AA?5?$AAU?$AAI?$AA?5?$AAG?$AAo?$AAt?$AAh?$AAi?$AAc?$AA?$AA@ ; `string'
PUBLIC	??_C@_1CA@EFHNIMNE@?$AAD?$AAe?$AAf?$AAa?$AAu?$AAl?$AAt?$AAF?$AAo?$AAn?$AAt?$AAn?$AAa?$AAm?$AAe?$AA?$AA@ ; `string'
PUBLIC	??_C@_1CA@FKBLKPBK@?$AAD?$AAe?$AAf?$AAa?$AAu?$AAl?$AAt?$AAF?$AAo?$AAn?$AAt?$AAs?$AAi?$AAz?$AAe?$AA?$AA@ ; `string'
PUBLIC	??_C@_1KI@ODHDDKDM@?$AA?$CG?$AAH?$AA0?$AA0?$AAF?$AAF?$AAF?$AAF?$AAF?$AAF?$AA?0?$AA?$CG?$AAH?$AA0?$AA0?$AA0?$AA0?$AA0?$AA0?$AAF?$AAF?$AA?0?$AA?$CG?$AAH?$AA0?$AA0?$AA0?$AA0?$AA0?$AA0?$AA0?$AA0@ ; `string'
PUBLIC	??_C@_1BK@MAJDBHFD@?$AAD?$AAe?$AAf?$AAa?$AAu?$AAl?$AAt?$AAS?$AAt?$AAy?$AAl?$AAe?$AA?$AA@ ; `string'
PUBLIC	??_C@_1BI@GHCGOOIC@?$AAB?$AAo?$AAx?$AAF?$AAo?$AAn?$AAt?$AAn?$AAa?$AAm?$AAe?$AA?$AA@ ; `string'
PUBLIC	??_C@_1BI@HIEAMNEM@?$AAB?$AAo?$AAx?$AAF?$AAo?$AAn?$AAt?$AAs?$AAi?$AAz?$AAe?$AA?$AA@ ; `string'
PUBLIC	??_C@_1KG@HELOGIFD@?$AA?$CG?$AAH?$AAF?$AAF?$AAF?$AAF?$AAF?$AAF?$AAF?$AAF?$AA?0?$AA?$CG?$AAH?$AA0?$AA0?$AA0?$AA0?$AA0?$AA0?$AAF?$AAF?$AA?0?$AA?$CG?$AAH?$AA0?$AA0?$AAF?$AAF?$AAF?$AAF?$AAF?$AAF@ ; `string'
PUBLIC	??_C@_1BC@DNLGIDCK@?$AAB?$AAo?$AAx?$AAS?$AAt?$AAy?$AAl?$AAe?$AA?$AA@ ; `string'
PUBLIC	??_C@_1BK@NHAHBKDH@?$AAR?$AAu?$AAb?$AAi?$AAF?$AAo?$AAn?$AAt?$AAn?$AAa?$AAm?$AAe?$AA?$AA@ ; `string'
PUBLIC	??_C@_1BK@MIGBDJPJ@?$AAR?$AAu?$AAb?$AAi?$AAF?$AAo?$AAn?$AAt?$AAs?$AAi?$AAz?$AAe?$AA?$AA@ ; `string'
PUBLIC	??_C@_1KG@HFJMNJDL@?$AA?$CG?$AAH?$AA0?$AA0?$AAF?$AAF?$AAF?$AAF?$AAF?$AAF?$AA?0?$AA?$CG?$AAH?$AA0?$AA0?$AA0?$AA0?$AA0?$AA0?$AAF?$AAF?$AA?0?$AA?$CG?$AAH?$AA0?$AA0?$AA0?$AA0?$AA0?$AA0?$AA0?$AA0@ ; `string'
PUBLIC	??_C@_1BE@CKLENLFK@?$AAR?$AAu?$AAb?$AAi?$AAS?$AAt?$AAy?$AAl?$AAe?$AA?$AA@ ; `string'
PUBLIC	??_C@_1BI@GHHIJONN@?$AAA?$AAl?$AAi?$AAg?$AAn?$AAC?$AAe?$AAn?$AAt?$AAe?$AAr?$AA?$AA@ ; `string'
EXTRN	__imp_GetPrivateProfileIntW:PROC
EXTRN	__imp_GetModuleFileNameW:PROC
EXTRN	__imp_GetPrivateProfileStringW:PROC
EXTRN	__imp_fwprintf:PROC
;	COMDAT ??_C@_1BI@GHHIJONN@?$AAA?$AAl?$AAi?$AAg?$AAn?$AAC?$AAe?$AAn?$AAt?$AAe?$AAr?$AA?$AA@
CONST	SEGMENT
??_C@_1BI@GHHIJONN@?$AAA?$AAl?$AAi?$AAg?$AAn?$AAC?$AAe?$AAn?$AAt?$AAe?$AAr?$AA?$AA@ DB 'A'
	DB	00H, 'l', 00H, 'i', 00H, 'g', 00H, 'n', 00H, 'C', 00H, 'e', 00H
	DB	'n', 00H, 't', 00H, 'e', 00H, 'r', 00H, 00H, 00H ; `string'
CONST	ENDS
;	COMDAT ??_C@_1BE@CKLENLFK@?$AAR?$AAu?$AAb?$AAi?$AAS?$AAt?$AAy?$AAl?$AAe?$AA?$AA@
CONST	SEGMENT
??_C@_1BE@CKLENLFK@?$AAR?$AAu?$AAb?$AAi?$AAS?$AAt?$AAy?$AAl?$AAe?$AA?$AA@ DB 'R'
	DB	00H, 'u', 00H, 'b', 00H, 'i', 00H, 'S', 00H, 't', 00H, 'y', 00H
	DB	'l', 00H, 'e', 00H, 00H, 00H			; `string'
CONST	ENDS
;	COMDAT ??_C@_1KG@HFJMNJDL@?$AA?$CG?$AAH?$AA0?$AA0?$AAF?$AAF?$AAF?$AAF?$AAF?$AAF?$AA?0?$AA?$CG?$AAH?$AA0?$AA0?$AA0?$AA0?$AA0?$AA0?$AAF?$AAF?$AA?0?$AA?$CG?$AAH?$AA0?$AA0?$AA0?$AA0?$AA0?$AA0?$AA0?$AA0@
CONST	SEGMENT
??_C@_1KG@HFJMNJDL@?$AA?$CG?$AAH?$AA0?$AA0?$AAF?$AAF?$AAF?$AAF?$AAF?$AAF?$AA?0?$AA?$CG?$AAH?$AA0?$AA0?$AA0?$AA0?$AA0?$AA0?$AAF?$AAF?$AA?0?$AA?$CG?$AAH?$AA0?$AA0?$AA0?$AA0?$AA0?$AA0?$AA0?$AA0@ DB '&'
	DB	00H, 'H', 00H, '0', 00H, '0', 00H, 'F', 00H, 'F', 00H, 'F', 00H
	DB	'F', 00H, 'F', 00H, 'F', 00H, ',', 00H, '&', 00H, 'H', 00H, '0'
	DB	00H, '0', 00H, '0', 00H, '0', 00H, '0', 00H, '0', 00H, 'F', 00H
	DB	'F', 00H, ',', 00H, '&', 00H, 'H', 00H, '0', 00H, '0', 00H, '0'
	DB	00H, '0', 00H, '0', 00H, '0', 00H, '0', 00H, '0', 00H, ',', 00H
	DB	'&', 00H, 'H', 00H, '0', 00H, '0', 00H, '0', 00H, '0', 00H, '0'
	DB	00H, '0', 00H, '0', 00H, '0', 00H, ',', 00H, '0', 00H, ',', 00H
	DB	'0', 00H, ',', 00H, '0', 00H, ',', 00H, '0', 00H, ',', 00H, '1'
	DB	00H, '0', 00H, '0', 00H, ',', 00H, '1', 00H, '0', 00H, '0', 00H
	DB	',', 00H, '0', 00H, ',', 00H, '0', 00H, ',', 00H, '1', 00H, ','
	DB	00H, '2', 00H, ',', 00H, '2', 00H, ',', 00H, '1', 00H, ',', 00H
	DB	'1', 00H, '0', 00H, ',', 00H, '1', 00H, '0', 00H, ',', 00H, '1'
	DB	00H, '0', 00H, ',', 00H, '0', 00H, 00H, 00H	; `string'
CONST	ENDS
;	COMDAT ??_C@_1BK@MIGBDJPJ@?$AAR?$AAu?$AAb?$AAi?$AAF?$AAo?$AAn?$AAt?$AAs?$AAi?$AAz?$AAe?$AA?$AA@
CONST	SEGMENT
??_C@_1BK@MIGBDJPJ@?$AAR?$AAu?$AAb?$AAi?$AAF?$AAo?$AAn?$AAt?$AAs?$AAi?$AAz?$AAe?$AA?$AA@ DB 'R'
	DB	00H, 'u', 00H, 'b', 00H, 'i', 00H, 'F', 00H, 'o', 00H, 'n', 00H
	DB	't', 00H, 's', 00H, 'i', 00H, 'z', 00H, 'e', 00H, 00H, 00H ; `string'
CONST	ENDS
;	COMDAT ??_C@_1BK@NHAHBKDH@?$AAR?$AAu?$AAb?$AAi?$AAF?$AAo?$AAn?$AAt?$AAn?$AAa?$AAm?$AAe?$AA?$AA@
CONST	SEGMENT
??_C@_1BK@NHAHBKDH@?$AAR?$AAu?$AAb?$AAi?$AAF?$AAo?$AAn?$AAt?$AAn?$AAa?$AAm?$AAe?$AA?$AA@ DB 'R'
	DB	00H, 'u', 00H, 'b', 00H, 'i', 00H, 'F', 00H, 'o', 00H, 'n', 00H
	DB	't', 00H, 'n', 00H, 'a', 00H, 'm', 00H, 'e', 00H, 00H, 00H ; `string'
CONST	ENDS
;	COMDAT ??_C@_1BC@DNLGIDCK@?$AAB?$AAo?$AAx?$AAS?$AAt?$AAy?$AAl?$AAe?$AA?$AA@
CONST	SEGMENT
??_C@_1BC@DNLGIDCK@?$AAB?$AAo?$AAx?$AAS?$AAt?$AAy?$AAl?$AAe?$AA?$AA@ DB 'B'
	DB	00H, 'o', 00H, 'x', 00H, 'S', 00H, 't', 00H, 'y', 00H, 'l', 00H
	DB	'e', 00H, 00H, 00H				; `string'
CONST	ENDS
;	COMDAT ??_C@_1KG@HELOGIFD@?$AA?$CG?$AAH?$AAF?$AAF?$AAF?$AAF?$AAF?$AAF?$AAF?$AAF?$AA?0?$AA?$CG?$AAH?$AA0?$AA0?$AA0?$AA0?$AA0?$AA0?$AAF?$AAF?$AA?0?$AA?$CG?$AAH?$AA0?$AA0?$AAF?$AAF?$AAF?$AAF?$AAF?$AAF@
CONST	SEGMENT
??_C@_1KG@HELOGIFD@?$AA?$CG?$AAH?$AAF?$AAF?$AAF?$AAF?$AAF?$AAF?$AAF?$AAF?$AA?0?$AA?$CG?$AAH?$AA0?$AA0?$AA0?$AA0?$AA0?$AA0?$AAF?$AAF?$AA?0?$AA?$CG?$AAH?$AA0?$AA0?$AAF?$AAF?$AAF?$AAF?$AAF?$AAF@ DB '&'
	DB	00H, 'H', 00H, 'F', 00H, 'F', 00H, 'F', 00H, 'F', 00H, 'F', 00H
	DB	'F', 00H, 'F', 00H, 'F', 00H, ',', 00H, '&', 00H, 'H', 00H, '0'
	DB	00H, '0', 00H, '0', 00H, '0', 00H, '0', 00H, '0', 00H, 'F', 00H
	DB	'F', 00H, ',', 00H, '&', 00H, 'H', 00H, '0', 00H, '0', 00H, 'F'
	DB	00H, 'F', 00H, 'F', 00H, 'F', 00H, 'F', 00H, 'F', 00H, ',', 00H
	DB	'&', 00H, 'H', 00H, '0', 00H, '0', 00H, 'F', 00H, 'F', 00H, 'F'
	DB	00H, 'F', 00H, 'F', 00H, 'F', 00H, ',', 00H, '0', 00H, ',', 00H
	DB	'0', 00H, ',', 00H, '0', 00H, ',', 00H, '0', 00H, ',', 00H, '1'
	DB	00H, '0', 00H, '0', 00H, ',', 00H, '1', 00H, '0', 00H, '0', 00H
	DB	',', 00H, '0', 00H, ',', 00H, '0', 00H, ',', 00H, '1', 00H, ','
	DB	00H, '2', 00H, ',', 00H, '2', 00H, ',', 00H, '2', 00H, ',', 00H
	DB	'1', 00H, '0', 00H, ',', 00H, '1', 00H, '0', 00H, ',', 00H, '1'
	DB	00H, '0', 00H, ',', 00H, '0', 00H, 00H, 00H	; `string'
CONST	ENDS
;	COMDAT ??_C@_1BI@HIEAMNEM@?$AAB?$AAo?$AAx?$AAF?$AAo?$AAn?$AAt?$AAs?$AAi?$AAz?$AAe?$AA?$AA@
CONST	SEGMENT
??_C@_1BI@HIEAMNEM@?$AAB?$AAo?$AAx?$AAF?$AAo?$AAn?$AAt?$AAs?$AAi?$AAz?$AAe?$AA?$AA@ DB 'B'
	DB	00H, 'o', 00H, 'x', 00H, 'F', 00H, 'o', 00H, 'n', 00H, 't', 00H
	DB	's', 00H, 'i', 00H, 'z', 00H, 'e', 00H, 00H, 00H ; `string'
CONST	ENDS
;	COMDAT ??_C@_1BI@GHCGOOIC@?$AAB?$AAo?$AAx?$AAF?$AAo?$AAn?$AAt?$AAn?$AAa?$AAm?$AAe?$AA?$AA@
CONST	SEGMENT
??_C@_1BI@GHCGOOIC@?$AAB?$AAo?$AAx?$AAF?$AAo?$AAn?$AAt?$AAn?$AAa?$AAm?$AAe?$AA?$AA@ DB 'B'
	DB	00H, 'o', 00H, 'x', 00H, 'F', 00H, 'o', 00H, 'n', 00H, 't', 00H
	DB	'n', 00H, 'a', 00H, 'm', 00H, 'e', 00H, 00H, 00H ; `string'
CONST	ENDS
;	COMDAT ??_C@_1BK@MAJDBHFD@?$AAD?$AAe?$AAf?$AAa?$AAu?$AAl?$AAt?$AAS?$AAt?$AAy?$AAl?$AAe?$AA?$AA@
CONST	SEGMENT
??_C@_1BK@MAJDBHFD@?$AAD?$AAe?$AAf?$AAa?$AAu?$AAl?$AAt?$AAS?$AAt?$AAy?$AAl?$AAe?$AA?$AA@ DB 'D'
	DB	00H, 'e', 00H, 'f', 00H, 'a', 00H, 'u', 00H, 'l', 00H, 't', 00H
	DB	'S', 00H, 't', 00H, 'y', 00H, 'l', 00H, 'e', 00H, 00H, 00H ; `string'
CONST	ENDS
;	COMDAT ??_C@_1KI@ODHDDKDM@?$AA?$CG?$AAH?$AA0?$AA0?$AAF?$AAF?$AAF?$AAF?$AAF?$AAF?$AA?0?$AA?$CG?$AAH?$AA0?$AA0?$AA0?$AA0?$AA0?$AA0?$AAF?$AAF?$AA?0?$AA?$CG?$AAH?$AA0?$AA0?$AA0?$AA0?$AA0?$AA0?$AA0?$AA0@
CONST	SEGMENT
??_C@_1KI@ODHDDKDM@?$AA?$CG?$AAH?$AA0?$AA0?$AAF?$AAF?$AAF?$AAF?$AAF?$AAF?$AA?0?$AA?$CG?$AAH?$AA0?$AA0?$AA0?$AA0?$AA0?$AA0?$AAF?$AAF?$AA?0?$AA?$CG?$AAH?$AA0?$AA0?$AA0?$AA0?$AA0?$AA0?$AA0?$AA0@ DB '&'
	DB	00H, 'H', 00H, '0', 00H, '0', 00H, 'F', 00H, 'F', 00H, 'F', 00H
	DB	'F', 00H, 'F', 00H, 'F', 00H, ',', 00H, '&', 00H, 'H', 00H, '0'
	DB	00H, '0', 00H, '0', 00H, '0', 00H, '0', 00H, '0', 00H, 'F', 00H
	DB	'F', 00H, ',', 00H, '&', 00H, 'H', 00H, '0', 00H, '0', 00H, '0'
	DB	00H, '0', 00H, '0', 00H, '0', 00H, '0', 00H, '0', 00H, ',', 00H
	DB	'&', 00H, 'H', 00H, '0', 00H, '0', 00H, '0', 00H, '0', 00H, '0'
	DB	00H, '0', 00H, '0', 00H, '0', 00H, ',', 00H, '0', 00H, ',', 00H
	DB	'0', 00H, ',', 00H, '0', 00H, ',', 00H, '0', 00H, ',', 00H, '1'
	DB	00H, '0', 00H, '0', 00H, ',', 00H, '1', 00H, '0', 00H, '0', 00H
	DB	',', 00H, '1', 00H, '5', 00H, ',', 00H, '0', 00H, ',', 00H, '1'
	DB	00H, ',', 00H, '2', 00H, ',', 00H, '2', 00H, ',', 00H, '1', 00H
	DB	',', 00H, '1', 00H, '0', 00H, ',', 00H, '1', 00H, '0', 00H, ','
	DB	00H, '1', 00H, '0', 00H, ',', 00H, '0', 00H, 00H, 00H ; `string'
CONST	ENDS
;	COMDAT ??_C@_1CA@FKBLKPBK@?$AAD?$AAe?$AAf?$AAa?$AAu?$AAl?$AAt?$AAF?$AAo?$AAn?$AAt?$AAs?$AAi?$AAz?$AAe?$AA?$AA@
CONST	SEGMENT
??_C@_1CA@FKBLKPBK@?$AAD?$AAe?$AAf?$AAa?$AAu?$AAl?$AAt?$AAF?$AAo?$AAn?$AAt?$AAs?$AAi?$AAz?$AAe?$AA?$AA@ DB 'D'
	DB	00H, 'e', 00H, 'f', 00H, 'a', 00H, 'u', 00H, 'l', 00H, 't', 00H
	DB	'F', 00H, 'o', 00H, 'n', 00H, 't', 00H, 's', 00H, 'i', 00H, 'z'
	DB	00H, 'e', 00H, 00H, 00H			; `string'
CONST	ENDS
;	COMDAT ??_C@_1CA@EFHNIMNE@?$AAD?$AAe?$AAf?$AAa?$AAu?$AAl?$AAt?$AAF?$AAo?$AAn?$AAt?$AAn?$AAa?$AAm?$AAe?$AA?$AA@
CONST	SEGMENT
??_C@_1CA@EFHNIMNE@?$AAD?$AAe?$AAf?$AAa?$AAu?$AAl?$AAt?$AAF?$AAo?$AAn?$AAt?$AAn?$AAa?$AAm?$AAe?$AA?$AA@ DB 'D'
	DB	00H, 'e', 00H, 'f', 00H, 'a', 00H, 'u', 00H, 'l', 00H, 't', 00H
	DB	'F', 00H, 'o', 00H, 'n', 00H, 't', 00H, 'n', 00H, 'a', 00H, 'm'
	DB	00H, 'e', 00H, 00H, 00H			; `string'
CONST	ENDS
;	COMDAT ??_C@_1BK@KKCMHLHP@?$AAM?$AAS?$AA?5?$AAU?$AAI?$AA?5?$AAG?$AAo?$AAt?$AAh?$AAi?$AAc?$AA?$AA@
CONST	SEGMENT
??_C@_1BK@KKCMHLHP@?$AAM?$AAS?$AA?5?$AAU?$AAI?$AA?5?$AAG?$AAo?$AAt?$AAh?$AAi?$AAc?$AA?$AA@ DB 'M'
	DB	00H, 'S', 00H, ' ', 00H, 'U', 00H, 'I', 00H, ' ', 00H, 'G', 00H
	DB	'o', 00H, 't', 00H, 'h', 00H, 'i', 00H, 'c', 00H, 00H, 00H ; `string'
CONST	ENDS
;	COMDAT ??_C@_1BC@CEMBFAFC@?$AAP?$AAl?$AAa?$AAy?$AAR?$AAe?$AAs?$AAY?$AA?$AA@
CONST	SEGMENT
??_C@_1BC@CEMBFAFC@?$AAP?$AAl?$AAa?$AAy?$AAR?$AAe?$AAs?$AAY?$AA?$AA@ DB 'P'
	DB	00H, 'l', 00H, 'a', 00H, 'y', 00H, 'R', 00H, 'e', 00H, 's', 00H
	DB	'Y', 00H, 00H, 00H				; `string'
CONST	ENDS
;	COMDAT ??_C@_1BC@JMHNDHDH@?$AAP?$AAl?$AAa?$AAy?$AAR?$AAe?$AAs?$AAX?$AA?$AA@
CONST	SEGMENT
??_C@_1BC@JMHNDHDH@?$AAP?$AAl?$AAa?$AAy?$AAR?$AAe?$AAs?$AAX?$AA?$AA@ DB 'P'
	DB	00H, 'l', 00H, 'a', 00H, 'y', 00H, 'R', 00H, 'e', 00H, 's', 00H
	DB	'X', 00H, 00H, 00H				; `string'
CONST	ENDS
;	COMDAT ??_C@_1BC@HCBMIALM@?$AAC?$AAo?$AAm?$AAm?$AAe?$AAn?$AAt?$AA3?$AA?$AA@
CONST	SEGMENT
??_C@_1BC@HCBMIALM@?$AAC?$AAo?$AAm?$AAm?$AAe?$AAn?$AAt?$AA3?$AA?$AA@ DB 'C'
	DB	00H, 'o', 00H, 'm', 00H, 'm', 00H, 'e', 00H, 'n', 00H, 't', 00H
	DB	'3', 00H, 00H, 00H				; `string'
CONST	ENDS
;	COMDAT ??_C@_1BC@MKKAOHNJ@?$AAC?$AAo?$AAm?$AAm?$AAe?$AAn?$AAt?$AA2?$AA?$AA@
CONST	SEGMENT
??_C@_1BC@MKKAOHNJ@?$AAC?$AAo?$AAm?$AAm?$AAe?$AAn?$AAt?$AA2?$AA?$AA@ DB 'C'
	DB	00H, 'o', 00H, 'm', 00H, 'm', 00H, 'e', 00H, 'n', 00H, 't', 00H
	DB	'2', 00H, 00H, 00H				; `string'
CONST	ENDS
;	COMDAT ??_C@_1BC@NIBFEIDH@?$AAC?$AAo?$AAm?$AAm?$AAe?$AAn?$AAt?$AA1?$AA?$AA@
CONST	SEGMENT
??_C@_1BC@NIBFEIDH@?$AAC?$AAo?$AAm?$AAm?$AAe?$AAn?$AAt?$AA1?$AA?$AA@ DB 'C'
	DB	00H, 'o', 00H, 'm', 00H, 'm', 00H, 'e', 00H, 'n', 00H, 't', 00H
	DB	'1', 00H, 00H, 00H				; `string'
CONST	ENDS
;	COMDAT ??_C@_1BI@HGIPEMJA@?$AAS?$AAW?$AAF?$AA1?$AA1?$AAo?$AAf?$AAf?$AAs?$AAe?$AAt?$AA?$AA@
CONST	SEGMENT
??_C@_1BI@HGIPEMJA@?$AAS?$AAW?$AAF?$AA1?$AA1?$AAo?$AAf?$AAf?$AAs?$AAe?$AAt?$AA?$AA@ DB 'S'
	DB	00H, 'W', 00H, 'F', 00H, '1', 00H, '1', 00H, 'o', 00H, 'f', 00H
	DB	'f', 00H, 's', 00H, 'e', 00H, 't', 00H, 00H, 00H ; `string'
CONST	ENDS
;	COMDAT ??_C@_1BG@POJLBJPA@?$AAS?$AAW?$AAF?$AA9?$AAo?$AAf?$AAf?$AAs?$AAe?$AAt?$AA?$AA@
CONST	SEGMENT
??_C@_1BG@POJLBJPA@?$AAS?$AAW?$AAF?$AA9?$AAo?$AAf?$AAf?$AAs?$AAe?$AAt?$AA?$AA@ DB 'S'
	DB	00H, 'W', 00H, 'F', 00H, '9', 00H, 'o', 00H, 'f', 00H, 'f', 00H
	DB	's', 00H, 'e', 00H, 't', 00H, 00H, 00H	; `string'
CONST	ENDS
;	COMDAT ??_C@_1BG@NOBJOPFL@?$AAS?$AAW?$AAF?$AA7?$AAo?$AAf?$AAf?$AAs?$AAe?$AAt?$AA?$AA@
CONST	SEGMENT
??_C@_1BG@NOBJOPFL@?$AAS?$AAW?$AAF?$AA7?$AAo?$AAf?$AAf?$AAs?$AAe?$AAt?$AA?$AA@ DB 'S'
	DB	00H, 'W', 00H, 'F', 00H, '7', 00H, 'o', 00H, 'f', 00H, 'f', 00H
	DB	's', 00H, 'e', 00H, 't', 00H, 00H, 00H	; `string'
CONST	ENDS
;	COMDAT ??_C@_1BG@FJLJMKDI@?$AAS?$AAW?$AAF?$AA5?$AAo?$AAf?$AAf?$AAs?$AAe?$AAt?$AA?$AA@
CONST	SEGMENT
??_C@_1BG@FJLJMKDI@?$AAS?$AAW?$AAF?$AA5?$AAo?$AAf?$AAf?$AAs?$AAe?$AAt?$AA?$AA@ DB 'S'
	DB	00H, 'W', 00H, 'F', 00H, '5', 00H, 'o', 00H, 'f', 00H, 'f', 00H
	DB	's', 00H, 'e', 00H, 't', 00H, 00H, 00H	; `string'
CONST	ENDS
;	COMDAT ??_C@_1BM@HNLPAKEM@?$AAS?$AAW?$AAF?$AAM?$AAo?$AAd?$AAe?$AAO?$AAf?$AAf?$AAs?$AAe?$AAt?$AA?$AA@
CONST	SEGMENT
??_C@_1BM@HNLPAKEM@?$AAS?$AAW?$AAF?$AAM?$AAo?$AAd?$AAe?$AAO?$AAf?$AAf?$AAs?$AAe?$AAt?$AA?$AA@ DB 'S'
	DB	00H, 'W', 00H, 'F', 00H, 'M', 00H, 'o', 00H, 'd', 00H, 'e', 00H
	DB	'O', 00H, 'f', 00H, 'f', 00H, 's', 00H, 'e', 00H, 't', 00H, 00H
	DB	00H						; `string'
CONST	ENDS
;	COMDAT ??_C@_1BG@CDOABHCO@?$AAS?$AAW?$AAF?$AA0?$AAo?$AAf?$AAf?$AAs?$AAe?$AAt?$AA?$AA@
CONST	SEGMENT
??_C@_1BG@CDOABHCO@?$AAS?$AAW?$AAF?$AA0?$AAo?$AAf?$AAf?$AAs?$AAe?$AAt?$AA?$AA@ DB 'S'
	DB	00H, 'W', 00H, 'F', 00H, '0', 00H, 'o', 00H, 'f', 00H, 'f', 00H
	DB	's', 00H, 'e', 00H, 't', 00H, 00H, 00H	; `string'
CONST	ENDS
;	COMDAT ??_C@_15GANGMFKL@?$AA?$CF?$AAs?$AA?$AA@
CONST	SEGMENT
??_C@_15GANGMFKL@?$AA?$CF?$AAs?$AA?$AA@ DB '%', 00H, 's', 00H, 00H, 00H ; `string'
CONST	ENDS
;	COMDAT ??_C@_1EOE@FFFPLBBE@?$AA?$FL?$AAS?$AAW?$AAF?$AAM?$AAo?$AAd?$AAe?$AAO?$AAf?$AAf?$AAs?$AAe?$AAt?$AA?$FN?$AA?$AN?$AA?6?$AAS?$AAW?$AAF?$AA0?$AAo?$AAf?$AAf?$AAs?$AAe?$AAt?$AA?$DN?$AA0?$AA?$AN?$AA?6?$AAS@
CONST	SEGMENT
??_C@_1EOE@FFFPLBBE@?$AA?$FL?$AAS?$AAW?$AAF?$AAM?$AAo?$AAd?$AAe?$AAO?$AAf?$AAf?$AAs?$AAe?$AAt?$AA?$FN?$AA?$AN?$AA?6?$AAS?$AAW?$AAF?$AA0?$AAo?$AAf?$AAf?$AAs?$AAe?$AAt?$AA?$DN?$AA0?$AA?$AN?$AA?6?$AAS@ DB '['
	DB	00H, 'S', 00H, 'W', 00H, 'F', 00H, 'M', 00H, 'o', 00H, 'd', 00H
	DB	'e', 00H, 'O', 00H, 'f', 00H, 'f', 00H, 's', 00H, 'e', 00H, 't'
	DB	00H, ']', 00H, 0dH, 00H, 0aH, 00H, 'S', 00H, 'W', 00H, 'F', 00H
	DB	'0', 00H, 'o', 00H, 'f', 00H, 'f', 00H, 's', 00H, 'e', 00H, 't'
	DB	00H, '=', 00H, '0', 00H, 0dH, 00H, 0aH, 00H, 'S', 00H, 'W', 00H
	DB	'F', 00H, '5', 00H, 'o', 00H, 'f', 00H, 'f', 00H, 's', 00H, 'e'
	DB	00H, 't', 00H, '=', 00H, '0', 00H, 0dH, 00H, 0aH, 00H, 'S', 00H
	DB	'W', 00H, 'F', 00H, '7', 00H, 'o', 00H, 'f', 00H, 'f', 00H, 's'
	DB	00H, 'e', 00H, 't', 00H, '=', 00H, '0', 00H, 0dH, 00H, 0aH, 00H
	DB	'S', 00H, 'W', 00H, 'F', 00H, '9', 00H, 'o', 00H, 'f', 00H, 'f'
	DB	00H, 's', 00H, 'e', 00H, 't', 00H, '=', 00H, '0', 00H, 0dH, 00H
	DB	0aH, 00H, 'S', 00H, 'W', 00H, 'F', 00H, '1', 00H, '1', 00H, 'o'
	DB	00H, 'f', 00H, 'f', 00H, 's', 00H, 'e', 00H, 't', 00H, '=', 00H
	DB	'0', 00H, 0dH, 00H, 0aH, 00H, '[', 00H, 'D', 00H, 'e', 00H, 'f'
	DB	00H, 'a', 00H, 'u', 00H, 'l', 00H, 't', 00H, ']', 00H, 0dH, 00H
	DB	0aH, 00H, 'C', 00H, 'o', 00H, 'm', 00H, 'm', 00H, 'e', 00H, 'n'
	DB	00H, 't', 00H, '1', 00H, '=', 00H, '''', 00H, 'D', 00H, 'e', 00H
	DB	'f', 00H, 'a', 00H, 'u', 00H, 'l', 00H, 't', 00H, ' ', 00H, 's'
	DB	00H, 't', 00H, 'y', 00H, 'l', 00H, 'e', 00H, '''', 00H, 0dH, 00H
	DB	0aH, 00H, 'C', 00H, 'o', 00H, 'm', 00H, 'm', 00H, 'e', 00H, 'n'
	DB	00H, 't', 00H, '2', 00H, '=', 00H, 0dH, 00H, 0aH, 00H, 'C', 00H
	DB	'o', 00H, 'm', 00H, 'm', 00H, 'e', 00H, 'n', 00H, 't', 00H, '3'
	DB	00H, '=', 00H, 0dH, 00H, 0aH, 00H, 'P', 00H, 'l', 00H, 'a', 00H
	DB	'y', 00H, 'R', 00H, 'e', 00H, 's', 00H, 'X', 00H, '=', 00H, '1'
	DB	00H, '9', 00H, '2', 00H, '0', 00H, 0dH, 00H, 0aH, 00H, 'P', 00H
	DB	'l', 00H, 'a', 00H, 'y', 00H, 'R', 00H, 'e', 00H, 's', 00H, 'Y'
	DB	00H, '=', 00H, '1', 00H, '0', 00H, '8', 00H, '0', 00H, 0dH, 00H
	DB	0aH, 00H, 'D', 00H, 'e', 00H, 'f', 00H, 'a', 00H, 'u', 00H, 'l'
	DB	00H, 't', 00H, 'F', 00H, 'o', 00H, 'n', 00H, 't', 00H, 'n', 00H
	DB	'a', 00H, 'm', 00H, 'e', 00H, '=', 00H, '''', 00H, 'M', 00H, 'S'
	DB	00H, ' ', 00H, 'U', 00H, 'I', 00H, ' ', 00H, 'G', 00H, 'o', 00H
	DB	't', 00H, 'h', 00H, 'i', 00H, 'c', 00H, '''', 00H, 0dH, 00H, 0aH
	DB	00H, 'D', 00H, 'e', 00H, 'f', 00H, 'a', 00H, 'u', 00H, 'l', 00H
	DB	't', 00H, 'F', 00H, 'o', 00H, 'n', 00H, 't', 00H, 's', 00H, 'i'
	DB	00H, 'z', 00H, 'e', 00H, '=', 00H, '9', 00H, '0', 00H, 0dH, 00H
	DB	0aH, 00H, 'D', 00H, 'e', 00H, 'f', 00H, 'a', 00H, 'u', 00H, 'l'
	DB	00H, 't', 00H, 'S', 00H, 't', 00H, 'y', 00H, 'l', 00H, 'e', 00H
	DB	'=', 00H, '''', 00H, '&', 00H, 'H', 00H, '0', 00H, '0', 00H, 'F'
	DB	00H, 'F', 00H, 'F', 00H, 'F', 00H, 'F', 00H, 'F', 00H, ',', 00H
	DB	'&', 00H, 'H', 00H, '0', 00H, '0', 00H, '0', 00H, '0', 00H, '0'
	DB	00H, '0', 00H, 'F', 00H, 'F', 00H, ',', 00H, '&', 00H, 'H', 00H
	DB	'0', 00H, '0', 00H, '0', 00H, '0', 00H, '0', 00H, '0', 00H, '0'
	DB	00H, '0', 00H, ',', 00H, '&', 00H, 'H', 00H, '0', 00H, '0', 00H
	DB	'0', 00H, '0', 00H, '0', 00H, '0', 00H, '0', 00H, '0', 00H, ','
	DB	00H, '0', 00H, ',', 00H, '0', 00H, ',', 00H, '0', 00H, ',', 00H
	DB	'0', 00H, ',', 00H, '1', 00H, '0', 00H, '0', 00H, ',', 00H, '1'
	DB	00H, '0', 00H, '0', 00H, ',', 00H, '1', 00H, '5', 00H, ',', 00H
	DB	'0', 00H, ',', 00H, '1', 00H, ',', 00H, '2', 00H, ',', 00H, '2'
	DB	00H, ',', 00H, '1', 00H, ',', 00H, '1', 00H, '0', 00H, ',', 00H
	DB	'1', 00H, '0', 00H, ',', 00H, '1', 00H, '0', 00H, ',', 00H, '0'
	DB	00H, '''', 00H, 0dH, 00H, 0aH, 00H, 'B', 00H, 'o', 00H, 'x', 00H
	DB	'F', 00H, 'o', 00H, 'n', 00H, 't', 00H, 'n', 00H, 'a', 00H, 'm'
	DB	00H, 'e', 00H, '=', 00H, '''', 00H, 'M', 00H, 'S', 00H, ' ', 00H
	DB	'U', 00H, 'I', 00H, ' ', 00H, 'G', 00H, 'o', 00H, 't', 00H, 'h'
	DB	00H, 'i', 00H, 'c', 00H, '''', 00H, 0dH, 00H, 0aH, 00H, 'B', 00H
	DB	'o', 00H, 'x', 00H, 'F', 00H, 'o', 00H, 'n', 00H, 't', 00H, 's'
	DB	00H, 'i', 00H, 'z', 00H, 'e', 00H, '=', 00H, '9', 00H, '0', 00H
	DB	0dH, 00H, 0aH, 00H, 'B', 00H, 'o', 00H, 'x', 00H, 'S', 00H, 't'
	DB	00H, 'y', 00H, 'l', 00H, 'e', 00H, '=', 00H, '''', 00H, '&', 00H
	DB	'H', 00H, 'F', 00H, 'F', 00H, 'F', 00H, 'F', 00H, 'F', 00H, 'F'
	DB	00H, 'F', 00H, 'F', 00H, ',', 00H, '&', 00H, 'H', 00H, '0', 00H
	DB	'0', 00H, '0', 00H, '0', 00H, '0', 00H, '0', 00H, 'F', 00H, 'F'
	DB	00H, ',', 00H, '&', 00H, 'H', 00H, '0', 00H, '0', 00H, 'F', 00H
	DB	'F', 00H, 'F', 00H, 'F', 00H, 'F', 00H, 'F', 00H, ',', 00H, '&'
	DB	00H, 'H', 00H, '0', 00H, '0', 00H, 'F', 00H, 'F', 00H, 'F', 00H
	DB	'F', 00H, 'F', 00H, 'F', 00H, ',', 00H, '0', 00H, ',', 00H, '0'
	DB	00H, ',', 00H, '0', 00H, ',', 00H, '0', 00H, ',', 00H, '1', 00H
	DB	'0', 00H, '0', 00H, ',', 00H, '1', 00H, '0', 00H, '0', 00H, ','
	DB	00H, '0', 00H, ',', 00H, '0', 00H, ',', 00H, '1', 00H, ',', 00H
	DB	'2', 00H, ',', 00H, '2', 00H, ',', 00H, '2', 00H, ',', 00H, '1'
	DB	00H, '0', 00H, ',', 00H, '1', 00H, '0', 00H, ',', 00H, '1', 00H
	DB	'0', 00H, ',', 00H, '0', 00H, '''', 00H, 0dH, 00H, 0aH, 00H, 'R'
	DB	00H, 'u', 00H, 'b', 00H, 'i', 00H, 'F', 00H, 'o', 00H, 'n', 00H
	DB	't', 00H, 'n', 00H, 'a', 00H, 'm', 00H, 'e', 00H, '=', 00H, ''''
	DB	00H, 'M', 00H, 'S', 00H, ' ', 00H, 'U', 00H, 'I', 00H, ' ', 00H
	DB	'G', 00H, 'o', 00H, 't', 00H, 'h', 00H, 'i', 00H, 'c', 00H, ''''
	DB	00H, 0dH, 00H, 0aH, 00H, 'R', 00H, 'u', 00H, 'b', 00H, 'i', 00H
	DB	'F', 00H, 'o', 00H, 'n', 00H, 't', 00H, 's', 00H, 'i', 00H, 'z'
	DB	00H, 'e', 00H, '=', 00H, '5', 00H, '0', 00H, 0dH, 00H, 0aH, 00H
	DB	'R', 00H, 'u', 00H, 'b', 00H, 'i', 00H, 'S', 00H, 't', 00H, 'y'
	DB	00H, 'l', 00H, 'e', 00H, '=', 00H, '''', 00H, '&', 00H, 'H', 00H
	DB	'0', 00H, '0', 00H, 'F', 00H, 'F', 00H, 'F', 00H, 'F', 00H, 'F'
	DB	00H, 'F', 00H, ',', 00H, '&', 00H, 'H', 00H, '0', 00H, '0', 00H
	DB	'0', 00H, '0', 00H, '0', 00H, '0', 00H, 'F', 00H, 'F', 00H, ','
	DB	00H, '&', 00H, 'H', 00H, '0', 00H, '0', 00H, '0', 00H, '0', 00H
	DB	'0', 00H, '0', 00H, '0', 00H, '0', 00H, ',', 00H, '&', 00H, 'H'
	DB	00H, '0', 00H, '0', 00H, '0', 00H, '0', 00H, '0', 00H, '0', 00H
	DB	'0', 00H, '0', 00H, ',', 00H, '0', 00H, ',', 00H, '0', 00H, ','
	DB	00H, '0', 00H, ',', 00H, '0', 00H, ',', 00H, '1', 00H, '0', 00H
	DB	'0', 00H, ',', 00H, '1', 00H, '0', 00H, '0', 00H, ',', 00H, '0'
	DB	00H, ',', 00H, '0', 00H, ',', 00H, '1', 00H, ',', 00H, '2', 00H
	DB	',', 00H, '2', 00H, ',', 00H, '1', 00H, ',', 00H, '1', 00H, '0'
	DB	00H, ',', 00H, '1', 00H, '0', 00H, ',', 00H, '1', 00H, '0', 00H
	DB	',', 00H, '0', 00H, '''', 00H, 0dH, 00H, 0aH, 00H, 'A', 00H, 'l'
	DB	00H, 'i', 00H, 'g', 00H, 'n', 00H, 'C', 00H, 'e', 00H, 'n', 00H
	DB	't', 00H, 'e', 00H, 'r', 00H, '=', 00H, '0', 00H, 0dH, 00H, 0aH
	DB	00H, 00H, 00H				; `string'
CONST	ENDS
;	COMDAT ??_C@_13BPINEIPE@?$AAr?$AA?$AA@
CONST	SEGMENT
??_C@_13BPINEIPE@?$AAr?$AA?$AA@ DB 'r', 00H, 00H, 00H	; `string'
CONST	ENDS
;	COMDAT ??_C@_19PGJFMJNJ@?$AA?4?$AAi?$AAn?$AAi?$AA?$AA@
CONST	SEGMENT
??_C@_19PGJFMJNJ@?$AA?4?$AAi?$AAn?$AAi?$AA?$AA@ DB '.', 00H, 'i', 00H, 'n'
	DB	00H, 'i', 00H, 00H, 00H			; `string'
	ORG $+1
utf16le_bom DB	0ffH
	DB	0feH
	DB	05bH
	DB	00H
PUBLIC	?IniFileRead@@YAHPEA_WPEAUass_setting_t@@@Z	; IniFileRead
;	COMDAT pdata
pdata	SEGMENT
$pdata$?GetPrivateProfilePath@@YAHPEA_W@Z DD imagerel ?GetPrivateProfilePath@@YAHPEA_W@Z
	DD	imagerel ?GetPrivateProfilePath@@YAHPEA_W@Z+151
	DD	imagerel $unwind$?GetPrivateProfilePath@@YAHPEA_W@Z
pdata	ENDS
;	COMDAT pdata
pdata	SEGMENT
$pdata$?IniFileRead@@YAHPEA_WPEAUass_setting_t@@@Z DD imagerel $LN65
	DD	imagerel $LN65+7
	DD	imagerel $unwind$?IniFileRead@@YAHPEA_WPEAUass_setting_t@@@Z
pdata	ENDS
;	COMDAT pdata
pdata	SEGMENT
$pdata$3$?IniFileRead@@YAHPEA_WPEAUass_setting_t@@@Z DD imagerel $LN65+7
	DD	imagerel $LN65+169
	DD	imagerel $chain$3$?IniFileRead@@YAHPEA_WPEAUass_setting_t@@@Z
pdata	ENDS
;	COMDAT pdata
pdata	SEGMENT
$pdata$4$?IniFileRead@@YAHPEA_WPEAUass_setting_t@@@Z DD imagerel $LN65+169
	DD	imagerel $LN65+1426
	DD	imagerel $chain$4$?IniFileRead@@YAHPEA_WPEAUass_setting_t@@@Z
pdata	ENDS
;	COMDAT pdata
pdata	SEGMENT
$pdata$5$?IniFileRead@@YAHPEA_WPEAUass_setting_t@@@Z DD imagerel $LN65+1426
	DD	imagerel $LN65+1455
	DD	imagerel $chain$5$?IniFileRead@@YAHPEA_WPEAUass_setting_t@@@Z
pdata	ENDS
;	COMDAT pdata
pdata	SEGMENT
$pdata$6$?IniFileRead@@YAHPEA_WPEAUass_setting_t@@@Z DD imagerel $LN65+1455
	DD	imagerel $LN65+1474
	DD	imagerel $chain$6$?IniFileRead@@YAHPEA_WPEAUass_setting_t@@@Z
pdata	ENDS
;	COMDAT pdata
pdata	SEGMENT
$pdata$7$?IniFileRead@@YAHPEA_WPEAUass_setting_t@@@Z DD imagerel $LN65+1474
	DD	imagerel $LN65+1492
	DD	imagerel $chain$7$?IniFileRead@@YAHPEA_WPEAUass_setting_t@@@Z
;	COMDAT xdata
xdata	SEGMENT
$chain$7$?IniFileRead@@YAHPEA_WPEAUass_setting_t@@@Z DD 021H
	DD	imagerel $LN65
	DD	imagerel $LN65+7
	DD	imagerel $unwind$?IniFileRead@@YAHPEA_WPEAUass_setting_t@@@Z
xdata	ENDS
;	COMDAT xdata
xdata	SEGMENT
$chain$6$?IniFileRead@@YAHPEA_WPEAUass_setting_t@@@Z DD 020021H
	DD	0f6400H
	DD	imagerel $LN65
	DD	imagerel $LN65+7
	DD	imagerel $unwind$?IniFileRead@@YAHPEA_WPEAUass_setting_t@@@Z
xdata	ENDS
;	COMDAT xdata
xdata	SEGMENT
$chain$5$?IniFileRead@@YAHPEA_WPEAUass_setting_t@@@Z DD 021H
	DD	imagerel $LN65+7
	DD	imagerel $LN65+169
	DD	imagerel $chain$3$?IniFileRead@@YAHPEA_WPEAUass_setting_t@@@Z
xdata	ENDS
;	COMDAT xdata
xdata	SEGMENT
$chain$4$?IniFileRead@@YAHPEA_WPEAUass_setting_t@@@Z DD 020521H
	DD	0ac405H
	DD	imagerel $LN65+7
	DD	imagerel $LN65+169
	DD	imagerel $chain$3$?IniFileRead@@YAHPEA_WPEAUass_setting_t@@@Z
xdata	ENDS
;	COMDAT xdata
xdata	SEGMENT
$chain$3$?IniFileRead@@YAHPEA_WPEAUass_setting_t@@@Z DD 081421H
	DD	08f414H
	DD	09e40fH
	DD	0f640aH
	DD	0e3405H
	DD	imagerel $LN65
	DD	imagerel $LN65+7
	DD	imagerel $unwind$?IniFileRead@@YAHPEA_WPEAUass_setting_t@@@Z
xdata	ENDS
;	COMDAT xdata
xdata	SEGMENT
$unwind$?IniFileRead@@YAHPEA_WPEAUass_setting_t@@@Z DD 030701H
	DD	07003a207H
	DD	05002H
xdata	ENDS
;	COMDAT xdata
xdata	SEGMENT
$unwind$?GetPrivateProfilePath@@YAHPEA_W@Z DD 060f01H
	DD	07640fH
	DD	06340fH
	DD	0700b320fH
; Function compile flags: /Ogtpy
;	COMDAT ?IniFileRead@@YAHPEA_WPEAUass_setting_t@@@Z
_TEXT	SEGMENT
ass_type$ = 112
as$ = 120
fp$ = 128
?IniFileRead@@YAHPEA_WPEAUass_setting_t@@@Z PROC	; IniFileRead, COMDAT
; File e:\project\other\caption2ass-master\caption2ass_pcr\inifile.cpp
; Line 46
$LN65:
	push	rbp
	push	rdi
	sub	rsp, 88					; 00000058H
	mov	QWORD PTR [rsp+112], rbx
	mov	QWORD PTR [rsp+120], rsi
	mov	QWORD PTR [rsp+72], r14
	mov	QWORD PTR [rsp+64], r15
	mov	r15, rcx
; Line 51
	mov	ecx, 4096				; 00001000H
	mov	r14, rdx
	or	ebp, -1
	call	QWORD PTR __imp_??2@YAPEAX_K@Z
; Line 52
	mov	ecx, 2048				; 00000800H
	mov	rbx, rax
	call	QWORD PTR __imp_??2@YAPEAX_K@Z
; Line 53
	mov	ecx, 2048				; 00000800H
	mov	rsi, rax
	call	QWORD PTR __imp_??2@YAPEAX_K@Z
	mov	rdi, rax
; Line 54
	test	rbx, rbx
	je	$LN3@IniFileRea
	test	rsi, rsi
	je	$EXIT$66
	test	rax, rax
	je	$EXIT$66
; Line 57
	xor	edx, edx
	mov	r8d, 4096				; 00001000H
	mov	rcx, rbx
	call	memset
; Line 58
	xor	edx, edx
	mov	r8d, 2048				; 00000800H
	mov	rcx, rsi
	call	memset
; Line 59
	xor	edx, edx
	mov	r8d, 2048				; 00000800H
	mov	rcx, rdi
	call	memset
; Line 62
	mov	rcx, rbx
	call	?GetPrivateProfilePath@@YAHPEA_W@Z	; GetPrivateProfilePath
	test	eax, eax
	jne	$EXIT$66
; Line 66
	mov	QWORD PTR [rsp+80], r12
	lea	r8, OFFSET FLAT:??_C@_13BPINEIPE@?$AAr?$AA?$AA@
	lea	rcx, QWORD PTR fp$[rsp]
	xor	r12d, r12d
	mov	rdx, rbx
	mov	QWORD PTR fp$[rsp], r12
	call	QWORD PTR __imp__wfopen_s
	test	eax, eax
	jne	SHORT $LN53@IniFileRea
	mov	rcx, QWORD PTR fp$[rsp]
	test	rcx, rcx
	jne	SHORT $LN54@IniFileRea
$LN53@IniFileRea:
; Line 67
	lea	r8, OFFSET FLAT:??_C@_15MJDFFMKN@?$AAw?$AAb?$AA?$AA@
	lea	rcx, QWORD PTR fp$[rsp]
	mov	rdx, rbx
	call	QWORD PTR __imp__wfopen_s
	test	eax, eax
	jne	$LN63@IniFileRea
	mov	r9, QWORD PTR fp$[rsp]
	test	r9, r9
	je	$LN63@IniFileRea
; Line 70
	lea	edx, QWORD PTR [rax+4]
	lea	r8d, QWORD PTR [rax+1]
	lea	rcx, OFFSET FLAT:utf16le_bom
	call	QWORD PTR __imp_fwrite
; Line 72
	mov	rcx, QWORD PTR fp$[rsp]
	lea	r8, OFFSET FLAT:??_C@_1EOE@FFFPLBBE@?$AA?$FL?$AAS?$AAW?$AAF?$AAM?$AAo?$AAd?$AAe?$AAO?$AAf?$AAf?$AAs?$AAe?$AAt?$AA?$FN?$AA?$AN?$AA?6?$AAS?$AAW?$AAF?$AA0?$AAo?$AAf?$AAf?$AAs?$AAe?$AAt?$AA?$DN?$AA0?$AA?$AN?$AA?6?$AAS@
	lea	rdx, OFFSET FLAT:??_C@_15GANGMFKL@?$AA?$CF?$AAs?$AA?$AA@
	call	QWORD PTR __imp_fwprintf
	mov	rcx, QWORD PTR fp$[rsp]
$LN54@IniFileRea:
; Line 74
	call	QWORD PTR __imp_fclose
; Line 77
	lea	rdx, OFFSET FLAT:??_C@_1BG@CDOABHCO@?$AAS?$AAW?$AAF?$AA0?$AAo?$AAf?$AAf?$AAs?$AAe?$AAt?$AA?$AA@
	lea	rcx, OFFSET FLAT:??_C@_1BM@HNLPAKEM@?$AAS?$AAW?$AAF?$AAM?$AAo?$AAd?$AAe?$AAO?$AAf?$AAf?$AAs?$AAe?$AAt?$AA?$AA@
	mov	r9, rbx
	xor	r8d, r8d
	call	QWORD PTR __imp_GetPrivateProfileIntW
; Line 78
	lea	rdx, OFFSET FLAT:??_C@_1BG@FJLJMKDI@?$AAS?$AAW?$AAF?$AA5?$AAo?$AAf?$AAf?$AAs?$AAe?$AAt?$AA?$AA@
	lea	rcx, OFFSET FLAT:??_C@_1BM@HNLPAKEM@?$AAS?$AAW?$AAF?$AAM?$AAo?$AAd?$AAe?$AAO?$AAf?$AAf?$AAs?$AAe?$AAt?$AA?$AA@
	mov	r9, rbx
	xor	r8d, r8d
	mov	DWORD PTR [r14], eax
	call	QWORD PTR __imp_GetPrivateProfileIntW
; Line 79
	lea	rdx, OFFSET FLAT:??_C@_1BG@NOBJOPFL@?$AAS?$AAW?$AAF?$AA7?$AAo?$AAf?$AAf?$AAs?$AAe?$AAt?$AA?$AA@
	lea	rcx, OFFSET FLAT:??_C@_1BM@HNLPAKEM@?$AAS?$AAW?$AAF?$AAM?$AAo?$AAd?$AAe?$AAO?$AAf?$AAf?$AAs?$AAe?$AAt?$AA?$AA@
	mov	r9, rbx
	xor	r8d, r8d
	mov	DWORD PTR [r14+4], eax
	call	QWORD PTR __imp_GetPrivateProfileIntW
; Line 80
	lea	rdx, OFFSET FLAT:??_C@_1BG@POJLBJPA@?$AAS?$AAW?$AAF?$AA9?$AAo?$AAf?$AAf?$AAs?$AAe?$AAt?$AA?$AA@
	lea	rcx, OFFSET FLAT:??_C@_1BM@HNLPAKEM@?$AAS?$AAW?$AAF?$AAM?$AAo?$AAd?$AAe?$AAO?$AAf?$AAf?$AAs?$AAe?$AAt?$AA?$AA@
	mov	r9, rbx
	xor	r8d, r8d
	mov	DWORD PTR [r14+8], eax
	call	QWORD PTR __imp_GetPrivateProfileIntW
; Line 81
	lea	rdx, OFFSET FLAT:??_C@_1BI@HGIPEMJA@?$AAS?$AAW?$AAF?$AA1?$AA1?$AAo?$AAf?$AAf?$AAs?$AAe?$AAt?$AA?$AA@
	lea	rcx, OFFSET FLAT:??_C@_1BM@HNLPAKEM@?$AAS?$AAW?$AAF?$AAM?$AAo?$AAd?$AAe?$AAO?$AAf?$AAf?$AAs?$AAe?$AAt?$AA?$AA@
	mov	r9, rbx
	xor	r8d, r8d
	mov	DWORD PTR [r14+12], eax
	call	QWORD PTR __imp_GetPrivateProfileIntW
; Line 103
	lea	rdx, OFFSET FLAT:??_C@_1BC@NIBFEIDH@?$AAC?$AAo?$AAm?$AAm?$AAe?$AAn?$AAt?$AA1?$AA?$AA@
	mov	r9, rdi
	xor	r8d, r8d
	mov	rcx, r15
	mov	QWORD PTR [rsp+40], rbx
	mov	DWORD PTR [r14+16], eax
	mov	DWORD PTR [rsp+32], 1024		; 00000400H
	call	QWORD PTR __imp_GetPrivateProfileStringW
	mov	rax, QWORD PTR [r14+24]
	mov	QWORD PTR [rsp+56], r12
	mov	QWORD PTR [rsp+48], r12
	mov	r9d, ebp
	mov	r8, rdi
	xor	edx, edx
	mov	ecx, 65001				; 0000fde9H
	mov	DWORD PTR [rsp+40], 1024		; 00000400H
	mov	QWORD PTR [rsp+32], rax
	call	QWORD PTR __imp_WideCharToMultiByte
; Line 104
	lea	rdx, OFFSET FLAT:??_C@_1BC@MKKAOHNJ@?$AAC?$AAo?$AAm?$AAm?$AAe?$AAn?$AAt?$AA2?$AA?$AA@
	mov	r9, rdi
	xor	r8d, r8d
	mov	rcx, r15
	mov	QWORD PTR [rsp+40], rbx
	mov	DWORD PTR [rsp+32], 1024		; 00000400H
	call	QWORD PTR __imp_GetPrivateProfileStringW
	mov	rax, QWORD PTR [r14+32]
	mov	QWORD PTR [rsp+56], r12
	mov	QWORD PTR [rsp+48], r12
	mov	r9d, ebp
	mov	r8, rdi
	xor	edx, edx
	mov	ecx, 65001				; 0000fde9H
	mov	DWORD PTR [rsp+40], 1024		; 00000400H
	mov	QWORD PTR [rsp+32], rax
	call	QWORD PTR __imp_WideCharToMultiByte
; Line 105
	lea	rdx, OFFSET FLAT:??_C@_1BC@HCBMIALM@?$AAC?$AAo?$AAm?$AAm?$AAe?$AAn?$AAt?$AA3?$AA?$AA@
	mov	r9, rdi
	xor	r8d, r8d
	mov	rcx, r15
	mov	QWORD PTR [rsp+40], rbx
	mov	DWORD PTR [rsp+32], 1024		; 00000400H
	call	QWORD PTR __imp_GetPrivateProfileStringW
	mov	rax, QWORD PTR [r14+40]
	mov	QWORD PTR [rsp+56], r12
	mov	QWORD PTR [rsp+48], r12
	mov	DWORD PTR [rsp+40], 1024		; 00000400H
	mov	r9d, ebp
	mov	QWORD PTR [rsp+32], rax
	mov	r8, rdi
	xor	edx, edx
	mov	ecx, 65001				; 0000fde9H
	call	QWORD PTR __imp_WideCharToMultiByte
; Line 106
	lea	rdx, OFFSET FLAT:??_C@_1BC@JMHNDHDH@?$AAP?$AAl?$AAa?$AAy?$AAR?$AAe?$AAs?$AAX?$AA?$AA@
	mov	r9, rbx
	mov	r8d, 1920				; 00000780H
	mov	rcx, r15
	call	QWORD PTR __imp_GetPrivateProfileIntW
; Line 107
	lea	rdx, OFFSET FLAT:??_C@_1BC@CEMBFAFC@?$AAP?$AAl?$AAa?$AAy?$AAR?$AAe?$AAs?$AAY?$AA?$AA@
	mov	r9, rbx
	mov	r8d, 1080				; 00000438H
	mov	rcx, r15
	mov	DWORD PTR [r14+48], eax
	call	QWORD PTR __imp_GetPrivateProfileIntW
; Line 109
	lea	r8, OFFSET FLAT:??_C@_1BK@KKCMHLHP@?$AAM?$AAS?$AA?5?$AAU?$AAI?$AA?5?$AAG?$AAo?$AAt?$AAh?$AAi?$AAc?$AA?$AA@
	lea	rdx, OFFSET FLAT:??_C@_1CA@EFHNIMNE@?$AAD?$AAe?$AAf?$AAa?$AAu?$AAl?$AAt?$AAF?$AAo?$AAn?$AAt?$AAn?$AAa?$AAm?$AAe?$AA?$AA@
	mov	r9, rdi
	mov	rcx, r15
	mov	QWORD PTR [rsp+40], rbx
	mov	DWORD PTR [r14+52], eax
	mov	DWORD PTR [rsp+32], 1024		; 00000400H
	call	QWORD PTR __imp_GetPrivateProfileStringW
	mov	rax, QWORD PTR [r14+56]
	mov	QWORD PTR [rsp+56], r12
	mov	QWORD PTR [rsp+48], r12
	mov	r9d, ebp
	mov	r8, rdi
	xor	edx, edx
	mov	ecx, 65001				; 0000fde9H
	mov	DWORD PTR [rsp+40], 1024		; 00000400H
	mov	QWORD PTR [rsp+32], rax
	call	QWORD PTR __imp_WideCharToMultiByte
; Line 110
	lea	rdx, OFFSET FLAT:??_C@_1CA@FKBLKPBK@?$AAD?$AAe?$AAf?$AAa?$AAu?$AAl?$AAt?$AAF?$AAo?$AAn?$AAt?$AAs?$AAi?$AAz?$AAe?$AA?$AA@
	mov	r9, rbx
	mov	r8d, 90					; 0000005aH
	mov	rcx, r15
	call	QWORD PTR __imp_GetPrivateProfileIntW
; Line 112
	lea	r8, OFFSET FLAT:??_C@_1KI@ODHDDKDM@?$AA?$CG?$AAH?$AA0?$AA0?$AAF?$AAF?$AAF?$AAF?$AAF?$AAF?$AA?0?$AA?$CG?$AAH?$AA0?$AA0?$AA0?$AA0?$AA0?$AA0?$AAF?$AAF?$AA?0?$AA?$CG?$AAH?$AA0?$AA0?$AA0?$AA0?$AA0?$AA0?$AA0?$AA0@
	lea	rdx, OFFSET FLAT:??_C@_1BK@MAJDBHFD@?$AAD?$AAe?$AAf?$AAa?$AAu?$AAl?$AAt?$AAS?$AAt?$AAy?$AAl?$AAe?$AA?$AA@
	mov	r9, rdi
	mov	rcx, r15
	mov	QWORD PTR [rsp+40], rbx
	mov	DWORD PTR [r14+64], eax
	mov	DWORD PTR [rsp+32], 1024		; 00000400H
	call	QWORD PTR __imp_GetPrivateProfileStringW
	mov	rax, QWORD PTR [r14+72]
	mov	QWORD PTR [rsp+56], r12
	mov	QWORD PTR [rsp+48], r12
	mov	r9d, ebp
	mov	r8, rdi
	xor	edx, edx
	mov	ecx, 65001				; 0000fde9H
	mov	DWORD PTR [rsp+40], 1024		; 00000400H
	mov	QWORD PTR [rsp+32], rax
	call	QWORD PTR __imp_WideCharToMultiByte
; Line 114
	lea	r8, OFFSET FLAT:??_C@_1BK@KKCMHLHP@?$AAM?$AAS?$AA?5?$AAU?$AAI?$AA?5?$AAG?$AAo?$AAt?$AAh?$AAi?$AAc?$AA?$AA@
	lea	rdx, OFFSET FLAT:??_C@_1BI@GHCGOOIC@?$AAB?$AAo?$AAx?$AAF?$AAo?$AAn?$AAt?$AAn?$AAa?$AAm?$AAe?$AA?$AA@
	mov	r9, rdi
	mov	rcx, r15
	mov	QWORD PTR [rsp+40], rbx
	mov	DWORD PTR [rsp+32], 1024		; 00000400H
	call	QWORD PTR __imp_GetPrivateProfileStringW
	mov	rax, QWORD PTR [r14+80]
	mov	QWORD PTR [rsp+56], r12
	mov	QWORD PTR [rsp+48], r12
	mov	r9d, ebp
	mov	r8, rdi
	xor	edx, edx
	mov	ecx, 65001				; 0000fde9H
	mov	DWORD PTR [rsp+40], 1024		; 00000400H
	mov	QWORD PTR [rsp+32], rax
	call	QWORD PTR __imp_WideCharToMultiByte
; Line 115
	lea	rdx, OFFSET FLAT:??_C@_1BI@HIEAMNEM@?$AAB?$AAo?$AAx?$AAF?$AAo?$AAn?$AAt?$AAs?$AAi?$AAz?$AAe?$AA?$AA@
	mov	r9, rbx
	mov	r8d, 90					; 0000005aH
	mov	rcx, r15
	call	QWORD PTR __imp_GetPrivateProfileIntW
; Line 117
	mov	QWORD PTR [rsp+40], rbx
	mov	DWORD PTR [rsp+32], 1024		; 00000400H
	mov	r9, rdi
	lea	r8, OFFSET FLAT:??_C@_1KG@HELOGIFD@?$AA?$CG?$AAH?$AAF?$AAF?$AAF?$AAF?$AAF?$AAF?$AAF?$AAF?$AA?0?$AA?$CG?$AAH?$AA0?$AA0?$AA0?$AA0?$AA0?$AA0?$AAF?$AAF?$AA?0?$AA?$CG?$AAH?$AA0?$AA0?$AAF?$AAF?$AAF?$AAF?$AAF?$AAF@
	lea	rdx, OFFSET FLAT:??_C@_1BC@DNLGIDCK@?$AAB?$AAo?$AAx?$AAS?$AAt?$AAy?$AAl?$AAe?$AA?$AA@
	mov	DWORD PTR [r14+88], eax
	mov	rcx, r15
	call	QWORD PTR __imp_GetPrivateProfileStringW
	mov	rax, QWORD PTR [r14+96]
	mov	QWORD PTR [rsp+56], r12
	mov	QWORD PTR [rsp+48], r12
	mov	r9d, ebp
	mov	r8, rdi
	xor	edx, edx
	mov	ecx, 65001				; 0000fde9H
	mov	DWORD PTR [rsp+40], 1024		; 00000400H
	mov	QWORD PTR [rsp+32], rax
	call	QWORD PTR __imp_WideCharToMultiByte
; Line 119
	lea	r8, OFFSET FLAT:??_C@_1BK@KKCMHLHP@?$AAM?$AAS?$AA?5?$AAU?$AAI?$AA?5?$AAG?$AAo?$AAt?$AAh?$AAi?$AAc?$AA?$AA@
	lea	rdx, OFFSET FLAT:??_C@_1BK@NHAHBKDH@?$AAR?$AAu?$AAb?$AAi?$AAF?$AAo?$AAn?$AAt?$AAn?$AAa?$AAm?$AAe?$AA?$AA@
	mov	r9, rdi
	mov	rcx, r15
	mov	QWORD PTR [rsp+40], rbx
	mov	DWORD PTR [rsp+32], 1024		; 00000400H
	call	QWORD PTR __imp_GetPrivateProfileStringW
	mov	rax, QWORD PTR [r14+104]
	mov	QWORD PTR [rsp+56], r12
	mov	QWORD PTR [rsp+48], r12
	mov	r9d, ebp
	mov	r8, rdi
	xor	edx, edx
	mov	ecx, 65001				; 0000fde9H
	mov	DWORD PTR [rsp+40], 1024		; 00000400H
	mov	QWORD PTR [rsp+32], rax
	call	QWORD PTR __imp_WideCharToMultiByte
; Line 120
	lea	rdx, OFFSET FLAT:??_C@_1BK@MIGBDJPJ@?$AAR?$AAu?$AAb?$AAi?$AAF?$AAo?$AAn?$AAt?$AAs?$AAi?$AAz?$AAe?$AA?$AA@
	mov	r9, rbx
	mov	r8d, 50					; 00000032H
	mov	rcx, r15
	call	QWORD PTR __imp_GetPrivateProfileIntW
; Line 122
	lea	r8, OFFSET FLAT:??_C@_1KG@HFJMNJDL@?$AA?$CG?$AAH?$AA0?$AA0?$AAF?$AAF?$AAF?$AAF?$AAF?$AAF?$AA?0?$AA?$CG?$AAH?$AA0?$AA0?$AA0?$AA0?$AA0?$AA0?$AAF?$AAF?$AA?0?$AA?$CG?$AAH?$AA0?$AA0?$AA0?$AA0?$AA0?$AA0?$AA0?$AA0@
	lea	rdx, OFFSET FLAT:??_C@_1BE@CKLENLFK@?$AAR?$AAu?$AAb?$AAi?$AAS?$AAt?$AAy?$AAl?$AAe?$AA?$AA@
	mov	r9, rdi
	mov	rcx, r15
	mov	QWORD PTR [rsp+40], rbx
	mov	DWORD PTR [r14+112], eax
	mov	DWORD PTR [rsp+32], 1024		; 00000400H
	call	QWORD PTR __imp_GetPrivateProfileStringW
	mov	rax, QWORD PTR [r14+120]
	mov	QWORD PTR [rsp+56], r12
	mov	QWORD PTR [rsp+48], r12
	mov	r9d, ebp
	mov	r8, rdi
	xor	edx, edx
	mov	ecx, 65001				; 0000fde9H
	mov	DWORD PTR [rsp+40], 1024		; 00000400H
	mov	QWORD PTR [rsp+32], rax
	call	QWORD PTR __imp_WideCharToMultiByte
; Line 123
	lea	rdx, OFFSET FLAT:??_C@_1BI@GHHIJONN@?$AAA?$AAl?$AAi?$AAg?$AAn?$AAC?$AAe?$AAn?$AAt?$AAe?$AAr?$AA?$AA@
	mov	r9, rbx
	xor	r8d, r8d
	mov	rcx, r15
	call	QWORD PTR __imp_GetPrivateProfileIntW
; Line 124
	test	eax, eax
	je	SHORT $LN4@IniFileRea
	mov	BYTE PTR [r14+128], 1
$LN4@IniFileRea:
; Line 129
	mov	ebp, r12d
$LN63@IniFileRea:
	mov	r12, QWORD PTR [rsp+80]
$EXIT$66:
; Line 131
	mov	rcx, rbx
	call	QWORD PTR __imp_??3@YAXPEAX@Z
$LN3@IniFileRea:
; Line 132
	mov	r15, QWORD PTR [rsp+64]
	mov	r14, QWORD PTR [rsp+72]
	mov	rbx, QWORD PTR [rsp+112]
	test	rsi, rsi
	je	SHORT $LN2@IniFileRea
	mov	rcx, rsi
	call	QWORD PTR __imp_??3@YAXPEAX@Z
$LN2@IniFileRea:
; Line 133
	mov	rsi, QWORD PTR [rsp+120]
	test	rdi, rdi
	je	SHORT $LN62@IniFileRea
	mov	rcx, rdi
	call	QWORD PTR __imp_??3@YAXPEAX@Z
$LN62@IniFileRea:
; Line 135
	mov	eax, ebp
; Line 136
	add	rsp, 88					; 00000058H
	pop	rdi
	pop	rbp
	ret	0
?IniFileRead@@YAHPEA_WPEAUass_setting_t@@@Z ENDP	; IniFileRead
_TEXT	ENDS
; Function compile flags: /Ogtpy
;	COMDAT ?GetPrivateProfilePath@@YAHPEA_W@Z
_TEXT	SEGMENT
ini_file$ = 48
?GetPrivateProfilePath@@YAHPEA_W@Z PROC			; GetPrivateProfilePath, COMDAT
; File e:\project\other\caption2ass-master\caption2ass_pcr\inifile.cpp
; Line 18
	mov	QWORD PTR [rsp+8], rbx
	mov	QWORD PTR [rsp+16], rsi
	push	rdi
	sub	rsp, 32					; 00000020H
	mov	rsi, rcx
; Line 22
	mov	ecx, 4096				; 00001000H
	or	edi, -1
	call	QWORD PTR __imp_??2@YAPEAX_K@Z
	mov	rbx, rax
; Line 23
	test	rax, rax
	je	SHORT $LN8@GetPrivate
; Line 26
	xor	edx, edx
	mov	r8d, 4096				; 00001000H
	mov	rcx, rax
	call	memset
; Line 29
	mov	r8d, 4096				; 00001000H
	mov	rdx, rbx
	xor	ecx, ecx
	call	QWORD PTR __imp_GetModuleFileNameW
; Line 30
	test	eax, eax
	je	SHORT $EXIT$10
; Line 34
	mov	r8, rbx
	mov	edx, 2048				; 00000800H
	mov	rcx, rsi
	call	QWORD PTR __imp_wcscpy_s
; Line 35
	mov	rcx, rsi
	call	QWORD PTR __imp_PathFindExtensionW
; Line 36
	lea	r8, OFFSET FLAT:??_C@_19PGJFMJNJ@?$AA?4?$AAi?$AAn?$AAi?$AA?$AA@
	lea	edx, QWORD PTR [rdi+6]
	mov	rcx, rax
	call	QWORD PTR __imp_wcscpy_s
; Line 38
	xor	edi, edi
$EXIT$10:
; Line 40
	mov	rcx, rbx
	call	QWORD PTR __imp_??3@YAXPEAX@Z
$LN8@GetPrivate:
; Line 43
	mov	rbx, QWORD PTR [rsp+48]
	mov	rsi, QWORD PTR [rsp+56]
	mov	eax, edi
	add	rsp, 32					; 00000020H
	pop	rdi
	ret	0
?GetPrivateProfilePath@@YAHPEA_W@Z ENDP			; GetPrivateProfilePath
_TEXT	ENDS
END
